LIBRARY ostyle
EXPORTS
  ; segment BSS32
  "__ZN6OpenSP16DssslAppMessages11versionInfoE"                         ; magicseg='BSS32' len=43  comm
  "__ZN6OpenSP16DssslAppMessages6noSpecE"                               ; magicseg='BSS32' len=37  comm
  "__ZN6OpenSP19InterpreterMessages13unexpectedEofE"                    ; magicseg='BSS32' len=48  comm
  "__ZN6OpenSP19InterpreterMessages11invalidCharE"                      ; magicseg='BSS32' len=46  comm
  "__ZN6OpenSP19InterpreterMessages11unknownHashE"                      ; magicseg='BSS32' len=46  comm
  "__ZN6OpenSP19InterpreterMessages20unknownNamedConstantE"             ; magicseg='BSS32' len=55  comm
  "__ZN6OpenSP19InterpreterMessages15unexpectedTokenE"                  ; magicseg='BSS32' len=50  comm
  "__ZN6OpenSP19InterpreterMessages18unterminatedStringE"               ; magicseg='BSS32' len=53  comm
  "__ZN6OpenSP19InterpreterMessages17missingCloseParenE"                ; magicseg='BSS32' len=52  comm
  "__ZN6OpenSP19InterpreterMessages13invalidNumberE"                    ; magicseg='BSS32' len=48  comm
  "__ZN6OpenSP19InterpreterMessages18invalidAfiiGlyphIdE"               ; magicseg='BSS32' len=53  comm
  "__ZN6OpenSP19InterpreterMessages15callNonFunctionE"                  ; magicseg='BSS32' len=50  comm
  "__ZN6OpenSP19InterpreterMessages11tooManyArgsE"                      ; magicseg='BSS32' len=46  comm
  "__ZN6OpenSP19InterpreterMessages10oddKeyArgsE"                       ; magicseg='BSS32' len=45  comm
  "__ZN6OpenSP19InterpreterMessages10missingArgE"                       ; magicseg='BSS32' len=45  comm
  "__ZN6OpenSP19InterpreterMessages26syntacticKeywordAsVariableE"       ; magicseg='BSS32' len=61  comm
  "__ZN6OpenSP19InterpreterMessages26undefinedVariableReferenceE"       ; magicseg='BSS32' len=61  comm
  "__ZN6OpenSP19InterpreterMessages11badCharNameE"                      ; magicseg='BSS32' len=46  comm
  "__ZN6OpenSP19InterpreterMessages21keywordNotAllowedCallE"            ; magicseg='BSS32' len=56  comm
  "__ZN6OpenSP19InterpreterMessages14symbolRequiredE"                   ; magicseg='BSS32' len=49  comm
  "__ZN6OpenSP19InterpreterMessages19unknownTopLevelFormE"              ; magicseg='BSS32' len=54  comm
  "__ZN6OpenSP19InterpreterMessages11badModeFormE"                      ; magicseg='BSS32' len=46  comm
  "__ZN6OpenSP19InterpreterMessages19duplicateDefinitionE"              ; magicseg='BSS32' len=54  comm
  "__ZN6OpenSP19InterpreterMessages14identifierLoopE"                   ; magicseg='BSS32' len=49  comm
  "__ZN6OpenSP19InterpreterMessages10outOfRangeE"                       ; magicseg='BSS32' len=45  comm
  "__ZN6OpenSP19InterpreterMessages8unitLoopE"                          ; magicseg='BSS32' len=42  comm
  "__ZN6OpenSP19InterpreterMessages17badUnitDefinitionE"                ; magicseg='BSS32' len=52  comm
  "__ZN6OpenSP19InterpreterMessages23duplicateUnitDefinitionE"          ; magicseg='BSS32' len=58  comm
  "__ZN6OpenSP19InterpreterMessages17undefinedQuantityE"                ; magicseg='BSS32' len=52  comm
  "__ZN6OpenSP19InterpreterMessages22incompatibleDimensionsE"           ; magicseg='BSS32' len=57  comm
  "__ZN6OpenSP19InterpreterMessages11notABooleanE"                      ; magicseg='BSS32' len=46  comm
  "__ZN6OpenSP19InterpreterMessages8notAPairE"                          ; magicseg='BSS32' len=42  comm
  "__ZN6OpenSP19InterpreterMessages8notAListE"                          ; magicseg='BSS32' len=42  comm
  "__ZN6OpenSP19InterpreterMessages10notASymbolE"                       ; magicseg='BSS32' len=45  comm
  "__ZN6OpenSP19InterpreterMessages10notAStringE"                       ; magicseg='BSS32' len=45  comm
  "__ZN6OpenSP19InterpreterMessages18notAStringOrSymbolE"               ; magicseg='BSS32' len=53  comm
  "__ZN6OpenSP19InterpreterMessages18notASymbolOrStringE"               ; magicseg='BSS32' len=53  comm
  "__ZN6OpenSP19InterpreterMessages8notACharE"                          ; magicseg='BSS32' len=42  comm
  "__ZN6OpenSP19InterpreterMessages14notATimeStringE"                   ; magicseg='BSS32' len=49  comm
  "__ZN6OpenSP19InterpreterMessages9notAStyleE"                         ; magicseg='BSS32' len=43  comm
  "__ZN6OpenSP19InterpreterMessages17notAnExactIntegerE"                ; magicseg='BSS32' len=52  comm
  "__ZN6OpenSP19InterpreterMessages12notAQuantityE"                     ; magicseg='BSS32' len=47  comm
  "__ZN6OpenSP19InterpreterMessages14notAColorSpaceE"                   ; magicseg='BSS32' len=49  comm
  "__ZN6OpenSP19InterpreterMessages10notANumberE"                       ; magicseg='BSS32' len=45  comm
  "__ZN6OpenSP19InterpreterMessages10notASosofoE"                       ; magicseg='BSS32' len=45  comm
  "__ZN6OpenSP19InterpreterMessages21notAnOptSingletonNodeE"            ; magicseg='BSS32' len=56  comm
  "__ZN6OpenSP19InterpreterMessages17notASingletonNodeE"                ; magicseg='BSS32' len=52  comm
  "__ZN6OpenSP19InterpreterMessages12notANodeListE"                     ; magicseg='BSS32' len=47  comm
  "__ZN6OpenSP19InterpreterMessages17notANamedNodeListE"                ; magicseg='BSS32' len=52  comm
  "__ZN6OpenSP19InterpreterMessages14notALengthSpecE"                   ; magicseg='BSS32' len=49  comm
  "__ZN6OpenSP19InterpreterMessages24notAQuantityOrLengthSpecE"         ; magicseg='BSS32' len=59  comm
  "__ZN6OpenSP19InterpreterMessages12notAPriorityE"                     ; magicseg='BSS32' len=47  comm
  "__ZN6OpenSP19InterpreterMessages11notAPatternE"                      ; magicseg='BSS32' len=46  comm
  "__ZN6OpenSP19InterpreterMessages12notAnAddressE"                     ; magicseg='BSS32' len=47  comm
  "__ZN6OpenSP19InterpreterMessages11notAGlyphIdE"                      ; magicseg='BSS32' len=46  comm
  "__ZN6OpenSP19InterpreterMessages19notAGlyphSubstTableE"              ; magicseg='BSS32' len=54  comm
  "__ZN6OpenSP19InterpreterMessages19notAGlyphIdPairListE"              ; magicseg='BSS32' len=54  comm
  "__ZN6OpenSP19InterpreterMessages13notAProcedureE"                    ; magicseg='BSS32' len=48  comm
  "__ZN6OpenSP19InterpreterMessages10notAVectorE"                       ; magicseg='BSS32' len=45  comm
  "__ZN6OpenSP19InterpreterMessages17duplicateRootRuleE"                ; magicseg='BSS32' len=52  comm
  "__ZN6OpenSP19InterpreterMessages21duplicateInitialValueE"            ; magicseg='BSS32' len=56  comm
  "__ZN6OpenSP19InterpreterMessages19invalidStyleKeywordE"              ; magicseg='BSS32' len=54  comm
  "__ZN6OpenSP19InterpreterMessages18invalidMakeKeywordE"               ; magicseg='BSS32' len=53  comm
  "__ZN6OpenSP19InterpreterMessages22unknownFlowObjectClassE"           ; magicseg='BSS32' len=57  comm
  "__ZN6OpenSP19InterpreterMessages13atomicContentE"                    ; magicseg='BSS32' len=48  comm
  "__ZN6OpenSP19InterpreterMessages15labelNotASymbolE"                  ; magicseg='BSS32' len=50  comm
  "__ZN6OpenSP19InterpreterMessages13badConnectionE"                    ; magicseg='BSS32' len=48  comm
  "__ZN6OpenSP19InterpreterMessages13badContentMapE"                    ; magicseg='BSS32' len=48  comm
  "__ZN6OpenSP19InterpreterMessages17contentMapBadPortE"                ; magicseg='BSS32' len=52  comm
  "__ZN6OpenSP19InterpreterMessages26invalidCharacteristicValueE"       ; magicseg='BSS32' len=61  comm
  "__ZN6OpenSP19InterpreterMessages8condFailE"                          ; magicseg='BSS32' len=42  comm
  "__ZN6OpenSP19InterpreterMessages8caseFailE"                          ; magicseg='BSS32' len=42  comm
  "__ZN6OpenSP19InterpreterMessages8caseElseE"                          ; magicseg='BSS32' len=42  comm
  "__ZN6OpenSP19InterpreterMessages24caseUnresolvedQuantitiesE"         ; magicseg='BSS32' len=59  comm
  "__ZN6OpenSP19InterpreterMessages9errorProcE"                         ; magicseg='BSS32' len=43  comm
  "__ZN6OpenSP19InterpreterMessages9divideBy0E"                         ; magicseg='BSS32' len=43  comm
  "__ZN6OpenSP19InterpreterMessages13invalidKeyArgE"                    ; magicseg='BSS32' len=48  comm
  "__ZN6OpenSP19InterpreterMessages13keyArgsNotKeyE"                    ; magicseg='BSS32' len=48  comm
  "__ZN6OpenSP19InterpreterMessages7oneBodyE"                           ; magicseg='BSS32' len=41  comm
  "__ZN6OpenSP19InterpreterMessages10specNotArcE"                       ; magicseg='BSS32' len=45  comm
  "__ZN6OpenSP19InterpreterMessages11noStyleSpecE"                      ; magicseg='BSS32' len=46  comm
  "__ZN6OpenSP19InterpreterMessages15unknownCharNameE"                  ; magicseg='BSS32' len=50  comm
  "__ZN6OpenSP19InterpreterMessages13noCurrentNodeE"                    ; magicseg='BSS32' len=48  comm
  "__ZN6OpenSP19InterpreterMessages23noCurrentProcessingModeE"          ; magicseg='BSS32' len=58  comm
  "__ZN6OpenSP19InterpreterMessages12invalidRadixE"                     ; magicseg='BSS32' len=47  comm
  "__ZN6OpenSP19InterpreterMessages13sosofoContextE"                    ; magicseg='BSS32' len=48  comm
  "__ZN6OpenSP19InterpreterMessages12styleContextE"                     ; magicseg='BSS32' len=47  comm
  "__ZN6OpenSP19InterpreterMessages24notInCharacteristicValueE"         ; magicseg='BSS32' len=59  comm
  "__ZN6OpenSP19InterpreterMessages24expressionNotImplementedE"         ; magicseg='BSS32' len=59  comm
  "__ZN6OpenSP19InterpreterMessages13colorArgCountE"                    ; magicseg='BSS32' len=48  comm
  "__ZN6OpenSP19InterpreterMessages12colorArgTypeE"                     ; magicseg='BSS32' len=47  comm
  "__ZN6OpenSP19InterpreterMessages13colorArgRangeE"                    ; magicseg='BSS32' len=48  comm
  "__ZN6OpenSP19InterpreterMessages16colorProcResTypeE"                 ; magicseg='BSS32' len=51  comm
  "__ZN6OpenSP19InterpreterMessages23unknownColorSpaceFamilyE"          ; magicseg='BSS32' len=58  comm
  "__ZN6OpenSP19InterpreterMessages16colorSpaceNoArgsE"                 ; magicseg='BSS32' len=51  comm
  "__ZN6OpenSP19InterpreterMessages18colorSpaceArgErrorE"               ; magicseg='BSS32' len=53  comm
  "__ZN6OpenSP19InterpreterMessages21notABuiltinInheritedCE"            ; magicseg='BSS32' len=56  comm
  "__ZN6OpenSP19InterpreterMessages19invalidNumberFormatE"              ; magicseg='BSS32' len=54  comm
  "__ZN6OpenSP19InterpreterMessages19invalidPublicIdCharE"              ; magicseg='BSS32' len=54  comm
  "__ZN6OpenSP19InterpreterMessages5debugE"                             ; magicseg='BSS32' len=39  comm
  "__ZN6OpenSP19InterpreterMessages7useLoopE"                           ; magicseg='BSS32' len=41  comm
  "__ZN6OpenSP19InterpreterMessages11missingPartE"                      ; magicseg='BSS32' len=46  comm
  "__ZN6OpenSP19InterpreterMessages7noPartsE"                           ; magicseg='BSS32' len=41  comm
  "__ZN6OpenSP19InterpreterMessages21tableCellOutsideTableE"            ; magicseg='BSS32' len=56  comm
  "__ZN6OpenSP19InterpreterMessages20tableRowOutsideTableE"             ; magicseg='BSS32' len=55  comm
  "__ZN6OpenSP19InterpreterMessages19noNodePropertyValueE"              ; magicseg='BSS32' len=54  comm
  "__ZN6OpenSP19InterpreterMessages17returnNotNodeListE"                ; magicseg='BSS32' len=52  comm
  "__ZN6OpenSP19InterpreterMessages10stackTraceE"                       ; magicseg='BSS32' len=45  comm
  "__ZN6OpenSP19InterpreterMessages18stackTraceEllipsisE"               ; magicseg='BSS32' len=53  comm
  "__ZN6OpenSP19InterpreterMessages15processNodeLoopE"                  ; magicseg='BSS32' len=50  comm
  "__ZN6OpenSP19InterpreterMessages13spliceNotListE"                    ; magicseg='BSS32' len=48  comm
  "__ZN6OpenSP19InterpreterMessages8readOnlyE"                          ; magicseg='BSS32' len=42  comm
  "__ZN6OpenSP19InterpreterMessages18topLevelAssignmentE"               ; magicseg='BSS32' len=53  comm
  "__ZN6OpenSP19InterpreterMessages16continuationDeadE"                 ; magicseg='BSS32' len=51  comm
  "__ZN6OpenSP19InterpreterMessages14patternEmptyGiE"                   ; magicseg='BSS32' len=49  comm
  "__ZN6OpenSP19InterpreterMessages14patternNotListE"                   ; magicseg='BSS32' len=49  comm
  "__ZN6OpenSP19InterpreterMessages12patternBadGiE"                     ; magicseg='BSS32' len=47  comm
  "__ZN6OpenSP19InterpreterMessages16patternBadMemberE"                 ; magicseg='BSS32' len=51  comm
  "__ZN6OpenSP19InterpreterMessages28patternMissingQualifierValueE"     ; magicseg='BSS32' len=63  comm
  "__ZN6OpenSP19InterpreterMessages23patternUnknownQualifierE"          ; magicseg='BSS32' len=58  comm
  "__ZN6OpenSP19InterpreterMessages24patternBadQualifierValueE"         ; magicseg='BSS32' len=59  comm
  "__ZN6OpenSP19InterpreterMessages18patternChildRepeatE"               ; magicseg='BSS32' len=53  comm
  "__ZN6OpenSP19InterpreterMessages28patternBadAttributeQualifierE"     ; magicseg='BSS32' len=63  comm
  "__ZN6OpenSP19InterpreterMessages14ambiguousStyleE"                   ; magicseg='BSS32' len=49  comm
  "__ZN6OpenSP19InterpreterMessages14ambiguousMatchE"                   ; magicseg='BSS32' len=49  comm
  "__ZN6OpenSP19InterpreterMessages30uninitializedVariableReferenceE"                       ; magicseg='BSS32' len=65  comm
  "__ZN6OpenSP19InterpreterMessages10actualLoopE"                       ; magicseg='BSS32' len=45  comm
  "__ZN6OpenSP19InterpreterMessages23duplicateCharacteristicE"          ; magicseg='BSS32' len=58  comm
  "__ZN6OpenSP19InterpreterMessages24duplicateFlowObjectClassE"         ; magicseg='BSS32' len=59  comm
  "__ZN6OpenSP19InterpreterMessages13undefinedModeE"                    ; magicseg='BSS32' len=48  comm
  "__ZN6OpenSP19InterpreterMessages17duplicateCharNameE"                ; magicseg='BSS32' len=52  comm
  "__ZN6OpenSP19InterpreterMessages24duplicateSdataEntityNameE"         ; magicseg='BSS32' len=59  comm
  "__ZN6OpenSP19InterpreterMessages24duplicateSdataEntityTextE"         ; magicseg='BSS32' len=59  comm
  "__ZN6OpenSP19InterpreterMessages22unsupportedDeclarationE"           ; magicseg='BSS32' len=57  comm
  "__ZN6OpenSP19InterpreterMessages25unsupportedCharRepertoireE"        ; magicseg='BSS32' len=60  comm
  "__ZN6OpenSP19InterpreterMessages14badDeclarationE"                   ; magicseg='BSS32' len=49  comm
  "__ZN6OpenSP19InterpreterMessages20duplicateDeclarationE"             ; magicseg='BSS32' len=55  comm
  "__ZN6OpenSP19InterpreterMessages17invalidIdentifierE"                ; magicseg='BSS32' len=52  comm
  "__ZN6OpenSP19InterpreterMessages21badLanguageDefinitionE"            ; magicseg='BSS32' len=56  comm
  "__ZN6OpenSP19InterpreterMessages17noCurrentLanguageE"                ; magicseg='BSS32' len=52  comm
  "__ZN6OpenSP19InterpreterMessages12notALanguageE"                     ; magicseg='BSS32' len=47  comm
  "__ZN6OpenSP19InterpreterMessages19notAPositiveIntegerE"              ; magicseg='BSS32' len=54  comm
  "__ZN6OpenSP19InterpreterMessages12notAnIntegerE"                     ; magicseg='BSS32' len=47  comm
  "__ZN6OpenSP19InterpreterMessages11notAKeywordE"                      ; magicseg='BSS32' len=46  comm
  "__ZN6OpenSP19InterpreterMessages10notAnAlistE"                       ; magicseg='BSS32' len=45  comm
  "__ZN6OpenSP19InterpreterMessages12notACharListE"                     ; magicseg='BSS32' len=47  comm
  "__ZN6OpenSP19InterpreterMessages11lengthErrorE"                      ; magicseg='BSS32' len=46  comm
  "__ZN6OpenSP19InterpreterMessages21noExactRepresentationE"            ; magicseg='BSS32' len=56  comm
  "__ZN6OpenSP19InterpreterMessages20duplicateDefLangDeclE"             ; magicseg='BSS32' len=55  comm
  "__ZN6OpenSP19InterpreterMessages27defLangDeclRequiresLanguageE"      ; magicseg='BSS32' len=62  comm
  "__ZN6OpenSP19InterpreterMessages15invalidUnitNameE"                  ; magicseg='BSS32' len=50  comm
  "__ZN6OpenSP19InterpreterMessages15invalidCharNameE"                  ; magicseg='BSS32' len=50  comm
  "__ZN6OpenSP19InterpreterMessages17invalidCharNumberE"                ; magicseg='BSS32' len=52  comm
  "__ZN6OpenSP19InterpreterMessages19unknownCharPropertyE"              ; magicseg='BSS32' len=54  comm
  "__ZN6OpenSP19InterpreterMessages18badAddCharPropertyE"               ; magicseg='BSS32' len=53  comm
  "__ZN6OpenSP19InterpreterMessages25duplicateCharPropertyDeclE"        ; magicseg='BSS32' len=60  comm
  "__ZN6OpenSP19InterpreterMessages24duplicateAddCharPropertyE"         ; magicseg='BSS32' len=59  comm
  "__ZN6OpenSP19InterpreterMessages15returnNotSosofoE"                  ; magicseg='BSS32' len=50  comm
  "__ZN6OpenSP19InterpreterMessages30varCharPropertyExprUnsupportedE"                       ; magicseg='BSS32' len=65  comm
  "__ZN6OpenSP12jstyleModuleE"                                          ; magicseg='BSS32' len=26  comm

  ; segment DATA32
  "__ZTVN14OpenJade_DSSSL7LangObjE"                                     ; magicseg='DATA32' len=31
  "__ZTVN9Collector6ObjectE"                                            ; magicseg='DATA32' len=24
  "__ZTVN6OpenSP6VectorIPNS_17HashTableItemBaseINS_6StringIjEEEEEE"     ; magicseg='DATA32' len=63
  "__ZTVN6OpenSP13HashTableItemINS_6StringIjEES2_EE"                    ; magicseg='DATA32' len=48
  "__ZTVN6OpenSP13HashTableItemINS_6StringIjEEjEE"                      ; magicseg='DATA32' len=46
  "__ZTVN6OpenSP17HashTableItemBaseINS_6StringIjEEEE"                   ; magicseg='DATA32' len=49
  "__ZTIN6OpenSP13HashTableItemINS_6StringIjEEjEE"                      ; magicseg='DATA32' len=46
  "__ZTIN6OpenSP13HashTableItemINS_6StringIjEES2_EE"                    ; magicseg='DATA32' len=48
  "__ZTIN6OpenSP17HashTableItemBaseINS_6StringIjEEEE"                   ; magicseg='DATA32' len=49
  "__ZTIN6OpenSP6VectorIPNS_17HashTableItemBaseINS_6StringIjEEEEEE"     ; magicseg='DATA32' len=63
  "__ZTIN14OpenJade_DSSSL7LangObjE"                                     ; magicseg='DATA32' len=31
  "__ZTIN9Collector6ObjectE"                                            ; magicseg='DATA32' len=24
  "__ZTIN14OpenJade_DSSSL11LanguageObjE"                                ; magicseg='DATA32' len=36
  "__ZTIN14OpenJade_DSSSL5ELObjE"                                       ; magicseg='DATA32' len=29
  "__ZTV9Collector"                                                     ; magicseg='DATA32' len=15
  "__ZTVN9Collector11DynamicRootE"                                      ; magicseg='DATA32' len=30
  "__ZTI9Collector"                                                     ; magicseg='DATA32' len=15
  "__ZTIN9Collector11DynamicRootE"                                      ; magicseg='DATA32' len=30
  "__ZTVN14OpenJade_DSSSL8DssslAppE"                                    ; magicseg='DATA32' len=32
  "__ZTVN6OpenSP6VectorINS_6StringIjEEEE"                               ; magicseg='DATA32' len=37
  "__ZTVN6OpenSP8GroveAppE"                                             ; magicseg='DATA32' len=23
  "__ZTVN6OpenSP14ParsedSystemIdE"                                      ; magicseg='DATA32' len=30
  "__ZTVN6OpenSP16StringMessageArgE"                                    ; magicseg='DATA32' len=32
  "__ZTVN6OpenSP5OwnerIN14OpenJade_DSSSL10FOTBuilderEEE"                ; magicseg='DATA32' len=52
  "__ZTVN6OpenSP5OwnerINS_12EventHandlerEEE"                            ; magicseg='DATA32' len=40
  "__ZTVN6OpenSP11ArcDirectorE"                                         ; magicseg='DATA32' len=27
  "__ZTVN6OpenSP20SelectOneArcDirectorE"                                ; magicseg='DATA32' len=36
  "__ZTVN6OpenSP14ExternalEntityE"                                      ; magicseg='DATA32' len=30
  "__ZTVN6OpenSP5OwnerINS_11InputSourceEEE"                             ; magicseg='DATA32' len=39
  "__ZTVN6OpenSP6VectorINS_14ParsedSystemId3MapEEE"                     ; magicseg='DATA32' len=47
  "__ZTVN6OpenSP6VectorINS_17StorageObjectSpecEEE"                      ; magicseg='DATA32' len=46
  "__ZTVN6OpenSP6SyntaxE"                                               ; magicseg='DATA32' len=21
  "__ZTVN6OpenSP13HashTableItemINS_6StringIjEEN14OpenJade_Grove7NodePtrEEE"                 ; magicseg='DATA32' len=71
  "__ZTVN6OpenSP6VectorINS_13RangeMapRangeIjjEEEE"                      ; magicseg='DATA32' len=46
  "__ZTVN6OpenSP6VectorINS_18CharsetDeclSectionEEE"                     ; magicseg='DATA32' len=47
  "__ZTVN6OpenSP6VectorINS_10SubstTable4PairEEE"                        ; magicseg='DATA32' len=44
  "__ZTVN6OpenSP6VectorINS_9ISetRangeIjEEEE"                            ; magicseg='DATA32' len=40
  "__ZTVN6OpenSP6VectorINS_16CharsetDeclRangeEEE"                       ; magicseg='DATA32' len=45
  "__ZTIN6OpenSP5OwnerINS_11InputSourceEEE"                             ; magicseg='DATA32' len=39
  "__ZTIN6OpenSP13HashTableItemINS_6StringIjEEN14OpenJade_Grove7NodePtrEEE"                 ; magicseg='DATA32' len=71
  "__ZTIN6OpenSP5OwnerINS_12EventHandlerEEE"                            ; magicseg='DATA32' len=40
  "__ZTIN6OpenSP5OwnerIN14OpenJade_DSSSL10FOTBuilderEEE"                ; magicseg='DATA32' len=52
  "__ZTIN6OpenSP20SelectOneArcDirectorE"                                ; magicseg='DATA32' len=36
  "__ZTIN6OpenSP11ArcDirectorE"                                         ; magicseg='DATA32' len=27
  "__ZTIN14OpenJade_DSSSL8DssslAppE"                                    ; magicseg='DATA32' len=32
  "__ZTIN6OpenSP8GroveAppE"                                             ; magicseg='DATA32' len=23
  "__ZTIN6OpenSP14ExternalEntityE"                                      ; magicseg='DATA32' len=30
  "__ZTIN6OpenSP6VectorINS_18CharsetDeclSectionEEE"                     ; magicseg='DATA32' len=47
  "__ZTIN6OpenSP6VectorINS_16CharsetDeclRangeEEE"                       ; magicseg='DATA32' len=45
  "__ZTIN6OpenSP6SyntaxE"                                               ; magicseg='DATA32' len=21
  "__ZTIN6OpenSP14ParsedSystemIdE"                                      ; magicseg='DATA32' len=30
  "__ZTIN6OpenSP6VectorINS_14ParsedSystemId3MapEEE"                     ; magicseg='DATA32' len=47
  "__ZTIN6OpenSP6VectorINS_17StorageObjectSpecEEE"                      ; magicseg='DATA32' len=46
  "__ZTIN6OpenSP6VectorINS_9ISetRangeIjEEEE"                            ; magicseg='DATA32' len=40
  "__ZTIN6OpenSP6VectorINS_13RangeMapRangeIjjEEEE"                      ; magicseg='DATA32' len=46
  "__ZTIN6OpenSP16StringMessageArgE"                                    ; magicseg='DATA32' len=32
  "__ZTIN6OpenSP6VectorINS_6StringIjEEEE"                               ; magicseg='DATA32' len=37
  "__ZTIN6OpenSP6VectorINS_10SubstTable4PairEEE"                        ; magicseg='DATA32' len=44
  "__ZTVN6OpenSP10EntityDeclE"                                          ; magicseg='DATA32' len=26
  "__ZTVN6OpenSP9ParserAppE"                                            ; magicseg='DATA32' len=24
  "__ZTVN6OpenSP9EntityAppE"                                            ; magicseg='DATA32' len=24
  "__ZTVN6OpenSP10CmdLineAppE"                                          ; magicseg='DATA32' len=26
  "__ZTIN6OpenSP10MessageArgE"                                          ; magicseg='DATA32' len=26
  "__ZTIN6OpenSP8ResourceE"                                             ; magicseg='DATA32' len=23
  "__ZTIN6OpenSP13EntityCatalog6SyntaxE"                                ; magicseg='DATA32' len=36
  "__ZTIN6OpenSP6EntityE"                                               ; magicseg='DATA32' len=21
  "__ZTIN6OpenSP9ParserAppE"                                            ; magicseg='DATA32' len=24
  "__ZTIN14OpenJade_DSSSL12GroveManagerE"                               ; magicseg='DATA32' len=37
  "__ZTIN6OpenSP9MessengerE"                                            ; magicseg='DATA32' len=24
  "__ZTIN6OpenSP10EntityDeclE"                                          ; magicseg='DATA32' len=26
  "__ZTIN6OpenSP9EntityAppE"                                            ; magicseg='DATA32' len=24
  "__ZTIN6OpenSP10CmdLineAppE"                                          ; magicseg='DATA32' len=26
  "__ZTVN6OpenSP5NamedE"                                                ; magicseg='DATA32' len=20
  "__ZTVN6OpenSP6VectorIPKcEE"                                          ; magicseg='DATA32' len=26
  "__ZTVN6OpenSP6VectorINS_10LongOptionIcEEEE"                          ; magicseg='DATA32' len=42
  "__ZTVN6OpenSP6VectorINS_12MessageType1EEE"                           ; magicseg='DATA32' len=41
  "__ZTVN6OpenSP6VectorINS_15MessageFragmentEEE"                        ; magicseg='DATA32' len=44
  "__ZTIN6OpenSP15MessageReporterE"                                     ; magicseg='DATA32' len=31
  "__ZTIN6OpenSP13NamedResourceE"                                       ; magicseg='DATA32' len=29
  "__ZTIN6OpenSP5NamedE"                                                ; magicseg='DATA32' len=20
  "__ZTIN6OpenSP6VectorIPKcEE"                                          ; magicseg='DATA32' len=26
  "__ZTIN6OpenSP6VectorINS_15MessageFragmentEEE"                        ; magicseg='DATA32' len=44
  "__ZTIN6OpenSP6VectorINS_12MessageType1EEE"                           ; magicseg='DATA32' len=41
  "__ZTIN6OpenSP6VectorINS_10LongOptionIcEEEE"                          ; magicseg='DATA32' len=42
  "__ZTIN6OpenSP16MessageFormatterE"                                    ; magicseg='DATA32' len=32
  "__ZTVN14OpenJade_DSSSL21DssslSpecEventHandlerE"                      ; magicseg='DATA32' len=46
  "__ZTVN6OpenSP22ErrorCountEventHandlerE"                              ; magicseg='DATA32' len=38
  "__ZTVN14OpenJade_DSSSL21TextInputSourceOriginE"                      ; magicseg='DATA32' len=46
  "__ZTVN6OpenSP17InputSourceOriginE"                                   ; magicseg='DATA32' len=33
  "__ZTVN14OpenJade_DSSSL21DssslSpecEventHandler3DocE"                  ; magicseg='DATA32' len=50
  "__ZTVN14OpenJade_DSSSL21DssslSpecEventHandler11BodyElementE"         ; magicseg='DATA32' len=59
  "__ZTVN14OpenJade_DSSSL21DssslSpecEventHandler20ImmediateBodyElementE"                    ; magicseg='DATA32' len=68
  "__ZTVN14OpenJade_DSSSL21DssslSpecEventHandler18DeclarationElementE"                      ; magicseg='DATA32' len=66
  "__ZTVN14OpenJade_DSSSL21DssslSpecEventHandler17EntityBodyElementE"                       ; magicseg='DATA32' len=65
  "__ZTVN14OpenJade_DSSSL21DssslSpecEventHandler10PartHeaderE"          ; magicseg='DATA32' len=58
  "__ZTVN6OpenSP5OwnerIN14OpenJade_DSSSL21DssslSpecEventHandler8SpecPartEEE"                ; magicseg='DATA32' len=72
  "__ZTVN14OpenJade_DSSSL21DssslSpecEventHandler8SpecPartE"             ; magicseg='DATA32' len=55
  "__ZTVN14OpenJade_DSSSL21DssslSpecEventHandler12ExternalPartE"        ; magicseg='DATA32' len=60
  "__ZTVN14OpenJade_DSSSL21DssslSpecEventHandler17ExternalFirstPartE"                       ; magicseg='DATA32' len=65
  "__ZTVN14OpenJade_DSSSL21DssslSpecEventHandler4PartE"                 ; magicseg='DATA32' len=51
  "__ZTVN6OpenSP6VectorIPN14OpenJade_DSSSL21DssslSpecEventHandler10PartHeaderEEE"           ; magicseg='DATA32' len=77
  "__ZTIN14OpenJade_DSSSL21TextInputSourceOriginE"                      ; magicseg='DATA32' len=46
  "__ZTIN14OpenJade_DSSSL21DssslSpecEventHandlerE"                      ; magicseg='DATA32' len=46
  "__ZTIN14OpenJade_DSSSL21DssslSpecEventHandler3DocE"                  ; magicseg='DATA32' len=50
  "__ZTIN14OpenJade_DSSSL21DssslSpecEventHandler4PartE"                 ; magicseg='DATA32' len=51
  "__ZTIN6OpenSP6VectorIPN14OpenJade_DSSSL21DssslSpecEventHandler10PartHeaderEEE"           ; magicseg='DATA32' len=77
  "__ZTIN14OpenJade_DSSSL21DssslSpecEventHandler17ExternalFirstPartE"                       ; magicseg='DATA32' len=65
  "__ZTIN14OpenJade_DSSSL21DssslSpecEventHandler12ExternalPartE"        ; magicseg='DATA32' len=60
  "__ZTIN14OpenJade_DSSSL21DssslSpecEventHandler8SpecPartE"             ; magicseg='DATA32' len=55
  "__ZTIN14OpenJade_DSSSL21DssslSpecEventHandler10PartHeaderE"          ; magicseg='DATA32' len=58
  "__ZTIN6OpenSP5OwnerIN14OpenJade_DSSSL21DssslSpecEventHandler8SpecPartEEE"                ; magicseg='DATA32' len=72
  "__ZTIN14OpenJade_DSSSL21DssslSpecEventHandler18DeclarationElementE"                      ; magicseg='DATA32' len=66
  "__ZTIN14OpenJade_DSSSL21DssslSpecEventHandler17EntityBodyElementE"                       ; magicseg='DATA32' len=65
  "__ZTIN14OpenJade_DSSSL21DssslSpecEventHandler20ImmediateBodyElementE"                    ; magicseg='DATA32' len=68
  "__ZTIN14OpenJade_DSSSL21DssslSpecEventHandler11BodyElementE"         ; magicseg='DATA32' len=59
  "__ZTIN6OpenSP22ErrorCountEventHandlerE"                              ; magicseg='DATA32' len=38
  "__ZTIN6OpenSP17InputSourceOriginE"                                   ; magicseg='DATA32' len=33
  "__ZTIN6OpenSP6OriginE"                                               ; magicseg='DATA32' len=21
  "__ZTIN6OpenSP12EventHandlerE"                                        ; magicseg='DATA32' len=28
  "__ZTIN6OpenSP4LinkE"                                                 ; magicseg='DATA32' len=19
  "__ZTVN6OpenSP6VectorINS_8TextItemEEE"                                ; magicseg='DATA32' len=36
  "__ZTIN6OpenSP6VectorINS_8TextItemEEE"                                ; magicseg='DATA32' len=36
  "__ZTVN14OpenJade_DSSSL5ELObjE"                                       ; magicseg='DATA32' len=29
  "__ZTVN14OpenJade_DSSSL8ErrorObjE"                                    ; magicseg='DATA32' len=32
  "__ZTVN14OpenJade_DSSSL14UnspecifiedObjE"                             ; magicseg='DATA32' len=39
  "__ZTVN14OpenJade_DSSSL6NilObjE"                                      ; magicseg='DATA32' len=30
  "__ZTVN14OpenJade_DSSSL7TrueObjE"                                     ; magicseg='DATA32' len=31
  "__ZTVN14OpenJade_DSSSL8FalseObjE"                                    ; magicseg='DATA32' len=32
  "__ZTVN14OpenJade_DSSSL9SymbolObjE"                                   ; magicseg='DATA32' len=33
  "__ZTVN14OpenJade_DSSSL10KeywordObjE"                                 ; magicseg='DATA32' len=35
  "__ZTVN14OpenJade_DSSSL7PairObjE"                                     ; magicseg='DATA32' len=31
  "__ZTVN14OpenJade_DSSSL9VectorObjE"                                   ; magicseg='DATA32' len=33
  "__ZTVN14OpenJade_DSSSL7CharObjE"                                     ; magicseg='DATA32' len=31
  "__ZTVN14OpenJade_DSSSL9StringObjE"                                   ; magicseg='DATA32' len=33
  "__ZTVN14OpenJade_DSSSL10IntegerObjE"                                 ; magicseg='DATA32' len=35
  "__ZTVN14OpenJade_DSSSL7RealObjE"                                     ; magicseg='DATA32' len=31
  "__ZTVN14OpenJade_DSSSL9LengthObjE"                                   ; magicseg='DATA32' len=33
  "__ZTVN14OpenJade_DSSSL11QuantityObjE"                                ; magicseg='DATA32' len=36
  "__ZTVN14OpenJade_DSSSL13LengthSpecObjE"                              ; magicseg='DATA32' len=38
  "__ZTVN6OpenSP5OwnerIN14OpenJade_DSSSL10LengthSpecEEE"                ; magicseg='DATA32' len=52
  "__ZTVN14OpenJade_DSSSL15DisplaySpaceObjE"                            ; magicseg='DATA32' len=40
  "__ZTVN6OpenSP5OwnerIN14OpenJade_DSSSL10FOTBuilder12DisplaySpaceEEE"                      ; magicseg='DATA32' len=66
  "__ZTVN14OpenJade_DSSSL14InlineSpaceObjE"                             ; magicseg='DATA32' len=39
  "__ZTVN6OpenSP5OwnerIN14OpenJade_DSSSL10FOTBuilder11InlineSpaceEEE"                       ; magicseg='DATA32' len=65
  "__ZTVN14OpenJade_DSSSL19UnresolvedLengthObjE"                        ; magicseg='DATA32' len=44
  "__ZTVN14OpenJade_DSSSL21UnresolvedQuantityObjE"                      ; magicseg='DATA32' len=46
  "__ZTVN14OpenJade_DSSSL10GlyphIdObjE"                                 ; magicseg='DATA32' len=35
  "__ZTVN14OpenJade_DSSSL18GlyphSubstTableObjE"                         ; magicseg='DATA32' len=43
  "__ZTVN14OpenJade_DSSSL10AddressObjE"                                 ; magicseg='DATA32' len=35
  "__ZTVN6OpenSP5OwnerIN14OpenJade_DSSSL10FOTBuilder7AddressEEE"        ; magicseg='DATA32' len=60
  "__ZTVN14OpenJade_DSSSL16ELObjDynamicRootE"                           ; magicseg='DATA32' len=41
  "__ZTVN14OpenJade_DSSSL18NodePtrNodeListObjE"                         ; magicseg='DATA32' len=43
  "__ZTVN14OpenJade_DSSSL22NodeListPtrNodeListObjE"                     ; magicseg='DATA32' len=47
  "__ZTVN14OpenJade_DSSSL27NamedNodeListPtrNodeListObjE"                ; magicseg='DATA32' len=52
  "__ZTVN14OpenJade_DSSSL15PairNodeListObjE"                            ; magicseg='DATA32' len=40
  "__ZTVN14OpenJade_DSSSL18ReverseNodeListObjE"                         ; magicseg='DATA32' len=43
  "__ZTVN6OpenSP6VectorIPN14OpenJade_DSSSL5ELObjEEE"                    ; magicseg='DATA32' len=48
  "__ZTIN14OpenJade_DSSSL18ReverseNodeListObjE"                         ; magicseg='DATA32' len=43
  "__ZTIN14OpenJade_DSSSL16ELObjDynamicRootE"                           ; magicseg='DATA32' len=41
  "__ZTIN14OpenJade_DSSSL15PairNodeListObjE"                            ; magicseg='DATA32' len=40
  "__ZTIN14OpenJade_DSSSL27NamedNodeListPtrNodeListObjE"                ; magicseg='DATA32' len=52
  "__ZTIN14OpenJade_DSSSL22NodeListPtrNodeListObjE"                     ; magicseg='DATA32' len=47
  "__ZTIN14OpenJade_DSSSL18NodePtrNodeListObjE"                         ; magicseg='DATA32' len=43
  "__ZTVN14OpenJade_DSSSL16NamedNodeListObjE"                           ; magicseg='DATA32' len=41
  "__ZTIN14OpenJade_DSSSL16NamedNodeListObjE"                           ; magicseg='DATA32' len=41
  "__ZTVN14OpenJade_DSSSL11NodeListObjE"                                ; magicseg='DATA32' len=36
  "__ZTIN14OpenJade_DSSSL11NodeListObjE"                                ; magicseg='DATA32' len=36
  "__ZTIN14OpenJade_DSSSL10AddressObjE"                                 ; magicseg='DATA32' len=35
  "__ZTIN6OpenSP5OwnerIN14OpenJade_DSSSL10FOTBuilder7AddressEEE"        ; magicseg='DATA32' len=60
  "__ZTIN14OpenJade_DSSSL18GlyphSubstTableObjE"                         ; magicseg='DATA32' len=43
  "__ZTIN14OpenJade_DSSSL10GlyphIdObjE"                                 ; magicseg='DATA32' len=35
  "__ZTIN14OpenJade_DSSSL19UnresolvedLengthObjE"                        ; magicseg='DATA32' len=44
  "__ZTIN14OpenJade_DSSSL21UnresolvedQuantityObjE"                      ; magicseg='DATA32' len=46
  "__ZTIN14OpenJade_DSSSL14InlineSpaceObjE"                             ; magicseg='DATA32' len=39
  "__ZTIN6OpenSP5OwnerIN14OpenJade_DSSSL10FOTBuilder11InlineSpaceEEE"                       ; magicseg='DATA32' len=65
  "__ZTIN14OpenJade_DSSSL15DisplaySpaceObjE"                            ; magicseg='DATA32' len=40
  "__ZTIN6OpenSP5OwnerIN14OpenJade_DSSSL10FOTBuilder12DisplaySpaceEEE"                      ; magicseg='DATA32' len=66
  "__ZTIN14OpenJade_DSSSL13LengthSpecObjE"                              ; magicseg='DATA32' len=38
  "__ZTIN6OpenSP5OwnerIN14OpenJade_DSSSL10LengthSpecEEE"                ; magicseg='DATA32' len=52
  "__ZTIN14OpenJade_DSSSL11QuantityObjE"                                ; magicseg='DATA32' len=36
  "__ZTIN14OpenJade_DSSSL9LengthObjE"                                   ; magicseg='DATA32' len=33
  "__ZTIN14OpenJade_DSSSL7RealObjE"                                     ; magicseg='DATA32' len=31
  "__ZTIN14OpenJade_DSSSL10IntegerObjE"                                 ; magicseg='DATA32' len=35
  "__ZTIN14OpenJade_DSSSL9StringObjE"                                   ; magicseg='DATA32' len=33
  "__ZTIN14OpenJade_DSSSL7CharObjE"                                     ; magicseg='DATA32' len=31
  "__ZTIN14OpenJade_DSSSL9VectorObjE"                                   ; magicseg='DATA32' len=33
  "__ZTIN6OpenSP6VectorIPN14OpenJade_DSSSL5ELObjEEE"                    ; magicseg='DATA32' len=48
  "__ZTIN14OpenJade_DSSSL7PairObjE"                                     ; magicseg='DATA32' len=31
  "__ZTIN14OpenJade_DSSSL10KeywordObjE"                                 ; magicseg='DATA32' len=35
  "__ZTIN14OpenJade_DSSSL9SymbolObjE"                                   ; magicseg='DATA32' len=33
  "__ZTIN14OpenJade_DSSSL8FalseObjE"                                    ; magicseg='DATA32' len=32
  "__ZTIN14OpenJade_DSSSL7TrueObjE"                                     ; magicseg='DATA32' len=31
  "__ZTIN14OpenJade_DSSSL6NilObjE"                                      ; magicseg='DATA32' len=30
  "__ZTIN14OpenJade_DSSSL14UnspecifiedObjE"                             ; magicseg='DATA32' len=39
  "__ZTIN14OpenJade_DSSSL8ErrorObjE"                                    ; magicseg='DATA32' len=32
  "__ZTIN6OpenSP6StringIjEE"                                            ; magicseg='DATA32' len=24
  "__ZTVN6OpenSP6VectorIN14OpenJade_DSSSL10FOTBuilder7GlyphIdEEE"       ; magicseg='DATA32' len=61
  "__ZTIN6OpenSP6VectorIN14OpenJade_DSSSL10FOTBuilder7GlyphIdEEE"       ; magicseg='DATA32' len=61
  "__ZTVN14OpenJade_DSSSL15ELObjMessageArgE"                            ; magicseg='DATA32' len=40
  "__ZTIN14OpenJade_DSSSL15ELObjMessageArgE"                            ; magicseg='DATA32' len=40
  "__ZTVN14OpenJade_DSSSL10ExpressionE"                                 ; magicseg='DATA32' len=35
  "__ZTVN14OpenJade_DSSSL18ConstantExpressionE"                         ; magicseg='DATA32' len=43
  "__ZTVN14OpenJade_DSSSL26ResolvedConstantExpressionE"                 ; magicseg='DATA32' len=51
  "__ZTVN14OpenJade_DSSSL14CallExpressionE"                             ; magicseg='DATA32' len=39
  "__ZTVN6OpenSP5OwnerIN14OpenJade_DSSSL10ExpressionEEE"                ; magicseg='DATA32' len=52
  "__ZTVN6OpenSP8NCVectorINS_5OwnerIN14OpenJade_DSSSL10ExpressionEEEEE"                     ; magicseg='DATA32' len=67
  "__ZTVN14OpenJade_DSSSL9ErrorInsnE"                                   ; magicseg='DATA32' len=33
  "__ZTVN14OpenJade_DSSSL18VariableExpressionE"                         ; magicseg='DATA32' len=43
  "__ZTVN14OpenJade_DSSSL12IfExpressionE"                               ; magicseg='DATA32' len=37
  "__ZTVN14OpenJade_DSSSL12OrExpressionE"                               ; magicseg='DATA32' len=37
  "__ZTVN14OpenJade_DSSSL18CondFailExpressionE"                         ; magicseg='DATA32' len=43
  "__ZTVN14OpenJade_DSSSL14CaseExpressionE"                             ; magicseg='DATA32' len=39
  "__ZTVN6OpenSP8NCVectorIN14OpenJade_DSSSL14CaseExpression4CaseEEE"    ; magicseg='DATA32' len=64
  "__ZTVN6OpenSP6VectorIjEE"                                            ; magicseg='DATA32' len=24
  "__ZTVN14OpenJade_DSSSL16LambdaExpressionE"                           ; magicseg='DATA32' len=41
  "__ZTVN6OpenSP6VectorIPKN14OpenJade_DSSSL10IdentifierEEE"             ; magicseg='DATA32' len=55
  "__ZTVN14OpenJade_DSSSL12BoundVarListE"                               ; magicseg='DATA32' len=37
  "__ZTVN6OpenSP6VectorINS_8ConstPtrIN14OpenJade_DSSSL4InsnEEEEE"       ; magicseg='DATA32' len=61
  "__ZTVN14OpenJade_DSSSL13LetExpressionE"                              ; magicseg='DATA32' len=38
  "__ZTVN14OpenJade_DSSSL17LetStarExpressionE"                          ; magicseg='DATA32' len=42
  "__ZTVN14OpenJade_DSSSL16LetrecExpressionE"                           ; magicseg='DATA32' len=41
  "__ZTVN14OpenJade_DSSSL20QuasiquoteExpressionE"                       ; magicseg='DATA32' len=45
  "__ZTVN14OpenJade_DSSSL18SequenceExpressionE"                         ; magicseg='DATA32' len=43
  "__ZTVN14OpenJade_DSSSL20AssignmentExpressionE"                       ; magicseg='DATA32' len=45
  "__ZTVN14OpenJade_DSSSL18WithModeExpressionE"                         ; magicseg='DATA32' len=43
  "__ZTVN14OpenJade_DSSSL11PopModeInsnE"                                ; magicseg='DATA32' len=36
  "__ZTVN14OpenJade_DSSSL12PushModeInsnE"                               ; magicseg='DATA32' len=37
  "__ZTVN14OpenJade_DSSSL15StyleExpressionE"                            ; magicseg='DATA32' len=40
  "__ZTVN6OpenSP6VectorINS_8ConstPtrIN14OpenJade_DSSSL10InheritedCEEEEE"                    ; magicseg='DATA32' len=68
  "__ZTVN14OpenJade_DSSSL14CheckStyleInsnE"                             ; magicseg='DATA32' len=39
  "__ZTVN14OpenJade_DSSSL14MakeExpressionE"                             ; magicseg='DATA32' len=39
  "__ZTVN14OpenJade_DSSSL15CheckSosofoInsnE"                            ; magicseg='DATA32' len=40
  "__ZTVN14OpenJade_DSSSL15SequenceFlowObjE"                            ; magicseg='DATA32' len=40
  "__ZTVN6OpenSP6VectorIN14OpenJade_DSSSL8BoundVarEEE"                  ; magicseg='DATA32' len=50
  "__ZTVN6OpenSP6VectorIbEE"                                            ; magicseg='DATA32' len=24
  "__ZTIN14OpenJade_DSSSL11PopModeInsnE"                                ; magicseg='DATA32' len=36
  "__ZTIN14OpenJade_DSSSL12PushModeInsnE"                               ; magicseg='DATA32' len=37
  "__ZTIN14OpenJade_DSSSL14CheckStyleInsnE"                             ; magicseg='DATA32' len=39
  "__ZTIN14OpenJade_DSSSL15CheckSosofoInsnE"                            ; magicseg='DATA32' len=40
  "__ZTIN6OpenSP6VectorINS_8ConstPtrIN14OpenJade_DSSSL10InheritedCEEEEE"                    ; magicseg='DATA32' len=68
  "__ZTIN14OpenJade_DSSSL14MakeExpressionE"                             ; magicseg='DATA32' len=39
  "__ZTIN14OpenJade_DSSSL15StyleExpressionE"                            ; magicseg='DATA32' len=40
  "__ZTIN14OpenJade_DSSSL18WithModeExpressionE"                         ; magicseg='DATA32' len=43
  "__ZTIN14OpenJade_DSSSL20AssignmentExpressionE"                       ; magicseg='DATA32' len=45
  "__ZTIN14OpenJade_DSSSL18SequenceExpressionE"                         ; magicseg='DATA32' len=43
  "__ZTIN14OpenJade_DSSSL20QuasiquoteExpressionE"                       ; magicseg='DATA32' len=45
  "__ZTIN6OpenSP6VectorIbEE"                                            ; magicseg='DATA32' len=24
  "__ZTIN14OpenJade_DSSSL16LetrecExpressionE"                           ; magicseg='DATA32' len=41
  "__ZTIN14OpenJade_DSSSL17LetStarExpressionE"                          ; magicseg='DATA32' len=42
  "__ZTIN14OpenJade_DSSSL13LetExpressionE"                              ; magicseg='DATA32' len=38
  "__ZTIN14OpenJade_DSSSL16LambdaExpressionE"                           ; magicseg='DATA32' len=41
  "__ZTIN6OpenSP6VectorIPKN14OpenJade_DSSSL10IdentifierEEE"             ; magicseg='DATA32' len=55
  "__ZTIN14OpenJade_DSSSL14CaseExpressionE"                             ; magicseg='DATA32' len=39
  "__ZTIN6OpenSP6VectorIjEE"                                            ; magicseg='DATA32' len=24
  "__ZTIN6OpenSP8NCVectorIN14OpenJade_DSSSL14CaseExpression4CaseEEE"    ; magicseg='DATA32' len=64
  "__ZTIN14OpenJade_DSSSL18CondFailExpressionE"                         ; magicseg='DATA32' len=43
  "__ZTIN14OpenJade_DSSSL12OrExpressionE"                               ; magicseg='DATA32' len=37
  "__ZTIN14OpenJade_DSSSL12IfExpressionE"                               ; magicseg='DATA32' len=37
  "__ZTIN14OpenJade_DSSSL18VariableExpressionE"                         ; magicseg='DATA32' len=43
  "__ZTIN14OpenJade_DSSSL14CallExpressionE"                             ; magicseg='DATA32' len=39
  "__ZTIN6OpenSP8NCVectorINS_5OwnerIN14OpenJade_DSSSL10ExpressionEEEEE"                     ; magicseg='DATA32' len=67
  "__ZTIN6OpenSP5OwnerIN14OpenJade_DSSSL10ExpressionEEE"                ; magicseg='DATA32' len=52
  "__ZTIN14OpenJade_DSSSL26ResolvedConstantExpressionE"                 ; magicseg='DATA32' len=51
  "__ZTIN14OpenJade_DSSSL18ConstantExpressionE"                         ; magicseg='DATA32' len=43
  "__ZTIN14OpenJade_DSSSL10ExpressionE"                                 ; magicseg='DATA32' len=35
  "__ZTIN14OpenJade_DSSSL12BoundVarListE"                               ; magicseg='DATA32' len=37
  "__ZTIN6OpenSP6VectorIN14OpenJade_DSSSL8BoundVarEEE"                  ; magicseg='DATA32' len=50
  "__ZTIN14OpenJade_DSSSL15SequenceFlowObjE"                            ; magicseg='DATA32' len=40
  "__ZTIN6OpenSP6VectorINS_8ConstPtrIN14OpenJade_DSSSL4InsnEEEEE"       ; magicseg='DATA32' len=61
  "__ZTIN14OpenJade_DSSSL9ErrorInsnE"                                   ; magicseg='DATA32' len=33
  "__ZTVN14OpenJade_DSSSL9SosofoObjE"                                   ; magicseg='DATA32' len=33
  "__ZTIN14OpenJade_DSSSL4InsnE"                                        ; magicseg='DATA32' len=28
  "__ZTIN14OpenJade_DSSSL15CompoundFlowObjE"                            ; magicseg='DATA32' len=40
  "__ZTIN14OpenJade_DSSSL9SosofoObjE"                                   ; magicseg='DATA32' len=33
  "__ZTIN14OpenJade_DSSSL7FlowObjE"                                     ; magicseg='DATA32' len=31
  "__ZTVN14OpenJade_DSSSL10FOTBuilderE"                                 ; magicseg='DATA32' len=35
  "__ZTVN14OpenJade_DSSSL14SaveFOTBuilderE"                             ; magicseg='DATA32' len=39
  "__ZTVN14OpenJade_DSSSL14SaveFOTBuilder9NoArgCallE"                   ; magicseg='DATA32' len=49
  "__ZTVN14OpenJade_DSSSL14SaveFOTBuilder17LengthSpecArgCallE"          ; magicseg='DATA32' len=58
  "__ZTVN14OpenJade_DSSSL14SaveFOTBuilder20OptLengthSpecArgCallE"       ; magicseg='DATA32' len=61
  "__ZTVN14OpenJade_DSSSL14SaveFOTBuilder11LongArgCallE"                ; magicseg='DATA32' len=52
  "__ZTVN14OpenJade_DSSSL14SaveFOTBuilder11BoolArgCallE"                ; magicseg='DATA32' len=52
  "__ZTVN14OpenJade_DSSSL14SaveFOTBuilder13SymbolArgCallE"              ; magicseg='DATA32' len=54
  "__ZTVN14OpenJade_DSSSL14SaveFOTBuilder15PublicIdArgCallE"            ; magicseg='DATA32' len=56
  "__ZTVN14OpenJade_DSSSL14SaveFOTBuilder15UnsignedArgCallE"            ; magicseg='DATA32' len=56
  "__ZTVN14OpenJade_DSSSL14SaveFOTBuilder13StringArgCallE"              ; magicseg='DATA32' len=54
  "__ZTVN14OpenJade_DSSSL14SaveFOTBuilder18InlineSpaceArgCallE"         ; magicseg='DATA32' len=59
  "__ZTVN14OpenJade_DSSSL14SaveFOTBuilder4CallE"                        ; magicseg='DATA32' len=44
  "__ZTVN14OpenJade_DSSSL14SaveFOTBuilder22CharactersFromNodeCallE"     ; magicseg='DATA32' len=63
  "__ZTVN14OpenJade_DSSSL14SaveFOTBuilder13CharacterCallE"              ; magicseg='DATA32' len=54
  "__ZTVN14OpenJade_DSSSL14SaveFOTBuilder13StartNodeCallE"              ; magicseg='DATA32' len=54
  "__ZTVN14OpenJade_DSSSL14SaveFOTBuilder14NodePtrArgCallE"             ; magicseg='DATA32' len=55
  "__ZTVN14OpenJade_DSSSL14SaveFOTBuilder21DeviceRGBColorArgCallE"      ; magicseg='DATA32' len=62
  "__ZTVN14OpenJade_DSSSL14SaveFOTBuilder19ExternalGraphicCallE"        ; magicseg='DATA32' len=60
  "__ZTVN14OpenJade_DSSSL14SaveFOTBuilder8RuleCallE"                    ; magicseg='DATA32' len=48
  "__ZTVN14OpenJade_DSSSL14SaveFOTBuilder15StartLeaderCallE"            ; magicseg='DATA32' len=56
  "__ZTVN14OpenJade_DSSSL14SaveFOTBuilder13StartLinkCallE"              ; magicseg='DATA32' len=54
  "__ZTVN14OpenJade_DSSSL14SaveFOTBuilder11CharArgCallE"                ; magicseg='DATA32' len=52
  "__ZTVN14OpenJade_DSSSL14SaveFOTBuilder18StartLineFieldCallE"         ; magicseg='DATA32' len=59
  "__ZTVN14OpenJade_DSSSL14SaveFOTBuilder12StartBoxCallE"               ; magicseg='DATA32' len=53
  "__ZTVN14OpenJade_DSSSL14SaveFOTBuilder10AnchorCallE"                 ; magicseg='DATA32' len=51
  "__ZTVN14OpenJade_DSSSL14SaveFOTBuilder14StartTableCallE"             ; magicseg='DATA32' len=55
  "__ZTVN14OpenJade_DSSSL14SaveFOTBuilder15TableColumnCallE"            ; magicseg='DATA32' len=56
  "__ZTVN14OpenJade_DSSSL14SaveFOTBuilder18StartTableCellCallE"         ; magicseg='DATA32' len=59
  "__ZTVN14OpenJade_DSSSL14SaveFOTBuilder18RadicalRadicalCallE"         ; magicseg='DATA32' len=59
  "__ZTVN14OpenJade_DSSSL14SaveFOTBuilder13StartGridCallE"              ; magicseg='DATA32' len=54
  "__ZTVN14OpenJade_DSSSL14SaveFOTBuilder17StartGridCellCallE"          ; magicseg='DATA32' len=58
  "__ZTVN14OpenJade_DSSSL14SaveFOTBuilder22SetGlyphSubstTableCallE"     ; magicseg='DATA32' len=63
  "__ZTVN14OpenJade_DSSSL14SaveFOTBuilder20ExtensionBoolArgCallE"       ; magicseg='DATA32' len=61
  "__ZTVN14OpenJade_DSSSL14SaveFOTBuilder22ExtensionStringArgCallE"     ; magicseg='DATA32' len=63
  "__ZTVN14OpenJade_DSSSL14SaveFOTBuilder20ExtensionLongArgCallE"       ; magicseg='DATA32' len=61
  "__ZTVN14OpenJade_DSSSL14SaveFOTBuilder16EndExtensionCallE"           ; magicseg='DATA32' len=57
  "__ZTVN6OpenSP5OwnerIN14OpenJade_DSSSL10FOTBuilder24CompoundExtensionFlowObjEEE"          ; magicseg='DATA32' len=78
  "__ZTVN14OpenJade_DSSSL14SaveFOTBuilder13ExtensionCallE"              ; magicseg='DATA32' len=54
  "__ZTVN6OpenSP5OwnerIN14OpenJade_DSSSL10FOTBuilder16ExtensionFlowObjEEE"                  ; magicseg='DATA32' len=70
  "__ZTVN14OpenJade_DSSSL14SaveFOTBuilder14CharactersCallE"             ; magicseg='DATA32' len=55
  "__ZTVN14OpenJade_DSSSL27StartSimplePageSequenceCallE"                ; magicseg='DATA32' len=52
  "__ZTVN14OpenJade_DSSSL26StartColumnSetSequenceCallE"                 ; magicseg='DATA32' len=51
  "__ZTVN14OpenJade_DSSSL21StartEmbeddedTextCallE"                      ; magicseg='DATA32' len=46
  "__ZTVN14OpenJade_DSSSL30StartIncludedContainerAreaCallE"             ; magicseg='DATA32' len=55
  "__ZTVN14OpenJade_DSSSL22StartAlignedColumnCallE"                     ; magicseg='DATA32' len=47
  "__ZTVN14OpenJade_DSSSL28StartMultiLineInlineNoteCallE"               ; magicseg='DATA32' len=53
  "__ZTVN14OpenJade_DSSSL24StartEmphasizingMarkCallE"                   ; magicseg='DATA32' len=49
  "__ZTVN14OpenJade_DSSSL24StartGlyphAnnotationCallE"                   ; magicseg='DATA32' len=49
  "__ZTVN14OpenJade_DSSSL19StartSideBySideCallE"                        ; magicseg='DATA32' len=44
  "__ZTVN14OpenJade_DSSSL17StartFractionCallE"                          ; magicseg='DATA32' len=42
  "__ZTVN14OpenJade_DSSSL15StartScriptCallE"                            ; magicseg='DATA32' len=40
  "__ZTVN14OpenJade_DSSSL13StartMarkCallE"                              ; magicseg='DATA32' len=38
  "__ZTVN14OpenJade_DSSSL14StartFenceCallE"                             ; magicseg='DATA32' len=39
  "__ZTVN14OpenJade_DSSSL16StartRadicalCallE"                           ; magicseg='DATA32' len=41
  "__ZTVN14OpenJade_DSSSL21StartMathOperatorCallE"                      ; magicseg='DATA32' len=46
  "__ZTVN14OpenJade_DSSSL18StartMultiModeCallE"                         ; magicseg='DATA32' len=43
  "__ZTVN6OpenSP6VectorIPN14OpenJade_DSSSL10FOTBuilderEEE"              ; magicseg='DATA32' len=54
  "__ZTVN6OpenSP5OwnerIN14OpenJade_DSSSL14SaveFOTBuilderEEE"            ; magicseg='DATA32' len=56
  "__ZTVN14OpenJade_DSSSL18StartTablePartCallE"                         ; magicseg='DATA32' len=43
  "__ZTVN14OpenJade_DSSSL14SaveFOTBuilder18StartParagraphCallE"         ; magicseg='DATA32' len=59
  "__ZTVN14OpenJade_DSSSL14SaveFOTBuilder18ParagraphBreakCallE"         ; magicseg='DATA32' len=59
  "__ZTVN14OpenJade_DSSSL14SaveFOTBuilder21StartDisplayGroupCallE"      ; magicseg='DATA32' len=62
  "__ZTVN14OpenJade_DSSSL18StartExtensionCallE"                         ; magicseg='DATA32' len=43
  "__ZTVN14OpenJade_DSSSL16SerialFOTBuilderE"                           ; magicseg='DATA32' len=41
  "__ZTVN6OpenSP6VectorINS0_IN14OpenJade_DSSSL10FOTBuilder9MultiModeEEEEE"                  ; magicseg='DATA32' len=70
  "__ZTVN14OpenJade_DSSSL10FOTBuilder16ExtensionFlowObjE"               ; magicseg='DATA32' len=53
  "__ZTVN6OpenSP6VectorINS_8ConstPtrIN14OpenJade_DSSSL10FOTBuilder15GlyphSubstTableEEEEE"                                 ; magicseg='DATA32' len=85
  "__ZTVN6OpenSP6VectorIN14OpenJade_DSSSL10FOTBuilder9MultiModeEEE"     ; magicseg='DATA32' len=63
  "__ZTIN6OpenSP5OwnerIN14OpenJade_DSSSL14SaveFOTBuilderEEE"            ; magicseg='DATA32' len=56
  "__ZTIN6OpenSP6VectorIPN14OpenJade_DSSSL10FOTBuilderEEE"              ; magicseg='DATA32' len=54
  "__ZTIN14OpenJade_DSSSL16SerialFOTBuilderE"                           ; magicseg='DATA32' len=41
  "__ZTIN6OpenSP6VectorINS0_IN14OpenJade_DSSSL10FOTBuilder9MultiModeEEEEE"                  ; magicseg='DATA32' len=70
  "__ZTIN14OpenJade_DSSSL18StartExtensionCallE"                         ; magicseg='DATA32' len=43
  "__ZTIN14OpenJade_DSSSL18StartMultiModeCallE"                         ; magicseg='DATA32' len=43
  "__ZTIN6OpenSP6VectorIN14OpenJade_DSSSL10FOTBuilder9MultiModeEEE"     ; magicseg='DATA32' len=63
  "__ZTIN14OpenJade_DSSSL18StartTablePartCallE"                         ; magicseg='DATA32' len=43
  "__ZTIN14OpenJade_DSSSL21StartMathOperatorCallE"                      ; magicseg='DATA32' len=46
  "__ZTIN14OpenJade_DSSSL16StartRadicalCallE"                           ; magicseg='DATA32' len=41
  "__ZTIN14OpenJade_DSSSL14StartFenceCallE"                             ; magicseg='DATA32' len=39
  "__ZTIN14OpenJade_DSSSL13StartMarkCallE"                              ; magicseg='DATA32' len=38
  "__ZTIN14OpenJade_DSSSL15StartScriptCallE"                            ; magicseg='DATA32' len=40
  "__ZTIN14OpenJade_DSSSL17StartFractionCallE"                          ; magicseg='DATA32' len=42
  "__ZTIN14OpenJade_DSSSL19StartSideBySideCallE"                        ; magicseg='DATA32' len=44
  "__ZTIN14OpenJade_DSSSL24StartGlyphAnnotationCallE"                   ; magicseg='DATA32' len=49
  "__ZTIN14OpenJade_DSSSL24StartEmphasizingMarkCallE"                   ; magicseg='DATA32' len=49
  "__ZTIN14OpenJade_DSSSL28StartMultiLineInlineNoteCallE"               ; magicseg='DATA32' len=53
  "__ZTIN14OpenJade_DSSSL22StartAlignedColumnCallE"                     ; magicseg='DATA32' len=47
  "__ZTIN14OpenJade_DSSSL30StartIncludedContainerAreaCallE"             ; magicseg='DATA32' len=55
  "__ZTIN14OpenJade_DSSSL21StartEmbeddedTextCallE"                      ; magicseg='DATA32' len=46
  "__ZTIN14OpenJade_DSSSL26StartColumnSetSequenceCallE"                 ; magicseg='DATA32' len=51
  "__ZTIN14OpenJade_DSSSL27StartSimplePageSequenceCallE"                ; magicseg='DATA32' len=52
  "__ZTIN14OpenJade_DSSSL14SaveFOTBuilderE"                             ; magicseg='DATA32' len=39
  "__ZTIN14OpenJade_DSSSL14SaveFOTBuilder10AnchorCallE"                 ; magicseg='DATA32' len=51
  "__ZTIN14OpenJade_DSSSL14SaveFOTBuilder16EndExtensionCallE"           ; magicseg='DATA32' len=57
  "__ZTIN6OpenSP5OwnerIN14OpenJade_DSSSL10FOTBuilder24CompoundExtensionFlowObjEEE"          ; magicseg='DATA32' len=78
  "__ZTIN14OpenJade_DSSSL14SaveFOTBuilder13ExtensionCallE"              ; magicseg='DATA32' len=54
  "__ZTIN6OpenSP5OwnerIN14OpenJade_DSSSL10FOTBuilder16ExtensionFlowObjEEE"                  ; magicseg='DATA32' len=70
  "__ZTIN14OpenJade_DSSSL14SaveFOTBuilder18RadicalRadicalCallE"         ; magicseg='DATA32' len=59
  "__ZTIN14OpenJade_DSSSL14SaveFOTBuilder17StartGridCellCallE"          ; magicseg='DATA32' len=58
  "__ZTIN14OpenJade_DSSSL14SaveFOTBuilder13StartGridCallE"              ; magicseg='DATA32' len=54
  "__ZTIN14OpenJade_DSSSL14SaveFOTBuilder22SetGlyphSubstTableCallE"     ; magicseg='DATA32' len=63
  "__ZTIN6OpenSP6VectorINS_8ConstPtrIN14OpenJade_DSSSL10FOTBuilder15GlyphSubstTableEEEEE"                                 ; magicseg='DATA32' len=85
  "__ZTIN14OpenJade_DSSSL14SaveFOTBuilder13StartLinkCallE"              ; magicseg='DATA32' len=54
  "__ZTIN14OpenJade_DSSSL14SaveFOTBuilder18StartTableCellCallE"         ; magicseg='DATA32' len=59
  "__ZTIN14OpenJade_DSSSL14SaveFOTBuilder15TableColumnCallE"            ; magicseg='DATA32' len=56
  "__ZTIN14OpenJade_DSSSL14SaveFOTBuilder14StartTableCallE"             ; magicseg='DATA32' len=55
  "__ZTIN14OpenJade_DSSSL14SaveFOTBuilder15StartLeaderCallE"            ; magicseg='DATA32' len=56
  "__ZTIN14OpenJade_DSSSL14SaveFOTBuilder8RuleCallE"                    ; magicseg='DATA32' len=48
  "__ZTIN14OpenJade_DSSSL14SaveFOTBuilder19ExternalGraphicCallE"        ; magicseg='DATA32' len=60
  "__ZTIN14OpenJade_DSSSL14SaveFOTBuilder18StartLineFieldCallE"         ; magicseg='DATA32' len=59
  "__ZTIN14OpenJade_DSSSL14SaveFOTBuilder12StartBoxCallE"               ; magicseg='DATA32' len=53
  "__ZTIN14OpenJade_DSSSL14SaveFOTBuilder21StartDisplayGroupCallE"      ; magicseg='DATA32' len=62
  "__ZTIN14OpenJade_DSSSL14SaveFOTBuilder18ParagraphBreakCallE"         ; magicseg='DATA32' len=59
  "__ZTIN14OpenJade_DSSSL14SaveFOTBuilder18StartParagraphCallE"         ; magicseg='DATA32' len=59
  "__ZTIN14OpenJade_DSSSL14SaveFOTBuilder13StartNodeCallE"              ; magicseg='DATA32' len=54
  "__ZTIN14OpenJade_DSSSL14SaveFOTBuilder13CharacterCallE"              ; magicseg='DATA32' len=54
  "__ZTIN14OpenJade_DSSSL14SaveFOTBuilder14CharactersCallE"             ; magicseg='DATA32' len=55
  "__ZTIN14OpenJade_DSSSL14SaveFOTBuilder22CharactersFromNodeCallE"     ; magicseg='DATA32' len=63
  "__ZTIN14OpenJade_DSSSL14SaveFOTBuilder18InlineSpaceArgCallE"         ; magicseg='DATA32' len=59
  "__ZTIN14OpenJade_DSSSL14SaveFOTBuilder21DeviceRGBColorArgCallE"      ; magicseg='DATA32' len=62
  "__ZTIN14OpenJade_DSSSL14SaveFOTBuilder15UnsignedArgCallE"            ; magicseg='DATA32' len=56
  "__ZTIN14OpenJade_DSSSL14SaveFOTBuilder15PublicIdArgCallE"            ; magicseg='DATA32' len=56
  "__ZTIN14OpenJade_DSSSL14SaveFOTBuilder13SymbolArgCallE"              ; magicseg='DATA32' len=54
  "__ZTIN14OpenJade_DSSSL14SaveFOTBuilder20ExtensionBoolArgCallE"       ; magicseg='DATA32' len=61
  "__ZTIN14OpenJade_DSSSL14SaveFOTBuilder11BoolArgCallE"                ; magicseg='DATA32' len=52
  "__ZTIN14OpenJade_DSSSL14SaveFOTBuilder11CharArgCallE"                ; magicseg='DATA32' len=52
  "__ZTIN14OpenJade_DSSSL14SaveFOTBuilder22ExtensionStringArgCallE"     ; magicseg='DATA32' len=63
  "__ZTIN14OpenJade_DSSSL14SaveFOTBuilder13StringArgCallE"              ; magicseg='DATA32' len=54
  "__ZTIN14OpenJade_DSSSL14SaveFOTBuilder14NodePtrArgCallE"             ; magicseg='DATA32' len=55
  "__ZTIN14OpenJade_DSSSL14SaveFOTBuilder20OptLengthSpecArgCallE"       ; magicseg='DATA32' len=61
  "__ZTIN14OpenJade_DSSSL14SaveFOTBuilder17LengthSpecArgCallE"          ; magicseg='DATA32' len=58
  "__ZTIN14OpenJade_DSSSL14SaveFOTBuilder20ExtensionLongArgCallE"       ; magicseg='DATA32' len=61
  "__ZTIN14OpenJade_DSSSL14SaveFOTBuilder11LongArgCallE"                ; magicseg='DATA32' len=52
  "__ZTIN14OpenJade_DSSSL14SaveFOTBuilder9NoArgCallE"                   ; magicseg='DATA32' len=49
  "__ZTIN14OpenJade_DSSSL14SaveFOTBuilder4CallE"                        ; magicseg='DATA32' len=44
  "__ZTIN14OpenJade_DSSSL10FOTBuilderE"                                 ; magicseg='DATA32' len=35
  "__ZTVN14OpenJade_DSSSL10FOTBuilder24CompoundExtensionFlowObjE"       ; magicseg='DATA32' len=61
  "__ZTIN14OpenJade_DSSSL10FOTBuilder24CompoundExtensionFlowObjE"       ; magicseg='DATA32' len=61
  "__ZTIN14OpenJade_DSSSL10FOTBuilder16ExtensionFlowObjE"               ; magicseg='DATA32' len=53
  "__ZTVN14OpenJade_DSSSL7FlowObjE"                                     ; magicseg='DATA32' len=31
  "__ZTVN14OpenJade_DSSSL15CompoundFlowObjE"                            ; magicseg='DATA32' len=40
  "__ZTVN14OpenJade_DSSSL24ColumnSetSequenceFlowObjE"                   ; magicseg='DATA32' len=49
  "__ZTVN6OpenSP5OwnerIN14OpenJade_DSSSL10FOTBuilder10DisplayNICEEE"    ; magicseg='DATA32' len=64
  "__ZTIN14OpenJade_DSSSL24ColumnSetSequenceFlowObjE"                   ; magicseg='DATA32' len=49
  "__ZTIN6OpenSP5OwnerIN14OpenJade_DSSSL10FOTBuilder10DisplayNICEEE"    ; magicseg='DATA32' len=64
  "__ZTVN14OpenJade_DSSSL19PageSequenceFlowObjE"                        ; magicseg='DATA32' len=44
  "__ZTIN14OpenJade_DSSSL19PageSequenceFlowObjE"                        ; magicseg='DATA32' len=44
  "__ZTVN14OpenJade_DSSSL13AnchorFlowObjE"                              ; magicseg='DATA32' len=38
  "__ZTVN6OpenSP5OwnerIN14OpenJade_DSSSL10FOTBuilder9AnchorNICEEE"      ; magicseg='DATA32' len=62
  "__ZTIN14OpenJade_DSSSL13AnchorFlowObjE"                              ; magicseg='DATA32' len=38
  "__ZTIN6OpenSP5OwnerIN14OpenJade_DSSSL10FOTBuilder9AnchorNICEEE"      ; magicseg='DATA32' len=62
  "__ZTVN14OpenJade_DSSSL19EmbeddedTextFlowObjE"                        ; magicseg='DATA32' len=44
  "__ZTVN6OpenSP5OwnerIN14OpenJade_DSSSL10FOTBuilder15EmbeddedTextNICEEE"                   ; magicseg='DATA32' len=69
  "__ZTIN14OpenJade_DSSSL19EmbeddedTextFlowObjE"                        ; magicseg='DATA32' len=44
  "__ZTIN6OpenSP5OwnerIN14OpenJade_DSSSL10FOTBuilder15EmbeddedTextNICEEE"                   ; magicseg='DATA32' len=69
  "__ZTVN14OpenJade_DSSSL28IncludedContainerAreaFlowObjE"               ; magicseg='DATA32' len=53
  "__ZTVN6OpenSP5OwnerIN14OpenJade_DSSSL10FOTBuilder24IncludedContainerAreaNICEEE"          ; magicseg='DATA32' len=78
  "__ZTIN14OpenJade_DSSSL28IncludedContainerAreaFlowObjE"               ; magicseg='DATA32' len=53
  "__ZTIN6OpenSP5OwnerIN14OpenJade_DSSSL10FOTBuilder24IncludedContainerAreaNICEEE"          ; magicseg='DATA32' len=78
  "__ZTVN14OpenJade_DSSSL22GlyphAnnotationFlowObjE"                     ; magicseg='DATA32' len=47
  "__ZTVN6OpenSP5OwnerIN14OpenJade_DSSSL10FOTBuilder18GlyphAnnotationNICEEE"                ; magicseg='DATA32' len=72
  "__ZTIN14OpenJade_DSSSL22GlyphAnnotationFlowObjE"                     ; magicseg='DATA32' len=47
  "__ZTIN6OpenSP5OwnerIN14OpenJade_DSSSL10FOTBuilder18GlyphAnnotationNICEEE"                ; magicseg='DATA32' len=72
  "__ZTVN14OpenJade_DSSSL17SideBySideFlowObjE"                          ; magicseg='DATA32' len=42
  "__ZTIN14OpenJade_DSSSL17SideBySideFlowObjE"                          ; magicseg='DATA32' len=42
  "__ZTVN14OpenJade_DSSSL21SideBySideItemFlowObjE"                      ; magicseg='DATA32' len=46
  "__ZTIN14OpenJade_DSSSL21SideBySideItemFlowObjE"                      ; magicseg='DATA32' len=46
  "__ZTVN14OpenJade_DSSSL20AlignedColumnFlowObjE"                       ; magicseg='DATA32' len=45
  "__ZTIN14OpenJade_DSSSL20AlignedColumnFlowObjE"                       ; magicseg='DATA32' len=45
  "__ZTVN14OpenJade_DSSSL26MultiLineInlineNoteFlowObjE"                 ; magicseg='DATA32' len=51
  "__ZTVN6OpenSP5OwnerIN14OpenJade_DSSSL10FOTBuilder22MultiLineInlineNoteNICEEE"            ; magicseg='DATA32' len=76
  "__ZTVN6OpenSP5OwnerIN14OpenJade_DSSSL26MultiLineInlineNoteFlowObj3NICEEE"                ; magicseg='DATA32' len=72
  "__ZTIN14OpenJade_DSSSL26MultiLineInlineNoteFlowObjE"                 ; magicseg='DATA32' len=51
  "__ZTIN6OpenSP5OwnerIN14OpenJade_DSSSL26MultiLineInlineNoteFlowObj3NICEEE"                ; magicseg='DATA32' len=72
  "__ZTIN6OpenSP5OwnerIN14OpenJade_DSSSL10FOTBuilder22MultiLineInlineNoteNICEEE"            ; magicseg='DATA32' len=76
  "__ZTVN14OpenJade_DSSSL22EmphasizingMarkFlowObjE"                     ; magicseg='DATA32' len=47
  "__ZTVN6OpenSP5OwnerIN14OpenJade_DSSSL10FOTBuilder18EmphasizingMarkNICEEE"                ; magicseg='DATA32' len=72
  "__ZTIN14OpenJade_DSSSL22EmphasizingMarkFlowObjE"                     ; magicseg='DATA32' len=47
  "__ZTIN6OpenSP5OwnerIN14OpenJade_DSSSL10FOTBuilder18EmphasizingMarkNICEEE"                ; magicseg='DATA32' len=72
  "__ZTVN14OpenJade_DSSSL19DisplayGroupFlowObjE"                        ; magicseg='DATA32' len=44
  "__ZTVN6OpenSP5OwnerIN14OpenJade_DSSSL10FOTBuilder15DisplayGroupNICEEE"                   ; magicseg='DATA32' len=69
  "__ZTVN14OpenJade_DSSSL16ParagraphFlowObjE"                           ; magicseg='DATA32' len=41
  "__ZTVN14OpenJade_DSSSL21ParagraphBreakFlowObjE"                      ; magicseg='DATA32' len=46
  "__ZTVN14OpenJade_DSSSL22ExternalGraphicFlowObjE"                     ; magicseg='DATA32' len=47
  "__ZTVN6OpenSP5OwnerIN14OpenJade_DSSSL10FOTBuilder18ExternalGraphicNICEEE"                ; magicseg='DATA32' len=72
  "__ZTVN14OpenJade_DSSSL11RuleFlowObjE"                                ; magicseg='DATA32' len=36
  "__ZTVN6OpenSP5OwnerIN14OpenJade_DSSSL10FOTBuilder7RuleNICEEE"        ; magicseg='DATA32' len=60
  "__ZTVN14OpenJade_DSSSL21AlignmentPointFlowObjE"                      ; magicseg='DATA32' len=46
  "__ZTVN14OpenJade_DSSSL15SidelineFlowObjE"                            ; magicseg='DATA32' len=40
  "__ZTVN14OpenJade_DSSSL16LineFieldFlowObjE"                           ; magicseg='DATA32' len=41
  "__ZTVN6OpenSP5OwnerIN14OpenJade_DSSSL10FOTBuilder9InlineNICEEE"      ; magicseg='DATA32' len=62
  "__ZTVN14OpenJade_DSSSL25SimplePageSequenceFlowObjE"                  ; magicseg='DATA32' len=50
  "__ZTVN6OpenSP5OwnerIN14OpenJade_DSSSL25SimplePageSequenceFlowObj12HeaderFooterEEE"       ; magicseg='DATA32' len=81
  "__ZTVN14OpenJade_DSSSL11LinkFlowObjE"                                ; magicseg='DATA32' len=36
  "__ZTVN14OpenJade_DSSSL13ScrollFlowObjE"                              ; magicseg='DATA32' len=38
  "__ZTVN14OpenJade_DSSSL17MarginaliaFlowObjE"                          ; magicseg='DATA32' len=42
  "__ZTVN14OpenJade_DSSSL16MultiModeFlowObjE"                           ; magicseg='DATA32' len=41
  "__ZTVN6OpenSP5OwnerIN14OpenJade_DSSSL16MultiModeFlowObj3NICEEE"      ; magicseg='DATA32' len=62
  "__ZTVN6OpenSP6VectorIPN14OpenJade_DSSSL9SymbolObjEEE"                ; magicseg='DATA32' len=52
  "__ZTVN14OpenJade_DSSSL12ScoreFlowObjE"                               ; magicseg='DATA32' len=37
  "__ZTVN6OpenSP9CopyOwnerIN14OpenJade_DSSSL12ScoreFlowObj4TypeEEE"     ; magicseg='DATA32' len=63
  "__ZTVN14OpenJade_DSSSL12ScoreFlowObj8CharTypeE"                      ; magicseg='DATA32' len=46
  "__ZTVN14OpenJade_DSSSL12ScoreFlowObj10SymbolTypeE"                   ; magicseg='DATA32' len=49
  "__ZTVN14OpenJade_DSSSL12ScoreFlowObj14LengthSpecTypeE"               ; magicseg='DATA32' len=53
  "__ZTVN14OpenJade_DSSSL12ScoreFlowObj4TypeE"                          ; magicseg='DATA32' len=42
  "__ZTVN14OpenJade_DSSSL10BoxFlowObjE"                                 ; magicseg='DATA32' len=35
  "__ZTVN6OpenSP5OwnerIN14OpenJade_DSSSL10FOTBuilder6BoxNICEEE"         ; magicseg='DATA32' len=59
  "__ZTVN14OpenJade_DSSSL13LeaderFlowObjE"                              ; magicseg='DATA32' len=38
  "__ZTVN6OpenSP5OwnerIN14OpenJade_DSSSL10FOTBuilder9LeaderNICEEE"      ; magicseg='DATA32' len=62
  "__ZTVN14OpenJade_DSSSL16CharacterFlowObjE"                           ; magicseg='DATA32' len=41
  "__ZTVN6OpenSP5OwnerIN14OpenJade_DSSSL10FOTBuilder12CharacterNICEEE"                      ; magicseg='DATA32' len=66
  "__ZTVN14OpenJade_DSSSL15FractionFlowObjE"                            ; magicseg='DATA32' len=40
  "__ZTVN14OpenJade_DSSSL11GridFlowObjE"                                ; magicseg='DATA32' len=36
  "__ZTVN6OpenSP5OwnerIN14OpenJade_DSSSL10FOTBuilder7GridNICEEE"        ; magicseg='DATA32' len=60
  "__ZTVN14OpenJade_DSSSL15GridCellFlowObjE"                            ; magicseg='DATA32' len=40
  "__ZTVN6OpenSP5OwnerIN14OpenJade_DSSSL10FOTBuilder11GridCellNICEEE"                       ; magicseg='DATA32' len=65
  "__ZTVN14OpenJade_DSSSL14EmptySosofoObjE"                             ; magicseg='DATA32' len=39
  "__ZTVN14OpenJade_DSSSL15TableRowFlowObjE"                            ; magicseg='DATA32' len=40
  "__ZTVN14OpenJade_DSSSL16TableCellFlowObjE"                           ; magicseg='DATA32' len=41
  "__ZTVN6OpenSP5OwnerIN14OpenJade_DSSSL16TableCellFlowObj3NICEEE"      ; magicseg='DATA32' len=62
  "__ZTVN14OpenJade_DSSSL14ProcessContext5TableE"                       ; magicseg='DATA32' len=45
  "__ZTVN6OpenSP6VectorINS0_IPN14OpenJade_DSSSL8StyleObjEEEEE"          ; magicseg='DATA32' len=58
  "__ZTVN14OpenJade_DSSSL16ExtensionFlowObjE"                           ; magicseg='DATA32' len=41
  "__ZTVN14OpenJade_DSSSL26ELObjExtensionFlowObjValueE"                 ; magicseg='DATA32' len=51
  "__ZTVN14OpenJade_DSSSL24CompoundExtensionFlowObjE"                   ; magicseg='DATA32' len=49
  "__ZTVN14OpenJade_DSSSL12TableFlowObjE"                               ; magicseg='DATA32' len=37
  "__ZTVN6OpenSP5OwnerIN14OpenJade_DSSSL12TableFlowObj3NICEEE"          ; magicseg='DATA32' len=58
  "__ZTVN14OpenJade_DSSSL16TablePartFlowObjE"                           ; magicseg='DATA32' len=41
  "__ZTVN14OpenJade_DSSSL18TableColumnFlowObjE"                         ; magicseg='DATA32' len=43
  "__ZTVN6OpenSP5OwnerIN14OpenJade_DSSSL18TableColumnFlowObj3NICEEE"    ; magicseg='DATA32' len=64
  "__ZTVN14OpenJade_DSSSL18TableBorderFlowObjE"                         ; magicseg='DATA32' len=43
  "__ZTVN14OpenJade_DSSSL19MathSequenceFlowObjE"                        ; magicseg='DATA32' len=44
  "__ZTVN14OpenJade_DSSSL13UnmathFlowObjE"                              ; magicseg='DATA32' len=38
  "__ZTVN14OpenJade_DSSSL18SuperscriptFlowObjE"                         ; magicseg='DATA32' len=43
  "__ZTVN14OpenJade_DSSSL16SubscriptFlowObjE"                           ; magicseg='DATA32' len=41
  "__ZTVN14OpenJade_DSSSL13ScriptFlowObjE"                              ; magicseg='DATA32' len=38
  "__ZTVN14OpenJade_DSSSL11MarkFlowObjE"                                ; magicseg='DATA32' len=36
  "__ZTVN14OpenJade_DSSSL12FenceFlowObjE"                               ; magicseg='DATA32' len=37
  "__ZTVN14OpenJade_DSSSL14RadicalFlowObjE"                             ; magicseg='DATA32' len=39
  "__ZTVN14OpenJade_DSSSL19MathOperatorFlowObjE"                        ; magicseg='DATA32' len=44
  "__ZTVN14OpenJade_DSSSL28FormattingInstructionFlowObjE"               ; magicseg='DATA32' len=53
  "__ZTVN14OpenJade_DSSSL14UnknownFlowObjE"                             ; magicseg='DATA32' len=39
  "__ZTVN6OpenSP6VectorIPN14OpenJade_DSSSL8StyleObjEEE"                 ; magicseg='DATA32' len=51
  "__ZTIN14OpenJade_DSSSL24CompoundExtensionFlowObjE"                   ; magicseg='DATA32' len=49
  "__ZTIN14OpenJade_DSSSL16ExtensionFlowObjE"                           ; magicseg='DATA32' len=41
  "__ZTIN14OpenJade_DSSSL26ELObjExtensionFlowObjValueE"                 ; magicseg='DATA32' len=51
  "__ZTIN14OpenJade_DSSSL28FormattingInstructionFlowObjE"               ; magicseg='DATA32' len=53
  "__ZTIN14OpenJade_DSSSL14UnknownFlowObjE"                             ; magicseg='DATA32' len=39
  "__ZTIN14OpenJade_DSSSL18TableBorderFlowObjE"                         ; magicseg='DATA32' len=43
  "__ZTIN14OpenJade_DSSSL16TableCellFlowObjE"                           ; magicseg='DATA32' len=41
  "__ZTIN6OpenSP5OwnerIN14OpenJade_DSSSL16TableCellFlowObj3NICEEE"      ; magicseg='DATA32' len=62
  "__ZTIN14OpenJade_DSSSL15TableRowFlowObjE"                            ; magicseg='DATA32' len=40
  "__ZTIN14OpenJade_DSSSL18TableColumnFlowObjE"                         ; magicseg='DATA32' len=43
  "__ZTIN6OpenSP5OwnerIN14OpenJade_DSSSL18TableColumnFlowObj3NICEEE"    ; magicseg='DATA32' len=64
  "__ZTIN14OpenJade_DSSSL16TablePartFlowObjE"                           ; magicseg='DATA32' len=41
  "__ZTIN14OpenJade_DSSSL12TableFlowObjE"                               ; magicseg='DATA32' len=37
  "__ZTIN6OpenSP5OwnerIN14OpenJade_DSSSL12TableFlowObj3NICEEE"          ; magicseg='DATA32' len=58
  "__ZTIN14OpenJade_DSSSL15GridCellFlowObjE"                            ; magicseg='DATA32' len=40
  "__ZTIN6OpenSP5OwnerIN14OpenJade_DSSSL10FOTBuilder11GridCellNICEEE"                       ; magicseg='DATA32' len=65
  "__ZTIN14OpenJade_DSSSL11GridFlowObjE"                                ; magicseg='DATA32' len=36
  "__ZTIN6OpenSP5OwnerIN14OpenJade_DSSSL10FOTBuilder7GridNICEEE"        ; magicseg='DATA32' len=60
  "__ZTIN14OpenJade_DSSSL19MathOperatorFlowObjE"                        ; magicseg='DATA32' len=44
  "__ZTIN14OpenJade_DSSSL14RadicalFlowObjE"                             ; magicseg='DATA32' len=39
  "__ZTIN14OpenJade_DSSSL12FenceFlowObjE"                               ; magicseg='DATA32' len=37
  "__ZTIN14OpenJade_DSSSL11MarkFlowObjE"                                ; magicseg='DATA32' len=36
  "__ZTIN14OpenJade_DSSSL13ScriptFlowObjE"                              ; magicseg='DATA32' len=38
  "__ZTIN14OpenJade_DSSSL16SubscriptFlowObjE"                           ; magicseg='DATA32' len=41
  "__ZTIN14OpenJade_DSSSL18SuperscriptFlowObjE"                         ; magicseg='DATA32' len=43
  "__ZTIN14OpenJade_DSSSL13UnmathFlowObjE"                              ; magicseg='DATA32' len=38
  "__ZTIN14OpenJade_DSSSL15FractionFlowObjE"                            ; magicseg='DATA32' len=40
  "__ZTIN14OpenJade_DSSSL19MathSequenceFlowObjE"                        ; magicseg='DATA32' len=44
  "__ZTIN14OpenJade_DSSSL16CharacterFlowObjE"                           ; magicseg='DATA32' len=41
  "__ZTIN6OpenSP5OwnerIN14OpenJade_DSSSL10FOTBuilder12CharacterNICEEE"                      ; magicseg='DATA32' len=66
  "__ZTIN14OpenJade_DSSSL13LeaderFlowObjE"                              ; magicseg='DATA32' len=38
  "__ZTIN6OpenSP5OwnerIN14OpenJade_DSSSL10FOTBuilder9LeaderNICEEE"      ; magicseg='DATA32' len=62
  "__ZTIN14OpenJade_DSSSL10BoxFlowObjE"                                 ; magicseg='DATA32' len=35
  "__ZTIN6OpenSP5OwnerIN14OpenJade_DSSSL10FOTBuilder6BoxNICEEE"         ; magicseg='DATA32' len=59
  "__ZTIN14OpenJade_DSSSL12ScoreFlowObjE"                               ; magicseg='DATA32' len=37
  "__ZTIN6OpenSP9CopyOwnerIN14OpenJade_DSSSL12ScoreFlowObj4TypeEEE"     ; magicseg='DATA32' len=63
  "__ZTIN14OpenJade_DSSSL12ScoreFlowObj8CharTypeE"                      ; magicseg='DATA32' len=46
  "__ZTIN14OpenJade_DSSSL12ScoreFlowObj14LengthSpecTypeE"               ; magicseg='DATA32' len=53
  "__ZTIN14OpenJade_DSSSL12ScoreFlowObj10SymbolTypeE"                   ; magicseg='DATA32' len=49
  "__ZTIN14OpenJade_DSSSL12ScoreFlowObj4TypeE"                          ; magicseg='DATA32' len=42
  "__ZTIN14OpenJade_DSSSL16MultiModeFlowObjE"                           ; magicseg='DATA32' len=41
  "__ZTIN6OpenSP5OwnerIN14OpenJade_DSSSL16MultiModeFlowObj3NICEEE"      ; magicseg='DATA32' len=62
  "__ZTIN14OpenJade_DSSSL17MarginaliaFlowObjE"                          ; magicseg='DATA32' len=42
  "__ZTIN14OpenJade_DSSSL13ScrollFlowObjE"                              ; magicseg='DATA32' len=38
  "__ZTIN14OpenJade_DSSSL11LinkFlowObjE"                                ; magicseg='DATA32' len=36
  "__ZTIN14OpenJade_DSSSL25SimplePageSequenceFlowObjE"                  ; magicseg='DATA32' len=50
  "__ZTIN6OpenSP5OwnerIN14OpenJade_DSSSL25SimplePageSequenceFlowObj12HeaderFooterEEE"       ; magicseg='DATA32' len=81
  "__ZTIN14OpenJade_DSSSL16LineFieldFlowObjE"                           ; magicseg='DATA32' len=41
  "__ZTIN6OpenSP5OwnerIN14OpenJade_DSSSL10FOTBuilder9InlineNICEEE"      ; magicseg='DATA32' len=62
  "__ZTIN14OpenJade_DSSSL15SidelineFlowObjE"                            ; magicseg='DATA32' len=40
  "__ZTIN14OpenJade_DSSSL21AlignmentPointFlowObjE"                      ; magicseg='DATA32' len=46
  "__ZTIN14OpenJade_DSSSL11RuleFlowObjE"                                ; magicseg='DATA32' len=36
  "__ZTIN6OpenSP5OwnerIN14OpenJade_DSSSL10FOTBuilder7RuleNICEEE"        ; magicseg='DATA32' len=60
  "__ZTIN14OpenJade_DSSSL22ExternalGraphicFlowObjE"                     ; magicseg='DATA32' len=47
  "__ZTIN6OpenSP5OwnerIN14OpenJade_DSSSL10FOTBuilder18ExternalGraphicNICEEE"                ; magicseg='DATA32' len=72
  "__ZTIN14OpenJade_DSSSL21ParagraphBreakFlowObjE"                      ; magicseg='DATA32' len=46
  "__ZTIN14OpenJade_DSSSL16ParagraphFlowObjE"                           ; magicseg='DATA32' len=41
  "__ZTIN14OpenJade_DSSSL19DisplayGroupFlowObjE"                        ; magicseg='DATA32' len=44
  "__ZTIN6OpenSP5OwnerIN14OpenJade_DSSSL10FOTBuilder15DisplayGroupNICEEE"                   ; magicseg='DATA32' len=69
  "__ZTIN14OpenJade_DSSSL14ProcessContext5TableE"                       ; magicseg='DATA32' len=45
  "__ZTIN6OpenSP6VectorINS0_IPN14OpenJade_DSSSL8StyleObjEEEEE"          ; magicseg='DATA32' len=58
  "__ZTIN6OpenSP6VectorIPN14OpenJade_DSSSL9SymbolObjEEE"                ; magicseg='DATA32' len=52
  "__ZTIN14OpenJade_DSSSL14EmptySosofoObjE"                             ; magicseg='DATA32' len=39
  "__ZTIN6OpenSP6VectorIPN14OpenJade_DSSSL8StyleObjEEE"                 ; magicseg='DATA32' len=51
  "__ZTVN6OpenSP5OwnerIN14OpenJade_DSSSL12ScoreFlowObj4TypeEEE"         ; magicseg='DATA32' len=59
  "__ZTIN6OpenSP5OwnerIN14OpenJade_DSSSL12ScoreFlowObj4TypeEEE"         ; magicseg='DATA32' len=59
  "__ZTIN14OpenJade_DSSSL10FOTBuilder16ExtensionFlowObj5ValueE"         ; magicseg='DATA32' len=59
  "__ZTVN14OpenJade_DSSSL10InheritedCE"                                 ; magicseg='DATA32' len=35
  "__ZTVN14OpenJade_DSSSL14BoolInheritedCE"                             ; magicseg='DATA32' len=39
  "__ZTVN14OpenJade_DSSSL17IntegerInheritedCE"                          ; magicseg='DATA32' len=42
  "__ZTVN14OpenJade_DSSSL16LengthInheritedCE"                           ; magicseg='DATA32' len=41
  "__ZTVN14OpenJade_DSSSL16SymbolInheritedCE"                           ; magicseg='DATA32' len=41
  "__ZTVN14OpenJade_DSSSL18PublicIdInheritedCE"                         ; magicseg='DATA32' len=43
  "__ZTVN14OpenJade_DSSSL17Letter2InheritedCE"                          ; magicseg='DATA32' len=42
  "__ZTVN14OpenJade_DSSSL20LengthSpecInheritedCE"                       ; magicseg='DATA32' len=45
  "__ZTVN14OpenJade_DSSSL23OptLengthSpecInheritedCE"                    ; magicseg='DATA32' len=48
  "__ZTVN14OpenJade_DSSSL16StringInheritedCE"                           ; magicseg='DATA32' len=41
  "__ZTVN14OpenJade_DSSSL28GenericInlineSpaceInheritedCE"               ; magicseg='DATA32' len=53
  "__ZTVN14OpenJade_DSSSL21GenericBoolInheritedCE"                      ; magicseg='DATA32' len=46
  "__ZTVN14OpenJade_DSSSL23ExtensionBoolInheritedCE"                    ; magicseg='DATA32' len=48
  "__ZTVN14OpenJade_DSSSL25ExtensionStringInheritedCE"                  ; magicseg='DATA32' len=50
  "__ZTVN14OpenJade_DSSSL26ExtensionIntegerInheritedCE"                 ; magicseg='DATA32' len=51
  "__ZTVN14OpenJade_DSSSL25ExtensionLengthInheritedCE"                  ; magicseg='DATA32' len=50
  "__ZTVN14OpenJade_DSSSL23GenericLengthInheritedCE"                    ; magicseg='DATA32' len=48
  "__ZTVN14OpenJade_DSSSL24GenericIntegerInheritedCE"                   ; magicseg='DATA32' len=49
  "__ZTVN14OpenJade_DSSSL29GenericMaybeIntegerInheritedCE"              ; magicseg='DATA32' len=54
  "__ZTVN14OpenJade_DSSSL23GenericSymbolInheritedCE"                    ; magicseg='DATA32' len=48
  "__ZTVN14OpenJade_DSSSL25GenericPublicIdInheritedCE"                  ; magicseg='DATA32' len=50
  "__ZTVN14OpenJade_DSSSL24GenericLetter2InheritedCE"                   ; magicseg='DATA32' len=49
  "__ZTVN14OpenJade_DSSSL27GenericLengthSpecInheritedCE"                ; magicseg='DATA32' len=52
  "__ZTVN14OpenJade_DSSSL31GenericOptInlineSpaceInheritedCE"            ; magicseg='DATA32' len=56
  "__ZTVN14OpenJade_DSSSL30GenericOptLengthSpecInheritedCE"             ; magicseg='DATA32' len=55
  "__ZTVN14OpenJade_DSSSL9FontSizeCE"                                   ; magicseg='DATA32' len=33
  "__ZTVN14OpenJade_DSSSL15FontFamilyNameCE"                            ; magicseg='DATA32' len=40
  "__ZTVN14OpenJade_DSSSL6ColorCE"                                      ; magicseg='DATA32' len=30
  "__ZTVN14OpenJade_DSSSL16BackgroundColorCE"                           ; magicseg='DATA32' len=41
  "__ZTVN14OpenJade_DSSSL16GlyphSubstTableCE"                           ; magicseg='DATA32' len=41
  "__ZTVN14OpenJade_DSSSL8IgnoredCE"                                    ; magicseg='DATA32' len=32
  "__ZTVN14OpenJade_DSSSL7BorderCE"                                     ; magicseg='DATA32' len=31
  "__ZTVN14OpenJade_DSSSL5RuleCE"                                       ; magicseg='DATA32' len=29
  "__ZTVN14OpenJade_DSSSL22InheritedCPrimitiveObjE"                     ; magicseg='DATA32' len=47
  "__ZTVN14OpenJade_DSSSL19ActualCPrimitiveObjE"                        ; magicseg='DATA32' len=44
  "__ZTIN14OpenJade_DSSSL19ActualCPrimitiveObjE"                        ; magicseg='DATA32' len=44
  "__ZTIN14OpenJade_DSSSL22InheritedCPrimitiveObjE"                     ; magicseg='DATA32' len=47
  "__ZTIN14OpenJade_DSSSL5RuleCE"                                       ; magicseg='DATA32' len=29
  "__ZTIN14OpenJade_DSSSL7BorderCE"                                     ; magicseg='DATA32' len=31
  "__ZTIN14OpenJade_DSSSL8IgnoredCE"                                    ; magicseg='DATA32' len=32
  "__ZTIN14OpenJade_DSSSL16GlyphSubstTableCE"                           ; magicseg='DATA32' len=41
  "__ZTIN14OpenJade_DSSSL16BackgroundColorCE"                           ; magicseg='DATA32' len=41
  "__ZTIN14OpenJade_DSSSL6ColorCE"                                      ; magicseg='DATA32' len=30
  "__ZTIN14OpenJade_DSSSL15FontFamilyNameCE"                            ; magicseg='DATA32' len=40
  "__ZTIN14OpenJade_DSSSL9FontSizeCE"                                   ; magicseg='DATA32' len=33
  "__ZTIN14OpenJade_DSSSL30GenericOptLengthSpecInheritedCE"             ; magicseg='DATA32' len=55
  "__ZTIN14OpenJade_DSSSL31GenericOptInlineSpaceInheritedCE"            ; magicseg='DATA32' len=56
  "__ZTIN14OpenJade_DSSSL27GenericLengthSpecInheritedCE"                ; magicseg='DATA32' len=52
  "__ZTIN14OpenJade_DSSSL24GenericLetter2InheritedCE"                   ; magicseg='DATA32' len=49
  "__ZTIN14OpenJade_DSSSL25GenericPublicIdInheritedCE"                  ; magicseg='DATA32' len=50
  "__ZTIN14OpenJade_DSSSL23GenericSymbolInheritedCE"                    ; magicseg='DATA32' len=48
  "__ZTIN14OpenJade_DSSSL29GenericMaybeIntegerInheritedCE"              ; magicseg='DATA32' len=54
  "__ZTIN14OpenJade_DSSSL24GenericIntegerInheritedCE"                   ; magicseg='DATA32' len=49
  "__ZTIN14OpenJade_DSSSL23GenericLengthInheritedCE"                    ; magicseg='DATA32' len=48
  "__ZTIN14OpenJade_DSSSL25ExtensionLengthInheritedCE"                  ; magicseg='DATA32' len=50
  "__ZTIN14OpenJade_DSSSL26ExtensionIntegerInheritedCE"                 ; magicseg='DATA32' len=51
  "__ZTIN14OpenJade_DSSSL25ExtensionStringInheritedCE"                  ; magicseg='DATA32' len=50
  "__ZTIN14OpenJade_DSSSL23ExtensionBoolInheritedCE"                    ; magicseg='DATA32' len=48
  "__ZTIN14OpenJade_DSSSL21GenericBoolInheritedCE"                      ; magicseg='DATA32' len=46
  "__ZTIN14OpenJade_DSSSL28GenericInlineSpaceInheritedCE"               ; magicseg='DATA32' len=53
  "__ZTIN14OpenJade_DSSSL16StringInheritedCE"                           ; magicseg='DATA32' len=41
  "__ZTIN14OpenJade_DSSSL23OptLengthSpecInheritedCE"                    ; magicseg='DATA32' len=48
  "__ZTIN14OpenJade_DSSSL20LengthSpecInheritedCE"                       ; magicseg='DATA32' len=45
  "__ZTIN14OpenJade_DSSSL17Letter2InheritedCE"                          ; magicseg='DATA32' len=42
  "__ZTIN14OpenJade_DSSSL18PublicIdInheritedCE"                         ; magicseg='DATA32' len=43
  "__ZTIN14OpenJade_DSSSL16SymbolInheritedCE"                           ; magicseg='DATA32' len=41
  "__ZTIN14OpenJade_DSSSL16LengthInheritedCE"                           ; magicseg='DATA32' len=41
  "__ZTIN14OpenJade_DSSSL17IntegerInheritedCE"                          ; magicseg='DATA32' len=42
  "__ZTIN14OpenJade_DSSSL14BoolInheritedCE"                             ; magicseg='DATA32' len=39
  "__ZTIN14OpenJade_DSSSL10InheritedCE"                                 ; magicseg='DATA32' len=35
  "__ZTIN14OpenJade_DSSSL12PrimitiveObjE"                               ; magicseg='DATA32' len=37
  "__ZTIN14OpenJade_DSSSL11FunctionObjE"                                ; magicseg='DATA32' len=36
  "__ZTVN14OpenJade_DSSSL2VME"                                          ; magicseg='DATA32' len=26
  "__ZTVN6OpenSP6VectorIPKN14OpenJade_DSSSL14ProcessingModeEEE"         ; magicseg='DATA32' len=59
  "__ZTVN6OpenSP16NumberMessageArgE"                                    ; magicseg='DATA32' len=32
  "__ZTVN14OpenJade_DSSSL4InsnE"                                        ; magicseg='DATA32' len=28
  "__ZTVN14OpenJade_DSSSL12CondFailInsnE"                               ; magicseg='DATA32' len=37
  "__ZTVN14OpenJade_DSSSL12CaseFailInsnE"                               ; magicseg='DATA32' len=37
  "__ZTVN14OpenJade_DSSSL12ConstantInsnE"                               ; magicseg='DATA32' len=37
  "__ZTVN14OpenJade_DSSSL21ResolveQuantitiesInsnE"                      ; magicseg='DATA32' len=46
  "__ZTVN14OpenJade_DSSSL8TestInsnE"                                    ; magicseg='DATA32' len=32
  "__ZTVN14OpenJade_DSSSL6OrInsnE"                                      ; magicseg='DATA32' len=30
  "__ZTVN14OpenJade_DSSSL7AndInsnE"                                     ; magicseg='DATA32' len=31
  "__ZTVN14OpenJade_DSSSL8CaseInsnE"                                    ; magicseg='DATA32' len=32
  "__ZTVN14OpenJade_DSSSL7PopInsnE"                                     ; magicseg='DATA32' len=31
  "__ZTVN14OpenJade_DSSSL8ConsInsnE"                                    ; magicseg='DATA32' len=32
  "__ZTVN14OpenJade_DSSSL10AppendInsnE"                                 ; magicseg='DATA32' len=35
  "__ZTVN14OpenJade_DSSSL13ApplyBaseInsnE"                              ; magicseg='DATA32' len=38
  "__ZTVN14OpenJade_DSSSL9ApplyInsnE"                                   ; magicseg='DATA32' len=33
  "__ZTVN14OpenJade_DSSSL13TailApplyInsnE"                              ; magicseg='DATA32' len=38
  "__ZTVN14OpenJade_DSSSL17ApplyPrimitiveObjE"                          ; magicseg='DATA32' len=42
  "__ZTVN6OpenSP17OrdinalMessageArgE"                                   ; magicseg='DATA32' len=33
  "__ZTVN14OpenJade_DSSSL17PrimitiveCallInsnE"                          ; magicseg='DATA32' len=42
  "__ZTVN14OpenJade_DSSSL11ClosureInsnE"                                ; magicseg='DATA32' len=36
  "__ZTVN14OpenJade_DSSSL16FunctionCallInsnE"                           ; magicseg='DATA32' len=41
  "__ZTVN14OpenJade_DSSSL20FunctionTailCallInsnE"                       ; magicseg='DATA32' len=45
  "__ZTVN14OpenJade_DSSSL12TestNullInsnE"                               ; magicseg='DATA32' len=37
  "__ZTVN14OpenJade_DSSSL11VarargsInsnE"                                ; magicseg='DATA32' len=36
  "__ZTVN14OpenJade_DSSSL13SetKeyArgInsnE"                              ; magicseg='DATA32' len=38
  "__ZTVN14OpenJade_DSSSL10ClosureObjE"                                 ; magicseg='DATA32' len=35
  "__ZTVN14OpenJade_DSSSL15ContinuationObjE"                            ; magicseg='DATA32' len=40
  "__ZTVN14OpenJade_DSSSL10ReturnInsnE"                                 ; magicseg='DATA32' len=35
  "__ZTVN14OpenJade_DSSSL12FrameRefInsnE"                               ; magicseg='DATA32' len=37
  "__ZTVN14OpenJade_DSSSL12StackRefInsnE"                               ; magicseg='DATA32' len=37
  "__ZTVN14OpenJade_DSSSL14ClosureRefInsnE"                             ; magicseg='DATA32' len=39
  "__ZTVN14OpenJade_DSSSL10TopRefInsnE"                                 ; magicseg='DATA32' len=35
  "__ZTVN14OpenJade_DSSSL17ClosureSetBoxInsnE"                          ; magicseg='DATA32' len=42
  "__ZTVN14OpenJade_DSSSL15StackSetBoxInsnE"                            ; magicseg='DATA32' len=40
  "__ZTVN14OpenJade_DSSSL12StackSetInsnE"                               ; magicseg='DATA32' len=37
  "__ZTVN14OpenJade_DSSSL15PopBindingsInsnE"                            ; magicseg='DATA32' len=40
  "__ZTVN14OpenJade_DSSSL10SetBoxInsnE"                                 ; magicseg='DATA32' len=35
  "__ZTVN14OpenJade_DSSSL16SetImmediateInsnE"                           ; magicseg='DATA32' len=41
  "__ZTVN14OpenJade_DSSSL13CheckInitInsnE"                              ; magicseg='DATA32' len=38
  "__ZTVN14OpenJade_DSSSL9UnboxInsnE"                                   ; magicseg='DATA32' len=33
  "__ZTVN14OpenJade_DSSSL7BoxInsnE"                                     ; magicseg='DATA32' len=31
  "__ZTVN14OpenJade_DSSSL10BoxArgInsnE"                                 ; magicseg='DATA32' len=35
  "__ZTVN14OpenJade_DSSSL12BoxStackInsnE"                               ; magicseg='DATA32' len=37
  "__ZTVN14OpenJade_DSSSL10VectorInsnE"                                 ; magicseg='DATA32' len=35
  "__ZTVN14OpenJade_DSSSL16ListToVectorInsnE"                           ; magicseg='DATA32' len=41
  "__ZTVN14OpenJade_DSSSL22MaybeOverrideStyleInsnE"                     ; magicseg='DATA32' len=47
  "__ZTVN14OpenJade_DSSSL12VarStyleInsnE"                               ; magicseg='DATA32' len=37
  "__ZTVN14OpenJade_DSSSL12SetStyleInsnE"                               ; magicseg='DATA32' len=37
  "__ZTVN14OpenJade_DSSSL16SosofoAppendInsnE"                           ; magicseg='DATA32' len=41
  "__ZTVN14OpenJade_DSSSL15AppendSosofoObjE"                            ; magicseg='DATA32' len=40
  "__ZTVN6OpenSP6VectorIPN14OpenJade_DSSSL9SosofoObjEEE"                ; magicseg='DATA32' len=52
  "__ZTVN14OpenJade_DSSSL15CopyFlowObjInsnE"                            ; magicseg='DATA32' len=40
  "__ZTVN14OpenJade_DSSSL27SetNonInheritedCsSosofoInsnE"                ; magicseg='DATA32' len=52
  "__ZTVN14OpenJade_DSSSL26SetPseudoNonInheritedCInsnE"                 ; magicseg='DATA32' len=51
  "__ZTVN14OpenJade_DSSSL20SetNonInheritedCInsnE"                       ; magicseg='DATA32' len=45
  "__ZTVN14OpenJade_DSSSL14SetContentInsnE"                             ; magicseg='DATA32' len=39
  "__ZTVN14OpenJade_DSSSL19SetImplicitCharInsnE"                        ; magicseg='DATA32' len=44
  "__ZTVN14OpenJade_DSSSL18ELObjPropertyValueE"                         ; magicseg='DATA32' len=43
  "__ZTVN14OpenJade_Grove13PropertyValueE"                              ; magicseg='DATA32' len=38
  "__ZTVN14OpenJade_DSSSL21SetDefaultContentInsnE"                      ; magicseg='DATA32' len=46
  "__ZTVN14OpenJade_DSSSL24ProcessChildrenSosofoObjE"                   ; magicseg='DATA32' len=49
  "__ZTVN14OpenJade_DSSSL22MakeDefaultContentInsnE"                     ; magicseg='DATA32' len=47
  "__ZTVN14OpenJade_DSSSL15LabelSosofoInsnE"                            ; magicseg='DATA32' len=40
  "__ZTVN14OpenJade_DSSSL20ContentMapSosofoInsnE"                       ; magicseg='DATA32' len=45
  "__ZTVN14OpenJade_DSSSL6BoxObjE"                                      ; magicseg='DATA32' len=30
  "__ZTVN14OpenJade_DSSSL39CallWithCurrentContinuationPrimitiveObjE"    ; magicseg='DATA32' len=64
  "__ZTIN14OpenJade_DSSSL18ELObjPropertyValueE"                         ; magicseg='DATA32' len=43
  "__ZTIN14OpenJade_DSSSL20ContentMapSosofoInsnE"                       ; magicseg='DATA32' len=45
  "__ZTIN14OpenJade_DSSSL15LabelSosofoInsnE"                            ; magicseg='DATA32' len=40
  "__ZTIN14OpenJade_DSSSL12SetStyleInsnE"                               ; magicseg='DATA32' len=37
  "__ZTIN14OpenJade_DSSSL22MaybeOverrideStyleInsnE"                     ; magicseg='DATA32' len=47
  "__ZTIN14OpenJade_DSSSL12VarStyleInsnE"                               ; magicseg='DATA32' len=37
  "__ZTIN14OpenJade_DSSSL16SosofoAppendInsnE"                           ; magicseg='DATA32' len=41
  "__ZTIN14OpenJade_DSSSL22MakeDefaultContentInsnE"                     ; magicseg='DATA32' len=47
  "__ZTIN14OpenJade_DSSSL21SetDefaultContentInsnE"                      ; magicseg='DATA32' len=46
  "__ZTIN14OpenJade_DSSSL14SetContentInsnE"                             ; magicseg='DATA32' len=39
  "__ZTIN14OpenJade_DSSSL19SetImplicitCharInsnE"                        ; magicseg='DATA32' len=44
  "__ZTIN14OpenJade_DSSSL20SetNonInheritedCInsnE"                       ; magicseg='DATA32' len=45
  "__ZTIN14OpenJade_DSSSL26SetPseudoNonInheritedCInsnE"                 ; magicseg='DATA32' len=51
  "__ZTIN14OpenJade_DSSSL15CopyFlowObjInsnE"                            ; magicseg='DATA32' len=40
  "__ZTIN14OpenJade_DSSSL27SetNonInheritedCsSosofoInsnE"                ; magicseg='DATA32' len=52
  "__ZTIN14OpenJade_DSSSL24ProcessChildrenSosofoObjE"                   ; magicseg='DATA32' len=49
  "__ZTIN14OpenJade_DSSSL15AppendSosofoObjE"                            ; magicseg='DATA32' len=40
  "__ZTIN6OpenSP6VectorIPN14OpenJade_DSSSL9SosofoObjEEE"                ; magicseg='DATA32' len=52
  "__ZTIN14OpenJade_DSSSL16ListToVectorInsnE"                           ; magicseg='DATA32' len=41
  "__ZTIN14OpenJade_DSSSL10VectorInsnE"                                 ; magicseg='DATA32' len=35
  "__ZTIN14OpenJade_DSSSL12BoxStackInsnE"                               ; magicseg='DATA32' len=37
  "__ZTIN14OpenJade_DSSSL10BoxArgInsnE"                                 ; magicseg='DATA32' len=35
  "__ZTIN14OpenJade_DSSSL7BoxInsnE"                                     ; magicseg='DATA32' len=31
  "__ZTIN14OpenJade_DSSSL13CheckInitInsnE"                              ; magicseg='DATA32' len=38
  "__ZTIN14OpenJade_DSSSL9UnboxInsnE"                                   ; magicseg='DATA32' len=33
  "__ZTIN14OpenJade_DSSSL16SetImmediateInsnE"                           ; magicseg='DATA32' len=41
  "__ZTIN14OpenJade_DSSSL10SetBoxInsnE"                                 ; magicseg='DATA32' len=35
  "__ZTIN14OpenJade_DSSSL6BoxObjE"                                      ; magicseg='DATA32' len=30
  "__ZTIN14OpenJade_DSSSL15ContinuationObjE"                            ; magicseg='DATA32' len=40
  "__ZTIN14OpenJade_DSSSL10ClosureObjE"                                 ; magicseg='DATA32' len=35
  "__ZTIN14OpenJade_DSSSL39CallWithCurrentContinuationPrimitiveObjE"    ; magicseg='DATA32' len=64
  "__ZTIN14OpenJade_DSSSL17ApplyPrimitiveObjE"                          ; magicseg='DATA32' len=42
  "__ZTVN14OpenJade_DSSSL12PrimitiveObjE"                               ; magicseg='DATA32' len=37
  "__ZTVN14OpenJade_DSSSL11FunctionObjE"                                ; magicseg='DATA32' len=36
  "__ZTIN14OpenJade_DSSSL10ReturnInsnE"                                 ; magicseg='DATA32' len=35
  "__ZTIN14OpenJade_DSSSL12TestNullInsnE"                               ; magicseg='DATA32' len=37
  "__ZTIN14OpenJade_DSSSL13SetKeyArgInsnE"                              ; magicseg='DATA32' len=38
  "__ZTIN14OpenJade_DSSSL11VarargsInsnE"                                ; magicseg='DATA32' len=36
  "__ZTIN14OpenJade_DSSSL20FunctionTailCallInsnE"                       ; magicseg='DATA32' len=45
  "__ZTIN14OpenJade_DSSSL16FunctionCallInsnE"                           ; magicseg='DATA32' len=41
  "__ZTIN14OpenJade_DSSSL11ClosureInsnE"                                ; magicseg='DATA32' len=36
  "__ZTIN14OpenJade_DSSSL17PrimitiveCallInsnE"                          ; magicseg='DATA32' len=42
  "__ZTIN14OpenJade_DSSSL15PopBindingsInsnE"                            ; magicseg='DATA32' len=40
  "__ZTIN14OpenJade_DSSSL10TopRefInsnE"                                 ; magicseg='DATA32' len=35
  "__ZTIN14OpenJade_DSSSL17ClosureSetBoxInsnE"                          ; magicseg='DATA32' len=42
  "__ZTIN14OpenJade_DSSSL12StackSetInsnE"                               ; magicseg='DATA32' len=37
  "__ZTIN14OpenJade_DSSSL15StackSetBoxInsnE"                            ; magicseg='DATA32' len=40
  "__ZTIN14OpenJade_DSSSL14ClosureRefInsnE"                             ; magicseg='DATA32' len=39
  "__ZTIN14OpenJade_DSSSL12StackRefInsnE"                               ; magicseg='DATA32' len=37
  "__ZTIN14OpenJade_DSSSL12FrameRefInsnE"                               ; magicseg='DATA32' len=37
  "__ZTIN14OpenJade_DSSSL13TailApplyInsnE"                              ; magicseg='DATA32' len=38
  "__ZTIN14OpenJade_DSSSL9ApplyInsnE"                                   ; magicseg='DATA32' len=33
  "__ZTIN14OpenJade_DSSSL13ApplyBaseInsnE"                              ; magicseg='DATA32' len=38
  "__ZTIN14OpenJade_DSSSL10AppendInsnE"                                 ; magicseg='DATA32' len=35
  "__ZTIN14OpenJade_DSSSL8ConsInsnE"                                    ; magicseg='DATA32' len=32
  "__ZTIN14OpenJade_DSSSL7PopInsnE"                                     ; magicseg='DATA32' len=31
  "__ZTIN14OpenJade_DSSSL8CaseInsnE"                                    ; magicseg='DATA32' len=32
  "__ZTIN14OpenJade_DSSSL7AndInsnE"                                     ; magicseg='DATA32' len=31
  "__ZTIN14OpenJade_DSSSL6OrInsnE"                                      ; magicseg='DATA32' len=30
  "__ZTIN14OpenJade_DSSSL8TestInsnE"                                    ; magicseg='DATA32' len=32
  "__ZTIN14OpenJade_DSSSL21ResolveQuantitiesInsnE"                      ; magicseg='DATA32' len=46
  "__ZTIN14OpenJade_DSSSL12ConstantInsnE"                               ; magicseg='DATA32' len=37
  "__ZTIN14OpenJade_DSSSL12CaseFailInsnE"                               ; magicseg='DATA32' len=37
  "__ZTIN14OpenJade_DSSSL12CondFailInsnE"                               ; magicseg='DATA32' len=37
  "__ZTIN6OpenSP17OrdinalMessageArgE"                                   ; magicseg='DATA32' len=33
  "__ZTIN6OpenSP16NumberMessageArgE"                                    ; magicseg='DATA32' len=32
  "__ZTIN14OpenJade_DSSSL2VME"                                          ; magicseg='DATA32' len=26
  "__ZTIN6OpenSP6VectorIPKN14OpenJade_DSSSL14ProcessingModeEEE"         ; magicseg='DATA32' len=59
  "__ZTIN14OpenJade_Grove13PropertyValueE"                              ; magicseg='DATA32' len=38
  "__ZTIN14OpenJade_DSSSL11EvalContextE"                                ; magicseg='DATA32' len=36
  "__ZTVN14OpenJade_DSSSL7Pattern12MatchContextE"                       ; magicseg='DATA32' len=45
  "__ZTVN14OpenJade_DSSSL11InterpreterE"                                ; magicseg='DATA32' len=36
  "__ZTVN14OpenJade_DSSSL14ProcessingModeE"                             ; magicseg='DATA32' len=39
  "__ZTVN14OpenJade_DSSSL7Pattern19OnlyOfTypeQualifierE"                ; magicseg='DATA32' len=52
  "__ZTVN14OpenJade_DSSSL7Pattern18OnlyOfAnyQualifierE"                 ; magicseg='DATA32' len=51
  "__ZTVN14OpenJade_DSSSL7Pattern20FirstOfTypeQualifierE"               ; magicseg='DATA32' len=53
  "__ZTVN14OpenJade_DSSSL7Pattern19LastOfTypeQualifierE"                ; magicseg='DATA32' len=52
  "__ZTVN14OpenJade_DSSSL7Pattern19FirstOfAnyQualifierE"                ; magicseg='DATA32' len=52
  "__ZTVN14OpenJade_DSSSL7Pattern18LastOfAnyQualifierE"                 ; magicseg='DATA32' len=51
  "__ZN14OpenJade_DSSSL10Identifier14preferBuiltin_E"                   ; magicseg='DATA32' len=49
  "__ZTVN14OpenJade_DSSSL10IdentifierE"                                 ; magicseg='DATA32' len=35
  "__ZTVN14OpenJade_DSSSL4UnitE"                                        ; magicseg='DATA32' len=28
  "__ZTVN14OpenJade_DSSSL12SchemeParserE"                               ; magicseg='DATA32' len=37
  "__ZTVN6OpenSP8NCVectorINS_10NamedTableIN14OpenJade_DSSSL11NumberCache5EntryEEEEE"        ; magicseg='DATA32' len=80
  "__ZTVN6OpenSP8NCVectorIN14OpenJade_DSSSL14ProcessingMode10GroveRulesEEE"                 ; magicseg='DATA32' len=71
  "__ZTVN6OpenSP6VectorIPNS_5NamedEEE"                                  ; magicseg='DATA32' len=34
  "__ZTVN6OpenSP6VectorIPNS_6StringIcEEEE"                              ; magicseg='DATA32' len=38
  "__ZTVN6OpenSP13HashTableItemINS_6StringIjEEN14OpenJade_DSSSL8CharPartEEE"                ; magicseg='DATA32' len=72
  "__ZTVN6OpenSP13HashTableItemINS_6StringIjEEiEE"                      ; magicseg='DATA32' len=46
  "__ZTVN6OpenSP13HashTableItemINS_6StringIjEEN14OpenJade_DSSSL8CharPropEEE"                ; magicseg='DATA32' len=72
  "__ZTIN6OpenSP13HashTableItemINS_6StringIjEEN14OpenJade_DSSSL8CharPropEEE"                ; magicseg='DATA32' len=72
  "__ZTIN6OpenSP13HashTableItemINS_6StringIjEEiEE"                      ; magicseg='DATA32' len=46
  "__ZTIN6OpenSP13HashTableItemINS_6StringIjEEN14OpenJade_DSSSL8CharPartEEE"                ; magicseg='DATA32' len=72
  "__ZTIN14OpenJade_DSSSL12SchemeParserE"                               ; magicseg='DATA32' len=37
  "__ZTIN14OpenJade_DSSSL11InterpreterE"                                ; magicseg='DATA32' len=36
  "__ZTIN6OpenSP6VectorIPNS_6StringIcEEEE"                              ; magicseg='DATA32' len=38
  "__ZTIN14OpenJade_DSSSL4UnitE"                                        ; magicseg='DATA32' len=28
  "__ZTIN14OpenJade_DSSSL10IdentifierE"                                 ; magicseg='DATA32' len=35
  "__ZTIN6OpenSP8NCVectorINS_10NamedTableIN14OpenJade_DSSSL11NumberCache5EntryEEEEE"        ; magicseg='DATA32' len=80
  "__ZTIN14OpenJade_DSSSL14ProcessingModeE"                             ; magicseg='DATA32' len=39
  "__ZTIN6OpenSP8NCVectorIN14OpenJade_DSSSL14ProcessingMode10GroveRulesEEE"                 ; magicseg='DATA32' len=71
  "__ZTIN6OpenSP6VectorIPNS_5NamedEEE"                                  ; magicseg='DATA32' len=34
  "__ZTIN14OpenJade_DSSSL7Pattern18OnlyOfAnyQualifierE"                 ; magicseg='DATA32' len=51
  "__ZTIN14OpenJade_DSSSL7Pattern19OnlyOfTypeQualifierE"                ; magicseg='DATA32' len=52
  "__ZTIN14OpenJade_DSSSL7Pattern18LastOfAnyQualifierE"                 ; magicseg='DATA32' len=51
  "__ZTIN14OpenJade_DSSSL7Pattern19FirstOfAnyQualifierE"                ; magicseg='DATA32' len=52
  "__ZTIN14OpenJade_DSSSL7Pattern19LastOfTypeQualifierE"                ; magicseg='DATA32' len=52
  "__ZTIN14OpenJade_DSSSL7Pattern20FirstOfTypeQualifierE"               ; magicseg='DATA32' len=53
  "__ZTIN14OpenJade_DSSSL7Pattern12MatchContextE"                       ; magicseg='DATA32' len=45
  "__ZTVN14OpenJade_DSSSL7Pattern17PositionQualifierE"                  ; magicseg='DATA32' len=50
  "__ZTVN14OpenJade_DSSSL7Pattern13OnlyQualifierE"                      ; magicseg='DATA32' len=46
  "__ZTIN14OpenJade_Grove11SdataMapperE"                                ; magicseg='DATA32' len=36
  "__ZTIN14OpenJade_DSSSL7Pattern17PositionQualifierE"                  ; magicseg='DATA32' len=50
  "__ZTIN14OpenJade_DSSSL7Pattern13OnlyQualifierE"                      ; magicseg='DATA32' len=46
  "__ZTIN14OpenJade_DSSSL11NumberCacheE"                                ; magicseg='DATA32' len=36
  "__ZTIN14OpenJade_DSSSL7Pattern9QualifierE"                           ; magicseg='DATA32' len=41
  "__ZTVN14OpenJade_DSSSL11NumberCache5EntryE"                          ; magicseg='DATA32' len=42
  "__ZTVN14OpenJade_DSSSL11NumberCache12ElementEntryE"                  ; magicseg='DATA32' len=50
  "__ZTIN14OpenJade_DSSSL11NumberCache12ElementEntryE"                  ; magicseg='DATA32' len=50
  "__ZTIN14OpenJade_DSSSL11NumberCache5EntryE"                          ; magicseg='DATA32' len=42
  "__ZTVN14OpenJade_DSSSL14ProcessContextE"                             ; magicseg='DATA32' len=39
  "__ZTVN6OpenSP8NCVectorINS_6IQueueIN14OpenJade_DSSSL14SaveFOTBuilderEEEEE"                ; magicseg='DATA32' len=72
  "__ZTVN6OpenSP6VectorIN14OpenJade_DSSSL14ProcessContext14NodeStackEntryEEE"               ; magicseg='DATA32' len=73
  "__ZTVN14OpenJade_DSSSL14ProcessContext10ConnectionE"                 ; magicseg='DATA32' len=51
  "__ZTVN14OpenJade_DSSSL14ProcessContext11ConnectableE"                ; magicseg='DATA32' len=52
  "__ZTVN6OpenSP8NCVectorIN14OpenJade_DSSSL14ProcessContext4PortEEE"    ; magicseg='DATA32' len=64
  "__ZTVN14OpenJade_DSSSL18NextMatchSosofoObjE"                         ; magicseg='DATA32' len=43
  "__ZTVN14OpenJade_DSSSL24ProcessNodeListSosofoObjE"                   ; magicseg='DATA32' len=49
  "__ZTVN14OpenJade_DSSSL20ProcessNodeSosofoObjE"                       ; magicseg='DATA32' len=45
  "__ZTVN14OpenJade_DSSSL26SetNonInheritedCsSosofoObjE"                 ; magicseg='DATA32' len=51
  "__ZTVN14OpenJade_DSSSL14LabelSosofoObjE"                             ; magicseg='DATA32' len=39
  "__ZTVN6OpenSP5OwnerINS_8LocationEEE"                                 ; magicseg='DATA32' len=35
  "__ZTVN14OpenJade_DSSSL19ContentMapSosofoObjE"                        ; magicseg='DATA32' len=44
  "__ZTVN14OpenJade_DSSSL23DiscardLabeledSosofoObjE"                    ; magicseg='DATA32' len=48
  "__ZTVN14OpenJade_DSSSL17PageTypeSosofoObjE"                          ; magicseg='DATA32' len=42
  "__ZTVN6OpenSP6VectorINS_3PtrIN14OpenJade_DSSSL14InheritedCInfoEEEEE"                     ; magicseg='DATA32' len=67
  "__ZTIN14OpenJade_DSSSL14ProcessContextE"                             ; magicseg='DATA32' len=39
  "__ZTIN6OpenSP6VectorIN14OpenJade_DSSSL14ProcessContext14NodeStackEntryEEE"               ; magicseg='DATA32' len=73
  "__ZTIN6OpenSP8NCVectorINS_6IQueueIN14OpenJade_DSSSL14SaveFOTBuilderEEEEE"                ; magicseg='DATA32' len=72
  "__ZTIN14OpenJade_DSSSL14ProcessContext10ConnectionE"                 ; magicseg='DATA32' len=51
  "__ZTIN14OpenJade_DSSSL14ProcessContext11ConnectableE"                ; magicseg='DATA32' len=52
  "__ZTIN6OpenSP8NCVectorIN14OpenJade_DSSSL14ProcessContext4PortEEE"    ; magicseg='DATA32' len=64
  "__ZTIN14OpenJade_DSSSL17PageTypeSosofoObjE"                          ; magicseg='DATA32' len=42
  "__ZTIN14OpenJade_DSSSL23DiscardLabeledSosofoObjE"                    ; magicseg='DATA32' len=48
  "__ZTIN14OpenJade_DSSSL19ContentMapSosofoObjE"                        ; magicseg='DATA32' len=44
  "__ZTIN14OpenJade_DSSSL14LabelSosofoObjE"                             ; magicseg='DATA32' len=39
  "__ZTIN6OpenSP5OwnerINS_8LocationEEE"                                 ; magicseg='DATA32' len=35
  "__ZTIN14OpenJade_DSSSL26SetNonInheritedCsSosofoObjE"                 ; magicseg='DATA32' len=51
  "__ZTVN14OpenJade_DSSSL28ProcessChildrenTrimSosofoObjE"               ; magicseg='DATA32' len=53
  "__ZTIN14OpenJade_DSSSL28ProcessChildrenTrimSosofoObjE"               ; magicseg='DATA32' len=53
  "__ZTVN14OpenJade_DSSSL19PageNumberSosofoObjE"                        ; magicseg='DATA32' len=44
  "__ZTIN14OpenJade_DSSSL19PageNumberSosofoObjE"                        ; magicseg='DATA32' len=44
  "__ZTVN14OpenJade_DSSSL30CurrentNodePageNumberSosofoObjE"             ; magicseg='DATA32' len=55
  "__ZTIN14OpenJade_DSSSL30CurrentNodePageNumberSosofoObjE"             ; magicseg='DATA32' len=55
  "__ZTVN14OpenJade_DSSSL16LiteralSosofoObjE"                           ; magicseg='DATA32' len=41
  "__ZTIN14OpenJade_DSSSL16LiteralSosofoObjE"                           ; magicseg='DATA32' len=41
  "__ZTIN14OpenJade_DSSSL24ProcessNodeListSosofoObjE"                   ; magicseg='DATA32' len=49
  "__ZTIN14OpenJade_DSSSL20ProcessNodeSosofoObjE"                       ; magicseg='DATA32' len=45
  "__ZTIN14OpenJade_DSSSL18NextMatchSosofoObjE"                         ; magicseg='DATA32' len=43
  "__ZTIN6OpenSP6VectorINS_3PtrIN14OpenJade_DSSSL14InheritedCInfoEEEEE"                     ; magicseg='DATA32' len=67
  "__ZTVN6OpenSP6VectorIN14OpenJade_DSSSL14ProcessingMode4RuleEEE"      ; magicseg='DATA32' len=62
  "__ZTVN14OpenJade_DSSSL14ProcessingMode4RuleE"                        ; magicseg='DATA32' len=44
  "__ZTVN14OpenJade_DSSSL14ProcessingMode11ElementRuleE"                ; magicseg='DATA32' len=52
  "__ZTVN6OpenSP6VectorIPKN14OpenJade_DSSSL14ProcessingMode11ElementRuleEEE"                ; magicseg='DATA32' len=72
  "__ZTVN14OpenJade_DSSSL14ProcessingMode12ElementRulesE"               ; magicseg='DATA32' len=53
  "__ZTIN6OpenSP6VectorIN14OpenJade_DSSSL14ProcessingMode4RuleEEE"      ; magicseg='DATA32' len=62
  "__ZTIN14OpenJade_DSSSL14ProcessingMode12ElementRulesE"               ; magicseg='DATA32' len=53
  "__ZTIN6OpenSP6VectorIPKN14OpenJade_DSSSL14ProcessingMode11ElementRuleEEE"                ; magicseg='DATA32' len=72
  "__ZTIN14OpenJade_DSSSL14ProcessingMode11ElementRuleE"                ; magicseg='DATA32' len=52
  "__ZTIN14OpenJade_DSSSL14ProcessingMode4RuleE"                        ; magicseg='DATA32' len=44
  "__ZTIN14OpenJade_DSSSL7PatternE"                                     ; magicseg='DATA32' len=31
  "__ZTVN6OpenSP8NCVectorIN14OpenJade_DSSSL7PatternEEE"                 ; magicseg='DATA32' len=51
  "__ZTIN6OpenSP8NCVectorIN14OpenJade_DSSSL7PatternEEE"                 ; magicseg='DATA32' len=51
  "__ZTVN14OpenJade_DSSSL11VarStyleObjE"                                ; magicseg='DATA32' len=36
  "__ZTVN14OpenJade_DSSSL18OverriddenStyleObjE"                         ; magicseg='DATA32' len=43
  "__ZTVN14OpenJade_DSSSL13MergeStyleObjE"                              ; magicseg='DATA32' len=38
  "__ZTVN14OpenJade_DSSSL17DeviceRGBColorObjE"                          ; magicseg='DATA32' len=42
  "__ZTVN14OpenJade_DSSSL19CIEXYZColorSpaceObjE"                        ; magicseg='DATA32' len=44
  "__ZTVN14OpenJade_DSSSL19CIELUVColorSpaceObjE"                        ; magicseg='DATA32' len=44
  "__ZTVN14OpenJade_DSSSL19CIELABColorSpaceObjE"                        ; magicseg='DATA32' len=44
  "__ZTVN14OpenJade_DSSSL19CIEABCColorSpaceObjE"                        ; magicseg='DATA32' len=44
  "__ZTVN14OpenJade_DSSSL17CIEAColorSpaceObjE"                          ; magicseg='DATA32' len=42
  "__ZTVN14OpenJade_DSSSL13VarInheritedCE"                              ; magicseg='DATA32' len=38
  "__ZTVN6OpenSP6VectorIPKN14OpenJade_DSSSL11VarStyleObjEEE"            ; magicseg='DATA32' len=56
  "__ZTVN6OpenSP6VectorIPKNS0_INS_8ConstPtrIN14OpenJade_DSSSL10InheritedCEEEEEEE"           ; magicseg='DATA32' len=77
  "__ZTIN14OpenJade_DSSSL17CIEAColorSpaceObjE"                          ; magicseg='DATA32' len=42
  "__ZTIN14OpenJade_DSSSL19CIEABCColorSpaceObjE"                        ; magicseg='DATA32' len=44
  "__ZTIN14OpenJade_DSSSL19CIELABColorSpaceObjE"                        ; magicseg='DATA32' len=44
  "__ZTIN14OpenJade_DSSSL19CIELUVColorSpaceObjE"                        ; magicseg='DATA32' len=44
  "__ZTIN14OpenJade_DSSSL19CIEXYZColorSpaceObjE"                        ; magicseg='DATA32' len=44
  "__ZTVN14OpenJade_DSSSL21DeviceKXColorSpaceObjE"                      ; magicseg='DATA32' len=46
  "__ZTIN14OpenJade_DSSSL21DeviceKXColorSpaceObjE"                      ; magicseg='DATA32' len=46
  "__ZTVN14OpenJade_DSSSL23DeviceCMYKColorSpaceObjE"                    ; magicseg='DATA32' len=48
  "__ZTIN14OpenJade_DSSSL23DeviceCMYKColorSpaceObjE"                    ; magicseg='DATA32' len=48
  "__ZTVN14OpenJade_DSSSL23DeviceGrayColorSpaceObjE"                    ; magicseg='DATA32' len=48
  "__ZTIN14OpenJade_DSSSL23DeviceGrayColorSpaceObjE"                    ; magicseg='DATA32' len=48
  "__ZTVN14OpenJade_DSSSL22DeviceRGBColorSpaceObjE"                     ; magicseg='DATA32' len=47
  "__ZTIN14OpenJade_DSSSL22DeviceRGBColorSpaceObjE"                     ; magicseg='DATA32' len=47
  "__ZTVN14OpenJade_DSSSL13ColorSpaceObjE"                              ; magicseg='DATA32' len=38
  "__ZTIN14OpenJade_DSSSL13ColorSpaceObjE"                              ; magicseg='DATA32' len=38
  "__ZTIN14OpenJade_DSSSL17DeviceRGBColorObjE"                          ; magicseg='DATA32' len=42
  "__ZTVN14OpenJade_DSSSL8ColorObjE"                                    ; magicseg='DATA32' len=32
  "__ZTIN14OpenJade_DSSSL8ColorObjE"                                    ; magicseg='DATA32' len=32
  "__ZTIN14OpenJade_DSSSL13MergeStyleObjE"                              ; magicseg='DATA32' len=38
  "__ZTIN14OpenJade_DSSSL18OverriddenStyleObjE"                         ; magicseg='DATA32' len=43
  "__ZTIN14OpenJade_DSSSL11VarStyleObjE"                                ; magicseg='DATA32' len=36
  "__ZTVN14OpenJade_DSSSL8StyleObjE"                                    ; magicseg='DATA32' len=32
  "__ZTIN14OpenJade_DSSSL8StyleObjE"                                    ; magicseg='DATA32' len=32
  "__ZTIN6OpenSP6VectorIPKNS0_INS_8ConstPtrIN14OpenJade_DSSSL10InheritedCEEEEEEE"           ; magicseg='DATA32' len=77
  "__ZTIN6OpenSP6VectorIPKN14OpenJade_DSSSL11VarStyleObjEEE"            ; magicseg='DATA32' len=56
  "__ZTIN14OpenJade_DSSSL13VarInheritedCE"                              ; magicseg='DATA32' len=38
  "__ZTIN14OpenJade_DSSSL13BasicStyleObjE"                              ; magicseg='DATA32' len=38
  "__ZTVN6OpenSP6VectorIPN14OpenJade_DSSSL21DssslSpecEventHandler4PartEEE"                  ; magicseg='DATA32' len=70
  "__ZTIN6OpenSP6VectorIPN14OpenJade_DSSSL21DssslSpecEventHandler4PartEEE"                  ; magicseg='DATA32' len=70
  "__ZTVN14OpenJade_DSSSL16ConsPrimitiveObjE"                           ; magicseg='DATA32' len=41
  "__ZTVN14OpenJade_DSSSL16ListPrimitiveObjE"                           ; magicseg='DATA32' len=41
  "__ZTVN14OpenJade_DSSSL18IsNullPrimitiveObjE"                         ; magicseg='DATA32' len=43
  "__ZTVN14OpenJade_DSSSL18IsListPrimitiveObjE"                         ; magicseg='DATA32' len=43
  "__ZTVN14OpenJade_DSSSL18IsPairPrimitiveObjE"                         ; magicseg='DATA32' len=43
  "__ZTVN14OpenJade_DSSSL19IsEqualPrimitiveObjE"                        ; magicseg='DATA32' len=44
  "__ZTVN14OpenJade_DSSSL15CarPrimitiveObjE"                            ; magicseg='DATA32' len=40
  "__ZTVN14OpenJade_DSSSL15CdrPrimitiveObjE"                            ; magicseg='DATA32' len=40
  "__ZTVN14OpenJade_DSSSL18LengthPrimitiveObjE"                         ; magicseg='DATA32' len=43
  "__ZTVN14OpenJade_DSSSL18AppendPrimitiveObjE"                         ; magicseg='DATA32' len=43
  "__ZTVN14OpenJade_DSSSL19ReversePrimitiveObjE"                        ; magicseg='DATA32' len=44
  "__ZTVN14OpenJade_DSSSL20ListTailPrimitiveObjE"                       ; magicseg='DATA32' len=45
  "__ZTVN14OpenJade_DSSSL19ListRefPrimitiveObjE"                        ; magicseg='DATA32' len=44
  "__ZTVN14OpenJade_DSSSL18MemberPrimitiveObjE"                         ; magicseg='DATA32' len=43
  "__ZTVN14OpenJade_DSSSL15NotPrimitiveObjE"                            ; magicseg='DATA32' len=40
  "__ZTVN14OpenJade_DSSSL20IsSymbolPrimitiveObjE"                       ; magicseg='DATA32' len=45
  "__ZTVN14OpenJade_DSSSL21IsKeywordPrimitiveObjE"                      ; magicseg='DATA32' len=46
  "__ZTVN14OpenJade_DSSSL21IsBooleanPrimitiveObjE"                      ; magicseg='DATA32' len=46
  "__ZTVN14OpenJade_DSSSL23IsProcedurePrimitiveObjE"                    ; magicseg='DATA32' len=48
  "__ZTVN14OpenJade_DSSSL20IsStringPrimitiveObjE"                       ; magicseg='DATA32' len=45
  "__ZTVN14OpenJade_DSSSL21IsIntegerPrimitiveObjE"                      ; magicseg='DATA32' len=46
  "__ZTVN14OpenJade_DSSSL18IsRealPrimitiveObjE"                         ; magicseg='DATA32' len=43
  "__ZTVN14OpenJade_DSSSL20IsNumberPrimitiveObjE"                       ; magicseg='DATA32' len=45
  "__ZTVN14OpenJade_DSSSL22IsQuantityPrimitiveObjE"                     ; magicseg='DATA32' len=47
  "__ZTVN14OpenJade_DSSSL18IsCharPrimitiveObjE"                         ; magicseg='DATA32' len=43
  "__ZTVN14OpenJade_DSSSL23IsCharEqualPrimitiveObjE"                    ; magicseg='DATA32' len=48
  "__ZTVN14OpenJade_DSSSL18StringPrimitiveObjE"                         ; magicseg='DATA32' len=43
  "__ZTVN14OpenJade_DSSSL26SymbolToStringPrimitiveObjE"                 ; magicseg='DATA32' len=51
  "__ZTVN14OpenJade_DSSSL26StringToSymbolPrimitiveObjE"                 ; magicseg='DATA32' len=51
  "__ZTVN14OpenJade_DSSSL24StringLengthPrimitiveObjE"                   ; magicseg='DATA32' len=49
  "__ZTVN14OpenJade_DSSSL25IsStringEqualPrimitiveObjE"                  ; magicseg='DATA32' len=50
  "__ZTVN14OpenJade_DSSSL24StringAppendPrimitiveObjE"                   ; magicseg='DATA32' len=49
  "__ZTVN14OpenJade_DSSSL21StringRefPrimitiveObjE"                      ; magicseg='DATA32' len=46
  "__ZTVN14OpenJade_DSSSL21SubstringPrimitiveObjE"                      ; magicseg='DATA32' len=46
  "__ZTVN14OpenJade_DSSSL17EqualPrimitiveObjE"                          ; magicseg='DATA32' len=42
  "__ZTVN14OpenJade_DSSSL16PlusPrimitiveObjE"                           ; magicseg='DATA32' len=41
  "__ZTVN14OpenJade_DSSSL17MinusPrimitiveObjE"                          ; magicseg='DATA32' len=42
  "__ZTVN14OpenJade_DSSSL20MultiplyPrimitiveObjE"                       ; magicseg='DATA32' len=45
  "__ZTVN14OpenJade_DSSSL18DividePrimitiveObjE"                         ; magicseg='DATA32' len=43
  "__ZTVN14OpenJade_DSSSL20QuotientPrimitiveObjE"                       ; magicseg='DATA32' len=45
  "__ZTVN14OpenJade_DSSSL21RemainderPrimitiveObjE"                      ; magicseg='DATA32' len=46
  "__ZTVN14OpenJade_DSSSL18ModuloPrimitiveObjE"                         ; magicseg='DATA32' len=43
  "__ZTVN14OpenJade_DSSSL16LessPrimitiveObjE"                           ; magicseg='DATA32' len=41
  "__ZTVN14OpenJade_DSSSL19GreaterPrimitiveObjE"                        ; magicseg='DATA32' len=44
  "__ZTVN14OpenJade_DSSSL21LessEqualPrimitiveObjE"                      ; magicseg='DATA32' len=46
  "__ZTVN14OpenJade_DSSSL24GreaterEqualPrimitiveObjE"                   ; magicseg='DATA32' len=49
  "__ZTVN14OpenJade_DSSSL15MinPrimitiveObjE"                            ; magicseg='DATA32' len=40
  "__ZTVN14OpenJade_DSSSL15MaxPrimitiveObjE"                            ; magicseg='DATA32' len=40
  "__ZTVN14OpenJade_DSSSL17FloorPrimitiveObjE"                          ; magicseg='DATA32' len=42
  "__ZTVN14OpenJade_DSSSL19CeilingPrimitiveObjE"                        ; magicseg='DATA32' len=44
  "__ZTVN14OpenJade_DSSSL20TruncatePrimitiveObjE"                       ; magicseg='DATA32' len=45
  "__ZTVN14OpenJade_DSSSL17RoundPrimitiveObjE"                          ; magicseg='DATA32' len=42
  "__ZTVN14OpenJade_DSSSL15AbsPrimitiveObjE"                            ; magicseg='DATA32' len=40
  "__ZTVN14OpenJade_DSSSL16SqrtPrimitiveObjE"                           ; magicseg='DATA32' len=41
  "__ZTVN14OpenJade_DSSSL16TimePrimitiveObjE"                           ; magicseg='DATA32' len=41
  "__ZTVN14OpenJade_DSSSL24TimeToStringPrimitiveObjE"                   ; magicseg='DATA32' len=49
  "__ZTVN14OpenJade_DSSSL24CharPropertyPrimitiveObjE"                   ; magicseg='DATA32' len=49
  "__ZTVN14OpenJade_DSSSL19LiteralPrimitiveObjE"                        ; magicseg='DATA32' len=44
  "__ZTVN14OpenJade_DSSSL27ProcessChildrenPrimitiveObjE"                ; magicseg='DATA32' len=52
  "__ZTVN14OpenJade_DSSSL31ProcessChildrenTrimPrimitiveObjE"            ; magicseg='DATA32' len=56
  "__ZTVN14OpenJade_DSSSL24SosofoAppendPrimitiveObjE"                   ; magicseg='DATA32' len=49
  "__ZTVN14OpenJade_DSSSL21NextMatchPrimitiveObjE"                      ; magicseg='DATA32' len=46
  "__ZTVN14OpenJade_DSSSL23EmptySosofoPrimitiveObjE"                    ; magicseg='DATA32' len=48
  "__ZTVN14OpenJade_DSSSL23SosofoLabelPrimitiveObjE"                    ; magicseg='DATA32' len=48
  "__ZTVN14OpenJade_DSSSL32SosofoDiscardLabeledPrimitiveObjE"           ; magicseg='DATA32' len=57
  "__ZTVN14OpenJade_DSSSL20IsSosofoPrimitiveObjE"                       ; magicseg='DATA32' len=45
  "__ZTVN14OpenJade_DSSSL19IsStylePrimitiveObjE"                        ; magicseg='DATA32' len=44
  "__ZTVN14OpenJade_DSSSL22MergeStylePrimitiveObjE"                     ; magicseg='DATA32' len=47
  "__ZTVN14OpenJade_DSSSL32ProcessElementWithIdPrimitiveObjE"           ; magicseg='DATA32' len=57
  "__ZTVN14OpenJade_DSSSL34ProcessFirstDescendantPrimitiveObjE"         ; magicseg='DATA32' len=59
  "__ZTVN14OpenJade_DSSSL35ProcessMatchingChildrenPrimitiveObjE"        ; magicseg='DATA32' len=60
  "__ZTVN14OpenJade_DSSSL27ProcessNodeListPrimitiveObjE"                ; magicseg='DATA32' len=52
  "__ZTVN14OpenJade_DSSSL39CurrentNodePageNumberSosofoPrimitiveObjE"    ; magicseg='DATA32' len=64
  "__ZTVN14OpenJade_DSSSL28PageNumberSosofoPrimitiveObjE"               ; magicseg='DATA32' len=53
  "__ZTVN14OpenJade_DSSSL24FormatNumberPrimitiveObjE"                   ; magicseg='DATA32' len=49
  "__ZTVN14OpenJade_DSSSL28FormatNumberListPrimitiveObjE"               ; magicseg='DATA32' len=53
  "__ZTVN14OpenJade_DSSSL17ErrorPrimitiveObjE"                          ; magicseg='DATA32' len=42
  "__ZTVN14OpenJade_DSSSL29ExternalProcedurePrimitiveObjE"              ; magicseg='DATA32' len=54
  "__ZTVN14OpenJade_DSSSL26StringToNumberPrimitiveObjE"                 ; magicseg='DATA32' len=51
  "__ZTVN14OpenJade_DSSSL26NumberToStringPrimitiveObjE"                 ; magicseg='DATA32' len=51
  "__ZTVN14OpenJade_DSSSL23DisplaySizePrimitiveObjE"                    ; magicseg='DATA32' len=48
  "__ZTVN14OpenJade_DSSSL21TableUnitPrimitiveObjE"                      ; magicseg='DATA32' len=46
  "__ZTVN14OpenJade_DSSSL26IsDisplaySpacePrimitiveObjE"                 ; magicseg='DATA32' len=51
  "__ZTVN14OpenJade_DSSSL24DisplaySpacePrimitiveObjE"                   ; magicseg='DATA32' len=49
  "__ZTVN14OpenJade_DSSSL25IsInlineSpacePrimitiveObjE"                  ; magicseg='DATA32' len=50
  "__ZTVN14OpenJade_DSSSL23InlineSpacePrimitiveObjE"                    ; magicseg='DATA32' len=48
  "__ZTVN14OpenJade_DSSSL19IsColorPrimitiveObjE"                        ; magicseg='DATA32' len=44
  "__ZTVN14OpenJade_DSSSL24IsColorSpacePrimitiveObjE"                   ; magicseg='DATA32' len=49
  "__ZTVN14OpenJade_DSSSL17ColorPrimitiveObjE"                          ; magicseg='DATA32' len=42
  "__ZTVN14OpenJade_DSSSL22ColorSpacePrimitiveObjE"                     ; magicseg='DATA32' len=47
  "__ZTVN14OpenJade_DSSSL21IsAddressPrimitiveObjE"                      ; magicseg='DATA32' len=46
  "__ZTVN14OpenJade_DSSSL26IsAddressLocalPrimitiveObjE"                 ; magicseg='DATA32' len=51
  "__ZTVN14OpenJade_DSSSL28IsAddressVisitedPrimitiveObjE"               ; magicseg='DATA32' len=53
  "__ZTVN14OpenJade_DSSSL30CurrentNodeAddressPrimitiveObjE"             ; magicseg='DATA32' len=55
  "__ZTVN14OpenJade_DSSSL24IdrefAddressPrimitiveObjE"                   ; magicseg='DATA32' len=49
  "__ZTVN14OpenJade_DSSSL25EntityAddressPrimitiveObjE"                  ; magicseg='DATA32' len=50
  "__ZTVN14OpenJade_DSSSL31SgmlDocumentAddressPrimitiveObjE"            ; magicseg='DATA32' len=56
  "__ZTVN14OpenJade_DSSSL27NodeListAddressPrimitiveObjE"                ; magicseg='DATA32' len=52
  "__ZTVN14OpenJade_DSSSL25HytimeLinkendPrimitiveObjE"                  ; magicseg='DATA32' len=50
  "__ZTVN14OpenJade_DSSSL26CharScriptCasePrimitiveObjE"                 ; magicseg='DATA32' len=51
  "__ZTVN14OpenJade_DSSSL21IsGlyphIdPrimitiveObjE"                      ; magicseg='DATA32' len=46
  "__ZTVN14OpenJade_DSSSL19GlyphIdPrimitiveObjE"                        ; magicseg='DATA32' len=44
  "__ZTVN14OpenJade_DSSSL29IsGlyphSubstTablePrimitiveObjE"              ; magicseg='DATA32' len=54
  "__ZTVN14OpenJade_DSSSL27GlyphSubstTablePrimitiveObjE"                ; magicseg='DATA32' len=52
  "__ZTVN14OpenJade_DSSSL22GlyphSubstPrimitiveObjE"                     ; magicseg='DATA32' len=47
  "__ZTVN14OpenJade_DSSSL23CurrentNodePrimitiveObjE"                    ; magicseg='DATA32' len=48
  "__ZTVN14OpenJade_DSSSL27IsNodeListEmptyPrimitiveObjE"                ; magicseg='DATA32' len=52
  "__ZTVN14OpenJade_DSSSL22IsNodeListPrimitiveObjE"                     ; magicseg='DATA32' len=47
  "__ZTVN14OpenJade_DSSSL25NodeListErrorPrimitiveObjE"                  ; magicseg='DATA32' len=50
  "__ZTVN14OpenJade_DSSSL14GiPrimitiveObjE"                             ; magicseg='DATA32' len=39
  "__ZTVN14OpenJade_DSSSL24FirstChildGiPrimitiveObjE"                   ; magicseg='DATA32' len=49
  "__ZTVN14OpenJade_DSSSL14IdPrimitiveObjE"                             ; magicseg='DATA32' len=39
  "__ZTVN14OpenJade_DSSSL18ParentPrimitiveObjE"                         ; magicseg='DATA32' len=43
  "__ZTVN14OpenJade_DSSSL20AncestorPrimitiveObjE"                       ; magicseg='DATA32' len=45
  "__ZTVN14OpenJade_DSSSL27AttributeStringPrimitiveObjE"                ; magicseg='DATA32' len=52
  "__ZTVN14OpenJade_DSSSL36InheritedAttributeStringPrimitiveObjE"       ; magicseg='DATA32' len=61
  "__ZTVN14OpenJade_DSSSL43InheritedElementAttributeStringPrimitiveObjE"                    ; magicseg='DATA32' len=68
  "__ZTVN14OpenJade_DSSSL26IsFirstSiblingPrimitiveObjE"                 ; magicseg='DATA32' len=51
  "__ZTVN14OpenJade_DSSSL34IsAbsoluteFirstSiblingPrimitiveObjE"         ; magicseg='DATA32' len=59
  "__ZTVN14OpenJade_DSSSL25IsLastSiblingPrimitiveObjE"                  ; magicseg='DATA32' len=50
  "__ZTVN14OpenJade_DSSSL33IsAbsoluteLastSiblingPrimitiveObjE"          ; magicseg='DATA32' len=58
  "__ZTVN14OpenJade_DSSSL26IsHaveAncestorPrimitiveObjE"                 ; magicseg='DATA32' len=51
  "__ZTVN14OpenJade_DSSSL23ChildNumberPrimitiveObjE"                    ; magicseg='DATA32' len=48
  "__ZTVN14OpenJade_DSSSL31AncestorChildNumberPrimitiveObjE"            ; magicseg='DATA32' len=56
  "__ZTVN14OpenJade_DSSSL30HierarchicalNumberPrimitiveObjE"             ; magicseg='DATA32' len=55
  "__ZTVN14OpenJade_DSSSL39HierarchicalNumberRecursivePrimitiveObjE"    ; magicseg='DATA32' len=64
  "__ZTVN14OpenJade_DSSSL25ElementNumberPrimitiveObjE"                  ; magicseg='DATA32' len=50
  "__ZTVN14OpenJade_DSSSL29ElementNumberListPrimitiveObjE"              ; magicseg='DATA32' len=54
  "__ZTVN14OpenJade_DSSSL26EntitySystemIdPrimitiveObjE"                 ; magicseg='DATA32' len=51
  "__ZTVN14OpenJade_DSSSL26EntityPublicIdPrimitiveObjE"                 ; magicseg='DATA32' len=51
  "__ZTVN14OpenJade_DSSSL35EntityGeneratedSystemIdPrimitiveObjE"        ; magicseg='DATA32' len=60
  "__ZTVN14OpenJade_DSSSL22EntityTextPrimitiveObjE"                     ; magicseg='DATA32' len=47
  "__ZTVN14OpenJade_DSSSL26EntityNotationPrimitiveObjE"                 ; magicseg='DATA32' len=51
  "__ZTVN14OpenJade_DSSSL22EntityTypePrimitiveObjE"                     ; magicseg='DATA32' len=47
  "__ZTVN14OpenJade_DSSSL33EntityAttributeStringPrimitiveObjE"          ; magicseg='DATA32' len=58
  "__ZTVN14OpenJade_DSSSL28NotationSystemIdPrimitiveObjE"               ; magicseg='DATA32' len=53
  "__ZTVN14OpenJade_DSSSL28NotationPublicIdPrimitiveObjE"               ; magicseg='DATA32' len=53
  "__ZTVN14OpenJade_DSSSL37NotationGeneratedSystemIdPrimitiveObjE"      ; magicseg='DATA32' len=62
  "__ZTVN14OpenJade_DSSSL32GeneralNameNormalizePrimitiveObjE"           ; magicseg='DATA32' len=57
  "__ZTVN14OpenJade_DSSSL31EntityNameNormalizePrimitiveObjE"            ; magicseg='DATA32' len=56
  "__ZTVN14OpenJade_DSSSL25NodeListFirstPrimitiveObjE"                  ; magicseg='DATA32' len=50
  "__ZTVN14OpenJade_DSSSL24NodeListRestPrimitiveObjE"                   ; magicseg='DATA32' len=49
  "__ZTVN14OpenJade_DSSSL20NodeListPrimitiveObjE"                       ; magicseg='DATA32' len=45
  "__ZTVN14OpenJade_DSSSL20ChildrenPrimitiveObjE"                       ; magicseg='DATA32' len=45
  "__ZTVN14OpenJade_DSSSL18FollowPrimitiveObjE"                         ; magicseg='DATA32' len=43
  "__ZTVN14OpenJade_DSSSL18PrecedPrimitiveObjE"                         ; magicseg='DATA32' len=43
  "__ZTVN14OpenJade_DSSSL23DescendantsPrimitiveObjE"                    ; magicseg='DATA32' len=48
  "__ZTVN14OpenJade_DSSSL22AttributesPrimitiveObjE"                     ; magicseg='DATA32' len=47
  "__ZTVN14OpenJade_DSSSL27NodeListNoOrderPrimitiveObjE"                ; magicseg='DATA32' len=52
  "__ZTVN14OpenJade_DSSSL27IsNodeListEqualPrimitiveObjE"                ; magicseg='DATA32' len=52
  "__ZTVN14OpenJade_DSSSL27IsNamedNodeListPrimitiveObjE"                ; magicseg='DATA32' len=52
  "__ZTVN14OpenJade_DSSSL21NamedNodePrimitiveObjE"                      ; magicseg='DATA32' len=46
  "__ZTVN14OpenJade_DSSSL30NamedNodeListNamesPrimitiveObjE"             ; magicseg='DATA32' len=55
  "__ZTVN14OpenJade_DSSSL34NamedNodeListNormalizePrimitiveObjE"         ; magicseg='DATA32' len=59
  "__ZTVN14OpenJade_DSSSL26SelectElementsPrimitiveObjE"                 ; magicseg='DATA32' len=51
  "__ZTVN14OpenJade_DSSSL16DataPrimitiveObjE"                           ; magicseg='DATA32' len=41
  "__ZTVN14OpenJade_DSSSL25ElementWithIdPrimitiveObjE"                  ; magicseg='DATA32' len=50
  "__ZTVN14OpenJade_DSSSL25EmptyNodeListPrimitiveObjE"                  ; magicseg='DATA32' len=50
  "__ZTVN14OpenJade_DSSSL24NodePropertyPrimitiveObjE"                   ; magicseg='DATA32' len=49
  "__ZTVN14OpenJade_DSSSL25SelectByClassPrimitiveObjE"                  ; magicseg='DATA32' len=50
  "__ZTVN14OpenJade_DSSSL23NodeListMapPrimitiveObjE"                    ; magicseg='DATA32' len=48
  "__ZTVN14OpenJade_DSSSL23NodeListRefPrimitiveObjE"                    ; magicseg='DATA32' len=48
  "__ZTVN14OpenJade_DSSSL27NodeListReversePrimitiveObjE"                ; magicseg='DATA32' len=52
  "__ZTVN14OpenJade_DSSSL26NodeListLengthPrimitiveObjE"                 ; magicseg='DATA32' len=51
  "__ZTVN14OpenJade_DSSSL21SgmlParsePrimitiveObjE"                      ; magicseg='DATA32' len=46
  "__ZTVN14OpenJade_DSSSL26IsMatchElementPrimitiveObjE"                 ; magicseg='DATA32' len=51
  "__ZTVN14OpenJade_DSSSL22ReadEntityPrimitiveObjE"                     ; magicseg='DATA32' len=47
  "__ZTVN14OpenJade_DSSSL17DebugPrimitiveObjE"                          ; magicseg='DATA32' len=42
  "__ZTVN14OpenJade_DSSSL23IfFirstPagePrimitiveObjE"                    ; magicseg='DATA32' len=48
  "__ZTVN14OpenJade_DSSSL23IfFrontPagePrimitiveObjE"                    ; magicseg='DATA32' len=48
  "__ZTVN14OpenJade_DSSSL28AllElementNumberPrimitiveObjE"               ; magicseg='DATA32' len=53
  "__ZTVN14OpenJade_DSSSL20IsVectorPrimitiveObjE"                       ; magicseg='DATA32' len=45
  "__ZTVN14OpenJade_DSSSL18VectorPrimitiveObjE"                         ; magicseg='DATA32' len=43
  "__ZTVN14OpenJade_DSSSL21VectorRefPrimitiveObjE"                      ; magicseg='DATA32' len=46
  "__ZTVN14OpenJade_DSSSL21VectorSetPrimitiveObjE"                      ; magicseg='DATA32' len=46
  "__ZTVN14OpenJade_DSSSL22MakeVectorPrimitiveObjE"                     ; magicseg='DATA32' len=47
  "__ZTVN14OpenJade_DSSSL24VectorToListPrimitiveObjE"                   ; magicseg='DATA32' len=49
  "__ZTVN14OpenJade_DSSSL24ListToVectorPrimitiveObjE"                   ; magicseg='DATA32' len=49
  "__ZTVN14OpenJade_DSSSL22VectorFillPrimitiveObjE"                     ; magicseg='DATA32' len=47
  "__ZTVN14OpenJade_DSSSL17IsEqvPrimitiveObjE"                          ; magicseg='DATA32' len=42
  "__ZTVN14OpenJade_DSSSL16MemvPrimitiveObjE"                           ; magicseg='DATA32' len=41
  "__ZTVN14OpenJade_DSSSL28QuantityToStringPrimitiveObjE"               ; magicseg='DATA32' len=53
  "__ZTVN14OpenJade_DSSSL17AssocPrimitiveObjE"                          ; magicseg='DATA32' len=42
  "__ZTVN14OpenJade_DSSSL27KeywordToStringPrimitiveObjE"                ; magicseg='DATA32' len=52
  "__ZTVN14OpenJade_DSSSL27StringToKeywordPrimitiveObjE"                ; magicseg='DATA32' len=52
  "__ZTVN14OpenJade_DSSSL19IsExactPrimitiveObjE"                        ; magicseg='DATA32' len=44
  "__ZTVN14OpenJade_DSSSL21IsInexactPrimitiveObjE"                      ; magicseg='DATA32' len=46
  "__ZTVN14OpenJade_DSSSL18IsZeroPrimitiveObjE"                         ; magicseg='DATA32' len=43
  "__ZTVN14OpenJade_DSSSL22IsPositivePrimitiveObjE"                     ; magicseg='DATA32' len=47
  "__ZTVN14OpenJade_DSSSL22IsNegativePrimitiveObjE"                     ; magicseg='DATA32' len=47
  "__ZTVN14OpenJade_DSSSL17IsOddPrimitiveObjE"                          ; magicseg='DATA32' len=42
  "__ZTVN14OpenJade_DSSSL18IsEvenPrimitiveObjE"                         ; magicseg='DATA32' len=43
  "__ZTVN14OpenJade_DSSSL15ExpPrimitiveObjE"                            ; magicseg='DATA32' len=40
  "__ZTVN14OpenJade_DSSSL15LogPrimitiveObjE"                            ; magicseg='DATA32' len=40
  "__ZTVN14OpenJade_DSSSL15SinPrimitiveObjE"                            ; magicseg='DATA32' len=40
  "__ZTVN14OpenJade_DSSSL15CosPrimitiveObjE"                            ; magicseg='DATA32' len=40
  "__ZTVN14OpenJade_DSSSL15TanPrimitiveObjE"                            ; magicseg='DATA32' len=40
  "__ZTVN14OpenJade_DSSSL16AsinPrimitiveObjE"                           ; magicseg='DATA32' len=41
  "__ZTVN14OpenJade_DSSSL16AcosPrimitiveObjE"                           ; magicseg='DATA32' len=41
  "__ZTVN14OpenJade_DSSSL16AtanPrimitiveObjE"                           ; magicseg='DATA32' len=41
  "__ZTVN14OpenJade_DSSSL16ExptPrimitiveObjE"                           ; magicseg='DATA32' len=41
  "__ZTVN14OpenJade_DSSSL26ExactToInexactPrimitiveObjE"                 ; magicseg='DATA32' len=51
  "__ZTVN14OpenJade_DSSSL26InexactToExactPrimitiveObjE"                 ; magicseg='DATA32' len=51
  "__ZTVN14OpenJade_DSSSL28QuantityToNumberPrimitiveObjE"               ; magicseg='DATA32' len=53
  "__ZTVN14OpenJade_DSSSL24StringToListPrimitiveObjE"                   ; magicseg='DATA32' len=49
  "__ZTVN14OpenJade_DSSSL24ListToStringPrimitiveObjE"                   ; magicseg='DATA32' len=49
  "__ZTVN14OpenJade_DSSSL20TimeLessPrimitiveObjE"                       ; magicseg='DATA32' len=45
  "__ZTVN14OpenJade_DSSSL23TimeGreaterPrimitiveObjE"                    ; magicseg='DATA32' len=48
  "__ZTVN14OpenJade_DSSSL27TimeLessOrEqualPrimitiveObjE"                ; magicseg='DATA32' len=52
  "__ZTVN14OpenJade_DSSSL30TimeGreaterOrEqualPrimitiveObjE"             ; magicseg='DATA32' len=55
  "__ZTVN14OpenJade_DSSSL22IsLanguagePrimitiveObjE"                     ; magicseg='DATA32' len=47
  "__ZTVN14OpenJade_DSSSL27CurrentLanguagePrimitiveObjE"                ; magicseg='DATA32' len=52
  "__ZTVN14OpenJade_DSSSL24WithLanguagePrimitiveObjE"                   ; magicseg='DATA32' len=49
  "__ZTVN14OpenJade_DSSSL20CharLessPrimitiveObjE"                       ; magicseg='DATA32' len=45
  "__ZTVN14OpenJade_DSSSL27CharLessOrEqualPrimitiveObjE"                ; magicseg='DATA32' len=52
  "__ZTVN14OpenJade_DSSSL22CharUpcasePrimitiveObjE"                     ; magicseg='DATA32' len=47
  "__ZTVN14OpenJade_DSSSL24CharDowncasePrimitiveObjE"                   ; magicseg='DATA32' len=49
  "__ZTVN14OpenJade_DSSSL23StringEquivPrimitiveObjE"                    ; magicseg='DATA32' len=48
  "__ZTVN14OpenJade_DSSSL22StringLessPrimitiveObjE"                     ; magicseg='DATA32' len=47
  "__ZTVN14OpenJade_DSSSL29StringLessOrEqualPrimitiveObjE"              ; magicseg='DATA32' len=54
  "__ZTVN14OpenJade_DSSSL26MapConstructorPrimitiveObjE"                 ; magicseg='DATA32' len=51
  "__ZTVN14OpenJade_DSSSL20LanguagePrimitiveObjE"                       ; magicseg='DATA32' len=45
  "__ZTVN14OpenJade_DSSSL22XSgmlParsePrimitiveObjE"                     ; magicseg='DATA32' len=47
  "__ZTVN14OpenJade_DSSSL17XExptPrimitiveObjE"                          ; magicseg='DATA32' len=42
  "__ZTVN14OpenJade_DSSSL22DescendantsNodeListObjE"                     ; magicseg='DATA32' len=47
  "__ZTVN14OpenJade_DSSSL24SelectByClassNodeListObjE"                   ; magicseg='DATA32' len=49
  "__ZTVN14OpenJade_DSSSL14MapNodeListObjE"                             ; magicseg='DATA32' len=39
  "__ZTVN14OpenJade_DSSSL25SelectElementsNodeListObjE"                  ; magicseg='DATA32' len=50
  "__ZTVN14OpenJade_DSSSL25SelectElementsNodeListObj10PatternSetE"      ; magicseg='DATA32' len=62
  "__ZTVN14OpenJade_DSSSL18SiblingNodeListObjE"                         ; magicseg='DATA32' len=43
  "__ZTVN6OpenSP13HashTableItemINS_6StringIjEEPN14OpenJade_DSSSL11FunctionObjEEE"           ; magicseg='DATA32' len=77
  "__ZTIN6OpenSP13HashTableItemINS_6StringIjEEPN14OpenJade_DSSSL11FunctionObjEEE"           ; magicseg='DATA32' len=77
  "__ZTIN14OpenJade_DSSSL17XExptPrimitiveObjE"                          ; magicseg='DATA32' len=42
  "__ZTIN14OpenJade_DSSSL22XSgmlParsePrimitiveObjE"                     ; magicseg='DATA32' len=47
  "__ZTIN14OpenJade_DSSSL20LanguagePrimitiveObjE"                       ; magicseg='DATA32' len=45
  "__ZTIN14OpenJade_DSSSL26MapConstructorPrimitiveObjE"                 ; magicseg='DATA32' len=51
  "__ZTIN14OpenJade_DSSSL29StringLessOrEqualPrimitiveObjE"              ; magicseg='DATA32' len=54
  "__ZTIN14OpenJade_DSSSL22StringLessPrimitiveObjE"                     ; magicseg='DATA32' len=47
  "__ZTIN14OpenJade_DSSSL23StringEquivPrimitiveObjE"                    ; magicseg='DATA32' len=48
  "__ZTIN14OpenJade_DSSSL24CharDowncasePrimitiveObjE"                   ; magicseg='DATA32' len=49
  "__ZTIN14OpenJade_DSSSL22CharUpcasePrimitiveObjE"                     ; magicseg='DATA32' len=47
  "__ZTIN14OpenJade_DSSSL27CharLessOrEqualPrimitiveObjE"                ; magicseg='DATA32' len=52
  "__ZTIN14OpenJade_DSSSL20CharLessPrimitiveObjE"                       ; magicseg='DATA32' len=45
  "__ZTIN14OpenJade_DSSSL24WithLanguagePrimitiveObjE"                   ; magicseg='DATA32' len=49
  "__ZTIN14OpenJade_DSSSL27CurrentLanguagePrimitiveObjE"                ; magicseg='DATA32' len=52
  "__ZTIN14OpenJade_DSSSL22IsLanguagePrimitiveObjE"                     ; magicseg='DATA32' len=47
  "__ZTIN14OpenJade_DSSSL30TimeGreaterOrEqualPrimitiveObjE"             ; magicseg='DATA32' len=55
  "__ZTIN14OpenJade_DSSSL27TimeLessOrEqualPrimitiveObjE"                ; magicseg='DATA32' len=52
  "__ZTIN14OpenJade_DSSSL23TimeGreaterPrimitiveObjE"                    ; magicseg='DATA32' len=48
  "__ZTIN14OpenJade_DSSSL20TimeLessPrimitiveObjE"                       ; magicseg='DATA32' len=45
  "__ZTIN14OpenJade_DSSSL24ListToStringPrimitiveObjE"                   ; magicseg='DATA32' len=49
  "__ZTIN14OpenJade_DSSSL24StringToListPrimitiveObjE"                   ; magicseg='DATA32' len=49
  "__ZTIN14OpenJade_DSSSL28QuantityToNumberPrimitiveObjE"               ; magicseg='DATA32' len=53
  "__ZTIN14OpenJade_DSSSL26InexactToExactPrimitiveObjE"                 ; magicseg='DATA32' len=51
  "__ZTIN14OpenJade_DSSSL26ExactToInexactPrimitiveObjE"                 ; magicseg='DATA32' len=51
  "__ZTIN14OpenJade_DSSSL16ExptPrimitiveObjE"                           ; magicseg='DATA32' len=41
  "__ZTIN14OpenJade_DSSSL16AtanPrimitiveObjE"                           ; magicseg='DATA32' len=41
  "__ZTIN14OpenJade_DSSSL16AcosPrimitiveObjE"                           ; magicseg='DATA32' len=41
  "__ZTIN14OpenJade_DSSSL16AsinPrimitiveObjE"                           ; magicseg='DATA32' len=41
  "__ZTIN14OpenJade_DSSSL15TanPrimitiveObjE"                            ; magicseg='DATA32' len=40
  "__ZTIN14OpenJade_DSSSL15CosPrimitiveObjE"                            ; magicseg='DATA32' len=40
  "__ZTIN14OpenJade_DSSSL15SinPrimitiveObjE"                            ; magicseg='DATA32' len=40
  "__ZTIN14OpenJade_DSSSL15LogPrimitiveObjE"                            ; magicseg='DATA32' len=40
  "__ZTIN14OpenJade_DSSSL15ExpPrimitiveObjE"                            ; magicseg='DATA32' len=40
  "__ZTIN14OpenJade_DSSSL18IsEvenPrimitiveObjE"                         ; magicseg='DATA32' len=43
  "__ZTIN14OpenJade_DSSSL17IsOddPrimitiveObjE"                          ; magicseg='DATA32' len=42
  "__ZTIN14OpenJade_DSSSL22IsNegativePrimitiveObjE"                     ; magicseg='DATA32' len=47
  "__ZTIN14OpenJade_DSSSL22IsPositivePrimitiveObjE"                     ; magicseg='DATA32' len=47
  "__ZTIN14OpenJade_DSSSL18IsZeroPrimitiveObjE"                         ; magicseg='DATA32' len=43
  "__ZTIN14OpenJade_DSSSL21IsInexactPrimitiveObjE"                      ; magicseg='DATA32' len=46
  "__ZTIN14OpenJade_DSSSL19IsExactPrimitiveObjE"                        ; magicseg='DATA32' len=44
  "__ZTIN14OpenJade_DSSSL27StringToKeywordPrimitiveObjE"                ; magicseg='DATA32' len=52
  "__ZTIN14OpenJade_DSSSL27KeywordToStringPrimitiveObjE"                ; magicseg='DATA32' len=52
  "__ZTIN14OpenJade_DSSSL17AssocPrimitiveObjE"                          ; magicseg='DATA32' len=42
  "__ZTIN14OpenJade_DSSSL28QuantityToStringPrimitiveObjE"               ; magicseg='DATA32' len=53
  "__ZTIN14OpenJade_DSSSL16MemvPrimitiveObjE"                           ; magicseg='DATA32' len=41
  "__ZTIN14OpenJade_DSSSL17IsEqvPrimitiveObjE"                          ; magicseg='DATA32' len=42
  "__ZTIN14OpenJade_DSSSL22VectorFillPrimitiveObjE"                     ; magicseg='DATA32' len=47
  "__ZTIN14OpenJade_DSSSL24ListToVectorPrimitiveObjE"                   ; magicseg='DATA32' len=49
  "__ZTIN14OpenJade_DSSSL24VectorToListPrimitiveObjE"                   ; magicseg='DATA32' len=49
  "__ZTIN14OpenJade_DSSSL22MakeVectorPrimitiveObjE"                     ; magicseg='DATA32' len=47
  "__ZTIN14OpenJade_DSSSL21VectorSetPrimitiveObjE"                      ; magicseg='DATA32' len=46
  "__ZTIN14OpenJade_DSSSL21VectorRefPrimitiveObjE"                      ; magicseg='DATA32' len=46
  "__ZTIN14OpenJade_DSSSL18VectorPrimitiveObjE"                         ; magicseg='DATA32' len=43
  "__ZTIN14OpenJade_DSSSL20IsVectorPrimitiveObjE"                       ; magicseg='DATA32' len=45
  "__ZTIN14OpenJade_DSSSL28AllElementNumberPrimitiveObjE"               ; magicseg='DATA32' len=53
  "__ZTIN14OpenJade_DSSSL23IfFrontPagePrimitiveObjE"                    ; magicseg='DATA32' len=48
  "__ZTIN14OpenJade_DSSSL23IfFirstPagePrimitiveObjE"                    ; magicseg='DATA32' len=48
  "__ZTIN14OpenJade_DSSSL17DebugPrimitiveObjE"                          ; magicseg='DATA32' len=42
  "__ZTIN14OpenJade_DSSSL22ReadEntityPrimitiveObjE"                     ; magicseg='DATA32' len=47
  "__ZTIN14OpenJade_DSSSL26IsMatchElementPrimitiveObjE"                 ; magicseg='DATA32' len=51
  "__ZTIN14OpenJade_DSSSL21SgmlParsePrimitiveObjE"                      ; magicseg='DATA32' len=46
  "__ZTIN14OpenJade_DSSSL26NodeListLengthPrimitiveObjE"                 ; magicseg='DATA32' len=51
  "__ZTIN14OpenJade_DSSSL27NodeListReversePrimitiveObjE"                ; magicseg='DATA32' len=52
  "__ZTIN14OpenJade_DSSSL23NodeListRefPrimitiveObjE"                    ; magicseg='DATA32' len=48
  "__ZTIN14OpenJade_DSSSL23NodeListMapPrimitiveObjE"                    ; magicseg='DATA32' len=48
  "__ZTIN14OpenJade_DSSSL25SelectByClassPrimitiveObjE"                  ; magicseg='DATA32' len=50
  "__ZTIN14OpenJade_DSSSL24NodePropertyPrimitiveObjE"                   ; magicseg='DATA32' len=49
  "__ZTIN14OpenJade_DSSSL25EmptyNodeListPrimitiveObjE"                  ; magicseg='DATA32' len=50
  "__ZTIN14OpenJade_DSSSL25ElementWithIdPrimitiveObjE"                  ; magicseg='DATA32' len=50
  "__ZTIN14OpenJade_DSSSL16DataPrimitiveObjE"                           ; magicseg='DATA32' len=41
  "__ZTIN14OpenJade_DSSSL26SelectElementsPrimitiveObjE"                 ; magicseg='DATA32' len=51
  "__ZTIN14OpenJade_DSSSL34NamedNodeListNormalizePrimitiveObjE"         ; magicseg='DATA32' len=59
  "__ZTIN14OpenJade_DSSSL30NamedNodeListNamesPrimitiveObjE"             ; magicseg='DATA32' len=55
  "__ZTIN14OpenJade_DSSSL21NamedNodePrimitiveObjE"                      ; magicseg='DATA32' len=46
  "__ZTIN14OpenJade_DSSSL27IsNamedNodeListPrimitiveObjE"                ; magicseg='DATA32' len=52
  "__ZTIN14OpenJade_DSSSL27IsNodeListEqualPrimitiveObjE"                ; magicseg='DATA32' len=52
  "__ZTIN14OpenJade_DSSSL27NodeListNoOrderPrimitiveObjE"                ; magicseg='DATA32' len=52
  "__ZTIN14OpenJade_DSSSL22AttributesPrimitiveObjE"                     ; magicseg='DATA32' len=47
  "__ZTIN14OpenJade_DSSSL23DescendantsPrimitiveObjE"                    ; magicseg='DATA32' len=48
  "__ZTIN14OpenJade_DSSSL18PrecedPrimitiveObjE"                         ; magicseg='DATA32' len=43
  "__ZTIN14OpenJade_DSSSL18FollowPrimitiveObjE"                         ; magicseg='DATA32' len=43
  "__ZTIN14OpenJade_DSSSL20ChildrenPrimitiveObjE"                       ; magicseg='DATA32' len=45
  "__ZTIN14OpenJade_DSSSL20NodeListPrimitiveObjE"                       ; magicseg='DATA32' len=45
  "__ZTIN14OpenJade_DSSSL24NodeListRestPrimitiveObjE"                   ; magicseg='DATA32' len=49
  "__ZTIN14OpenJade_DSSSL25NodeListFirstPrimitiveObjE"                  ; magicseg='DATA32' len=50
  "__ZTIN14OpenJade_DSSSL31EntityNameNormalizePrimitiveObjE"            ; magicseg='DATA32' len=56
  "__ZTIN14OpenJade_DSSSL32GeneralNameNormalizePrimitiveObjE"           ; magicseg='DATA32' len=57
  "__ZTIN14OpenJade_DSSSL37NotationGeneratedSystemIdPrimitiveObjE"      ; magicseg='DATA32' len=62
  "__ZTIN14OpenJade_DSSSL28NotationPublicIdPrimitiveObjE"               ; magicseg='DATA32' len=53
  "__ZTIN14OpenJade_DSSSL28NotationSystemIdPrimitiveObjE"               ; magicseg='DATA32' len=53
  "__ZTIN14OpenJade_DSSSL33EntityAttributeStringPrimitiveObjE"          ; magicseg='DATA32' len=58
  "__ZTIN14OpenJade_DSSSL22EntityTypePrimitiveObjE"                     ; magicseg='DATA32' len=47
  "__ZTIN14OpenJade_DSSSL26EntityNotationPrimitiveObjE"                 ; magicseg='DATA32' len=51
  "__ZTIN14OpenJade_DSSSL22EntityTextPrimitiveObjE"                     ; magicseg='DATA32' len=47
  "__ZTIN14OpenJade_DSSSL35EntityGeneratedSystemIdPrimitiveObjE"        ; magicseg='DATA32' len=60
  "__ZTIN14OpenJade_DSSSL26EntityPublicIdPrimitiveObjE"                 ; magicseg='DATA32' len=51
  "__ZTIN14OpenJade_DSSSL26EntitySystemIdPrimitiveObjE"                 ; magicseg='DATA32' len=51
  "__ZTIN14OpenJade_DSSSL29ElementNumberListPrimitiveObjE"              ; magicseg='DATA32' len=54
  "__ZTIN14OpenJade_DSSSL25ElementNumberPrimitiveObjE"                  ; magicseg='DATA32' len=50
  "__ZTIN14OpenJade_DSSSL39HierarchicalNumberRecursivePrimitiveObjE"    ; magicseg='DATA32' len=64
  "__ZTIN14OpenJade_DSSSL30HierarchicalNumberPrimitiveObjE"             ; magicseg='DATA32' len=55
  "__ZTIN14OpenJade_DSSSL31AncestorChildNumberPrimitiveObjE"            ; magicseg='DATA32' len=56
  "__ZTIN14OpenJade_DSSSL23ChildNumberPrimitiveObjE"                    ; magicseg='DATA32' len=48
  "__ZTIN14OpenJade_DSSSL26IsHaveAncestorPrimitiveObjE"                 ; magicseg='DATA32' len=51
  "__ZTIN14OpenJade_DSSSL33IsAbsoluteLastSiblingPrimitiveObjE"          ; magicseg='DATA32' len=58
  "__ZTIN14OpenJade_DSSSL25IsLastSiblingPrimitiveObjE"                  ; magicseg='DATA32' len=50
  "__ZTIN14OpenJade_DSSSL34IsAbsoluteFirstSiblingPrimitiveObjE"         ; magicseg='DATA32' len=59
  "__ZTIN14OpenJade_DSSSL26IsFirstSiblingPrimitiveObjE"                 ; magicseg='DATA32' len=51
  "__ZTIN14OpenJade_DSSSL43InheritedElementAttributeStringPrimitiveObjE"                    ; magicseg='DATA32' len=68
  "__ZTIN14OpenJade_DSSSL36InheritedAttributeStringPrimitiveObjE"       ; magicseg='DATA32' len=61
  "__ZTIN14OpenJade_DSSSL27AttributeStringPrimitiveObjE"                ; magicseg='DATA32' len=52
  "__ZTIN14OpenJade_DSSSL20AncestorPrimitiveObjE"                       ; magicseg='DATA32' len=45
  "__ZTIN14OpenJade_DSSSL18ParentPrimitiveObjE"                         ; magicseg='DATA32' len=43
  "__ZTIN14OpenJade_DSSSL14IdPrimitiveObjE"                             ; magicseg='DATA32' len=39
  "__ZTIN14OpenJade_DSSSL24FirstChildGiPrimitiveObjE"                   ; magicseg='DATA32' len=49
  "__ZTIN14OpenJade_DSSSL14GiPrimitiveObjE"                             ; magicseg='DATA32' len=39
  "__ZTIN14OpenJade_DSSSL25NodeListErrorPrimitiveObjE"                  ; magicseg='DATA32' len=50
  "__ZTIN14OpenJade_DSSSL22IsNodeListPrimitiveObjE"                     ; magicseg='DATA32' len=47
  "__ZTIN14OpenJade_DSSSL27IsNodeListEmptyPrimitiveObjE"                ; magicseg='DATA32' len=52
  "__ZTIN14OpenJade_DSSSL23CurrentNodePrimitiveObjE"                    ; magicseg='DATA32' len=48
  "__ZTIN14OpenJade_DSSSL22GlyphSubstPrimitiveObjE"                     ; magicseg='DATA32' len=47
  "__ZTIN14OpenJade_DSSSL27GlyphSubstTablePrimitiveObjE"                ; magicseg='DATA32' len=52
  "__ZTIN14OpenJade_DSSSL29IsGlyphSubstTablePrimitiveObjE"              ; magicseg='DATA32' len=54
  "__ZTIN14OpenJade_DSSSL19GlyphIdPrimitiveObjE"                        ; magicseg='DATA32' len=44
  "__ZTIN14OpenJade_DSSSL21IsGlyphIdPrimitiveObjE"                      ; magicseg='DATA32' len=46
  "__ZTIN14OpenJade_DSSSL26CharScriptCasePrimitiveObjE"                 ; magicseg='DATA32' len=51
  "__ZTIN14OpenJade_DSSSL25HytimeLinkendPrimitiveObjE"                  ; magicseg='DATA32' len=50
  "__ZTIN14OpenJade_DSSSL27NodeListAddressPrimitiveObjE"                ; magicseg='DATA32' len=52
  "__ZTIN14OpenJade_DSSSL31SgmlDocumentAddressPrimitiveObjE"            ; magicseg='DATA32' len=56
  "__ZTIN14OpenJade_DSSSL25EntityAddressPrimitiveObjE"                  ; magicseg='DATA32' len=50
  "__ZTIN14OpenJade_DSSSL24IdrefAddressPrimitiveObjE"                   ; magicseg='DATA32' len=49
  "__ZTIN14OpenJade_DSSSL30CurrentNodeAddressPrimitiveObjE"             ; magicseg='DATA32' len=55
  "__ZTIN14OpenJade_DSSSL28IsAddressVisitedPrimitiveObjE"               ; magicseg='DATA32' len=53
  "__ZTIN14OpenJade_DSSSL26IsAddressLocalPrimitiveObjE"                 ; magicseg='DATA32' len=51
  "__ZTIN14OpenJade_DSSSL21IsAddressPrimitiveObjE"                      ; magicseg='DATA32' len=46
  "__ZTIN14OpenJade_DSSSL22ColorSpacePrimitiveObjE"                     ; magicseg='DATA32' len=47
  "__ZTIN14OpenJade_DSSSL17ColorPrimitiveObjE"                          ; magicseg='DATA32' len=42
  "__ZTIN14OpenJade_DSSSL24IsColorSpacePrimitiveObjE"                   ; magicseg='DATA32' len=49
  "__ZTIN14OpenJade_DSSSL19IsColorPrimitiveObjE"                        ; magicseg='DATA32' len=44
  "__ZTIN14OpenJade_DSSSL23InlineSpacePrimitiveObjE"                    ; magicseg='DATA32' len=48
  "__ZTIN14OpenJade_DSSSL25IsInlineSpacePrimitiveObjE"                  ; magicseg='DATA32' len=50
  "__ZTIN14OpenJade_DSSSL24DisplaySpacePrimitiveObjE"                   ; magicseg='DATA32' len=49
  "__ZTIN14OpenJade_DSSSL26IsDisplaySpacePrimitiveObjE"                 ; magicseg='DATA32' len=51
  "__ZTIN14OpenJade_DSSSL21TableUnitPrimitiveObjE"                      ; magicseg='DATA32' len=46
  "__ZTIN14OpenJade_DSSSL23DisplaySizePrimitiveObjE"                    ; magicseg='DATA32' len=48
  "__ZTIN14OpenJade_DSSSL26NumberToStringPrimitiveObjE"                 ; magicseg='DATA32' len=51
  "__ZTIN14OpenJade_DSSSL26StringToNumberPrimitiveObjE"                 ; magicseg='DATA32' len=51
  "__ZTIN14OpenJade_DSSSL29ExternalProcedurePrimitiveObjE"              ; magicseg='DATA32' len=54
  "__ZTIN14OpenJade_DSSSL17ErrorPrimitiveObjE"                          ; magicseg='DATA32' len=42
  "__ZTIN14OpenJade_DSSSL28FormatNumberListPrimitiveObjE"               ; magicseg='DATA32' len=53
  "__ZTIN14OpenJade_DSSSL24FormatNumberPrimitiveObjE"                   ; magicseg='DATA32' len=49
  "__ZTIN14OpenJade_DSSSL28PageNumberSosofoPrimitiveObjE"               ; magicseg='DATA32' len=53
  "__ZTIN14OpenJade_DSSSL39CurrentNodePageNumberSosofoPrimitiveObjE"    ; magicseg='DATA32' len=64
  "__ZTIN14OpenJade_DSSSL27ProcessNodeListPrimitiveObjE"                ; magicseg='DATA32' len=52
  "__ZTIN14OpenJade_DSSSL35ProcessMatchingChildrenPrimitiveObjE"        ; magicseg='DATA32' len=60
  "__ZTIN14OpenJade_DSSSL34ProcessFirstDescendantPrimitiveObjE"         ; magicseg='DATA32' len=59
  "__ZTIN14OpenJade_DSSSL32ProcessElementWithIdPrimitiveObjE"           ; magicseg='DATA32' len=57
  "__ZTIN14OpenJade_DSSSL22MergeStylePrimitiveObjE"                     ; magicseg='DATA32' len=47
  "__ZTIN14OpenJade_DSSSL19IsStylePrimitiveObjE"                        ; magicseg='DATA32' len=44
  "__ZTIN14OpenJade_DSSSL20IsSosofoPrimitiveObjE"                       ; magicseg='DATA32' len=45
  "__ZTIN14OpenJade_DSSSL32SosofoDiscardLabeledPrimitiveObjE"           ; magicseg='DATA32' len=57
  "__ZTIN14OpenJade_DSSSL23SosofoLabelPrimitiveObjE"                    ; magicseg='DATA32' len=48
  "__ZTIN14OpenJade_DSSSL23EmptySosofoPrimitiveObjE"                    ; magicseg='DATA32' len=48
  "__ZTIN14OpenJade_DSSSL21NextMatchPrimitiveObjE"                      ; magicseg='DATA32' len=46
  "__ZTIN14OpenJade_DSSSL24SosofoAppendPrimitiveObjE"                   ; magicseg='DATA32' len=49
  "__ZTIN14OpenJade_DSSSL31ProcessChildrenTrimPrimitiveObjE"            ; magicseg='DATA32' len=56
  "__ZTIN14OpenJade_DSSSL27ProcessChildrenPrimitiveObjE"                ; magicseg='DATA32' len=52
  "__ZTIN14OpenJade_DSSSL19LiteralPrimitiveObjE"                        ; magicseg='DATA32' len=44
  "__ZTIN14OpenJade_DSSSL24CharPropertyPrimitiveObjE"                   ; magicseg='DATA32' len=49
  "__ZTIN14OpenJade_DSSSL24TimeToStringPrimitiveObjE"                   ; magicseg='DATA32' len=49
  "__ZTIN14OpenJade_DSSSL16TimePrimitiveObjE"                           ; magicseg='DATA32' len=41
  "__ZTIN14OpenJade_DSSSL16SqrtPrimitiveObjE"                           ; magicseg='DATA32' len=41
  "__ZTIN14OpenJade_DSSSL15AbsPrimitiveObjE"                            ; magicseg='DATA32' len=40
  "__ZTIN14OpenJade_DSSSL17RoundPrimitiveObjE"                          ; magicseg='DATA32' len=42
  "__ZTIN14OpenJade_DSSSL20TruncatePrimitiveObjE"                       ; magicseg='DATA32' len=45
  "__ZTIN14OpenJade_DSSSL19CeilingPrimitiveObjE"                        ; magicseg='DATA32' len=44
  "__ZTIN14OpenJade_DSSSL17FloorPrimitiveObjE"                          ; magicseg='DATA32' len=42
  "__ZTIN14OpenJade_DSSSL15MaxPrimitiveObjE"                            ; magicseg='DATA32' len=40
  "__ZTIN14OpenJade_DSSSL15MinPrimitiveObjE"                            ; magicseg='DATA32' len=40
  "__ZTIN14OpenJade_DSSSL24GreaterEqualPrimitiveObjE"                   ; magicseg='DATA32' len=49
  "__ZTIN14OpenJade_DSSSL21LessEqualPrimitiveObjE"                      ; magicseg='DATA32' len=46
  "__ZTIN14OpenJade_DSSSL19GreaterPrimitiveObjE"                        ; magicseg='DATA32' len=44
  "__ZTIN14OpenJade_DSSSL16LessPrimitiveObjE"                           ; magicseg='DATA32' len=41
  "__ZTIN14OpenJade_DSSSL18ModuloPrimitiveObjE"                         ; magicseg='DATA32' len=43
  "__ZTIN14OpenJade_DSSSL21RemainderPrimitiveObjE"                      ; magicseg='DATA32' len=46
  "__ZTIN14OpenJade_DSSSL20QuotientPrimitiveObjE"                       ; magicseg='DATA32' len=45
  "__ZTIN14OpenJade_DSSSL18DividePrimitiveObjE"                         ; magicseg='DATA32' len=43
  "__ZTIN14OpenJade_DSSSL20MultiplyPrimitiveObjE"                       ; magicseg='DATA32' len=45
  "__ZTIN14OpenJade_DSSSL17MinusPrimitiveObjE"                          ; magicseg='DATA32' len=42
  "__ZTIN14OpenJade_DSSSL16PlusPrimitiveObjE"                           ; magicseg='DATA32' len=41
  "__ZTIN14OpenJade_DSSSL17EqualPrimitiveObjE"                          ; magicseg='DATA32' len=42
  "__ZTIN14OpenJade_DSSSL21SubstringPrimitiveObjE"                      ; magicseg='DATA32' len=46
  "__ZTIN14OpenJade_DSSSL21StringRefPrimitiveObjE"                      ; magicseg='DATA32' len=46
  "__ZTIN14OpenJade_DSSSL24StringAppendPrimitiveObjE"                   ; magicseg='DATA32' len=49
  "__ZTIN14OpenJade_DSSSL25IsStringEqualPrimitiveObjE"                  ; magicseg='DATA32' len=50
  "__ZTIN14OpenJade_DSSSL24StringLengthPrimitiveObjE"                   ; magicseg='DATA32' len=49
  "__ZTIN14OpenJade_DSSSL26StringToSymbolPrimitiveObjE"                 ; magicseg='DATA32' len=51
  "__ZTIN14OpenJade_DSSSL26SymbolToStringPrimitiveObjE"                 ; magicseg='DATA32' len=51
  "__ZTIN14OpenJade_DSSSL18StringPrimitiveObjE"                         ; magicseg='DATA32' len=43
  "__ZTIN14OpenJade_DSSSL23IsCharEqualPrimitiveObjE"                    ; magicseg='DATA32' len=48
  "__ZTIN14OpenJade_DSSSL18IsCharPrimitiveObjE"                         ; magicseg='DATA32' len=43
  "__ZTIN14OpenJade_DSSSL22IsQuantityPrimitiveObjE"                     ; magicseg='DATA32' len=47
  "__ZTIN14OpenJade_DSSSL20IsNumberPrimitiveObjE"                       ; magicseg='DATA32' len=45
  "__ZTIN14OpenJade_DSSSL18IsRealPrimitiveObjE"                         ; magicseg='DATA32' len=43
  "__ZTIN14OpenJade_DSSSL21IsIntegerPrimitiveObjE"                      ; magicseg='DATA32' len=46
  "__ZTIN14OpenJade_DSSSL20IsStringPrimitiveObjE"                       ; magicseg='DATA32' len=45
  "__ZTIN14OpenJade_DSSSL23IsProcedurePrimitiveObjE"                    ; magicseg='DATA32' len=48
  "__ZTIN14OpenJade_DSSSL21IsBooleanPrimitiveObjE"                      ; magicseg='DATA32' len=46
  "__ZTIN14OpenJade_DSSSL21IsKeywordPrimitiveObjE"                      ; magicseg='DATA32' len=46
  "__ZTIN14OpenJade_DSSSL20IsSymbolPrimitiveObjE"                       ; magicseg='DATA32' len=45
  "__ZTIN14OpenJade_DSSSL15NotPrimitiveObjE"                            ; magicseg='DATA32' len=40
  "__ZTIN14OpenJade_DSSSL18MemberPrimitiveObjE"                         ; magicseg='DATA32' len=43
  "__ZTIN14OpenJade_DSSSL19ListRefPrimitiveObjE"                        ; magicseg='DATA32' len=44
  "__ZTIN14OpenJade_DSSSL20ListTailPrimitiveObjE"                       ; magicseg='DATA32' len=45
  "__ZTIN14OpenJade_DSSSL19ReversePrimitiveObjE"                        ; magicseg='DATA32' len=44
  "__ZTIN14OpenJade_DSSSL18AppendPrimitiveObjE"                         ; magicseg='DATA32' len=43
  "__ZTIN14OpenJade_DSSSL18LengthPrimitiveObjE"                         ; magicseg='DATA32' len=43
  "__ZTIN14OpenJade_DSSSL15CdrPrimitiveObjE"                            ; magicseg='DATA32' len=40
  "__ZTIN14OpenJade_DSSSL15CarPrimitiveObjE"                            ; magicseg='DATA32' len=40
  "__ZTIN14OpenJade_DSSSL19IsEqualPrimitiveObjE"                        ; magicseg='DATA32' len=44
  "__ZTIN14OpenJade_DSSSL18IsPairPrimitiveObjE"                         ; magicseg='DATA32' len=43
  "__ZTIN14OpenJade_DSSSL18IsListPrimitiveObjE"                         ; magicseg='DATA32' len=43
  "__ZTIN14OpenJade_DSSSL18IsNullPrimitiveObjE"                         ; magicseg='DATA32' len=43
  "__ZTIN14OpenJade_DSSSL16ListPrimitiveObjE"                           ; magicseg='DATA32' len=41
  "__ZTIN14OpenJade_DSSSL16ConsPrimitiveObjE"                           ; magicseg='DATA32' len=41
  "__ZTIN14OpenJade_DSSSL25SelectElementsNodeListObjE"                  ; magicseg='DATA32' len=50
  "__ZTIN14OpenJade_DSSSL25SelectElementsNodeListObj10PatternSetE"      ; magicseg='DATA32' len=62
  "__ZTIN14OpenJade_DSSSL14MapNodeListObjE"                             ; magicseg='DATA32' len=39
  "__ZTIN14OpenJade_DSSSL24SelectByClassNodeListObjE"                   ; magicseg='DATA32' len=49
  "__ZTIN14OpenJade_DSSSL18SiblingNodeListObjE"                         ; magicseg='DATA32' len=43
  "__ZTIN14OpenJade_DSSSL22DescendantsNodeListObjE"                     ; magicseg='DATA32' len=47
  "__ZTVN14OpenJade_DSSSL12GroveManagerE"                               ; magicseg='DATA32' len=37
  "__ZTVN14OpenJade_DSSSL7Pattern7ElementE"                             ; magicseg='DATA32' len=39
  "__ZTVN14OpenJade_DSSSL7Pattern9QualifierE"                           ; magicseg='DATA32' len=41
  "__ZTVN14OpenJade_DSSSL7Pattern17ChildrenQualifierE"                  ; magicseg='DATA32' len=50
  "__ZTVN6OpenSP6VectorIPKN14OpenJade_DSSSL7Pattern7ElementEEE"         ; magicseg='DATA32' len=59
  "__ZTVN14OpenJade_DSSSL7Pattern11IdQualifierE"                        ; magicseg='DATA32' len=44
  "__ZTVN14OpenJade_DSSSL7Pattern14ClassQualifierE"                     ; magicseg='DATA32' len=47
  "__ZTVN14OpenJade_DSSSL7Pattern26AttributeHasValueQualifierE"         ; magicseg='DATA32' len=59
  "__ZTVN14OpenJade_DSSSL7Pattern30AttributeMissingValueQualifierE"     ; magicseg='DATA32' len=63
  "__ZTVN14OpenJade_DSSSL7Pattern18AttributeQualifierE"                 ; magicseg='DATA32' len=51
  "__ZTVN14OpenJade_DSSSL7Pattern17PriorityQualifierE"                  ; magicseg='DATA32' len=50
  "__ZTVN14OpenJade_DSSSL7Pattern19ImportanceQualifierE"                ; magicseg='DATA32' len=52
  "__ZTIN6OpenSP6VectorIPKN14OpenJade_DSSSL7Pattern7ElementEEE"         ; magicseg='DATA32' len=59
  "__ZTIN14OpenJade_DSSSL7Pattern17ChildrenQualifierE"                  ; magicseg='DATA32' len=50
  "__ZTIN14OpenJade_DSSSL7Pattern7ElementE"                             ; magicseg='DATA32' len=39
  "__ZTIN14OpenJade_DSSSL7Pattern19ImportanceQualifierE"                ; magicseg='DATA32' len=52
  "__ZTIN14OpenJade_DSSSL7Pattern17PriorityQualifierE"                  ; magicseg='DATA32' len=50
  "__ZTVN14OpenJade_DSSSL7Pattern16VacuousQualifierE"                   ; magicseg='DATA32' len=49
  "__ZTIN14OpenJade_DSSSL7Pattern16VacuousQualifierE"                   ; magicseg='DATA32' len=49
  "__ZTIN14OpenJade_DSSSL7Pattern18AttributeQualifierE"                 ; magicseg='DATA32' len=51
  "__ZTIN14OpenJade_DSSSL7Pattern30AttributeMissingValueQualifierE"     ; magicseg='DATA32' len=63
  "__ZTIN14OpenJade_DSSSL7Pattern26AttributeHasValueQualifierE"         ; magicseg='DATA32' len=59
  "__ZTIN14OpenJade_DSSSL7Pattern14ClassQualifierE"                     ; magicseg='DATA32' len=47
  "__ZTIN14OpenJade_DSSSL7Pattern11IdQualifierE"                        ; magicseg='DATA32' len=44
  "__ZTVN14OpenJade_DSSSL12MacroFlowObjE"                               ; magicseg='DATA32' len=37
  "__ZTVN14OpenJade_DSSSL22UnpackMacroFlowObjInsnE"                     ; magicseg='DATA32' len=47
  "__ZTIN14OpenJade_DSSSL22UnpackMacroFlowObjInsnE"                     ; magicseg='DATA32' len=47
  "__ZTIN14OpenJade_DSSSL12MacroFlowObjE"                               ; magicseg='DATA32' len=37

  ; segment TEXT32
  "__ZN14OpenJade_DSSSL8LangDataC2Ev"                                   ; magicseg='TEXT32' len=33
  "__ZN6OpenSP12PointerTableIPNS_17HashTableItemBaseINS_6StringIjEEEES3_NS_4HashENS_20HashTableKeyFunctionIS3_EEEC2Ev"    ; magicseg='TEXT32' len=114
  "__ZN6OpenSP7CharMapIjEC1Ev"                                          ; magicseg='TEXT32' len=26
  "__ZN6OpenSP7CharMapIjE6setAllEj"                                     ; magicseg='TEXT32' len=31
  "__ZN6OpenSP12CharMapPlaneIjED1Ev"                                    ; magicseg='TEXT32' len=32
  "__ZN6OpenSP10OwnerTableINS_17HashTableItemBaseINS_6StringIjEEEES3_NS_4HashENS_20HashTableKeyFunctionIS3_EEED2Ev"       ; magicseg='TEXT32' len=111
  "__ZN14OpenJade_DSSSL8LangDataC1Ev"                                   ; magicseg='TEXT32' len=33
  "__ZN14OpenJade_DSSSL7LangObj24addMultiCollatingElementERKN6OpenSP6StringIjEES5_"         ; magicseg='TEXT32' len=79
  "__ZN6OpenSP9HashTableINS_6StringIjEES2_E6insertERKS2_S5_b"           ; magicseg='TEXT32' len=57
  "__ZN14OpenJade_DSSSL7LangObj18addCollatingSymbolERKN6OpenSP6StringIjEE"                  ; magicseg='TEXT32' len=70
  "__ZN6OpenSP9HashTableINS_6StringIjEEjE6insertERKS2_RKjb"             ; magicseg='TEXT32' len=55
  "__ZN14OpenJade_DSSSL7LangObj8addLevelERKNS0_9LevelSortE"             ; magicseg='TEXT32' len=55
  "__ZN14OpenJade_DSSSL7LangObj13addDefaultPosEv"                       ; magicseg='TEXT32' len=45
  "__ZN6OpenSP6StringIjEC1Ev"                                           ; magicseg='TEXT32' len=25
  "__ZN14OpenJade_DSSSL7LangObj15addCollatingPosERKN6OpenSP6StringIjEE"                     ; magicseg='TEXT32' len=67
  "__ZNK6OpenSP12PointerTableIPNS_17HashTableItemBaseINS_6StringIjEEEES3_NS_4HashENS_20HashTableKeyFunctionIS3_EEE6lookupERKS3_"                               ; magicseg='TEXT32' len=124
  "__ZN6OpenSP6StringIjEC1EPKjj"                                        ; magicseg='TEXT32' len=28
  "__ZN14OpenJade_DSSSL7LangObj14addLevelWeightEjRKN6OpenSP6StringIjEE"                     ; magicseg='TEXT32' len=67
  "__ZN6OpenSP6StringIjE6resizeEj"                                      ; magicseg='TEXT32' len=30
  "__ZN14OpenJade_DSSSL7LangObj10addToupperEjj"                         ; magicseg='TEXT32' len=43
  "__ZN6OpenSP7CharMapIjE7setCharEjj"                                   ; magicseg='TEXT32' len=33
  "__ZN14OpenJade_DSSSL7LangObj10addTolowerEjj"                         ; magicseg='TEXT32' len=43
  "__ZN14OpenJade_DSSSL7LangObjC2Ev"                                    ; magicseg='TEXT32' len=32
  "__ZN14OpenJade_DSSSL7LangObjC1Ev"                                    ; magicseg='TEXT32' len=32
  "__ZN14OpenJade_DSSSL7LangObjD2Ev"                                    ; magicseg='TEXT32' len=32
  "__ZN14OpenJade_DSSSL7LangObjD1Ev"                                    ; magicseg='TEXT32' len=32
  "__ZN14OpenJade_DSSSL7LangObjD0Ev"                                    ; magicseg='TEXT32' len=32
  "__ZN14OpenJade_DSSSL7LangObj7compileEv"                              ; magicseg='TEXT32' len=38
  "__ZNK14OpenJade_DSSSL7LangObj6levelsEv"                              ; magicseg='TEXT32' len=38
  "__ZN6OpenSP6StringIjE4growEj"                                        ; magicseg='TEXT32' len=28
  "__ZN14OpenJade_DSSSL7LangObj10asLanguageEv"                          ; magicseg='TEXT32' len=42
  "__ZNK14OpenJade_DSSSL7LangObj13areEquivalentERKN6OpenSP6StringIjEES5_j"                  ; magicseg='TEXT32' len=70
  "__ZNK14OpenJade_DSSSL7LangObj7compareERKN6OpenSP6StringIjEES5_j"     ; magicseg='TEXT32' len=63
  "__ZNK14OpenJade_DSSSL7LangObj15asCollatingEltsERKN6OpenSP6StringIjEE"                    ; magicseg='TEXT32' len=68
  "__ZNK14OpenJade_DSSSL7LangObj7atLevelERKN6OpenSP6StringIjEEj"        ; magicseg='TEXT32' len=60
  "__ZN6OpenSP6StringIjEaSERKS1_"                                       ; magicseg='TEXT32' len=29
  "__ZNK14OpenJade_DSSSL7LangObj7toUpperEj"                             ; magicseg='TEXT32' len=39
  "__ZNK14OpenJade_DSSSL7LangObj7toLowerEj"                             ; magicseg='TEXT32' len=39
  "__ZNK6OpenSP7CharMapIjEixEj"                                         ; magicseg='TEXT32' len=27
  "__ZNK14OpenJade_DSSSL7LangObj6isLessERKN6OpenSP6StringIjEES5_"       ; magicseg='TEXT32' len=61
  "__ZNK14OpenJade_DSSSL7LangObj13isLessOrEqualERKN6OpenSP6StringIjEES5_"                   ; magicseg='TEXT32' len=69
  "__ZN6OpenSP6VectorIPNS_17HashTableItemBaseINS_6StringIjEEEEED1Ev"    ; magicseg='TEXT32' len=64
  "__ZN6OpenSP12CharMapPlaneIjEC1Ev"                                    ; magicseg='TEXT32' len=32
  "__ZN6OpenSP11CharMapPageIjED1Ev"                                     ; magicseg='TEXT32' len=31
  "__ZN6OpenSP6VectorIPNS_17HashTableItemBaseINS_6StringIjEEEEE5eraseEPKS5_S8_"             ; magicseg='TEXT32' len=75
  "__ZN6OpenSP13HashTableItemINS_6StringIjEES2_EC1ERKS2_S5_"            ; magicseg='TEXT32' len=56
  "__ZN6OpenSP12PointerTableIPNS_17HashTableItemBaseINS_6StringIjEEEES3_NS_4HashENS_20HashTableKeyFunctionIS3_EEE6insertES5_b"                                 ; magicseg='TEXT32' len=122
  "__ZN6OpenSP13HashTableItemINS_6StringIjEEjEC1ERKS2_RKj"              ; magicseg='TEXT32' len=54
  "__ZN6OpenSP13CharMapColumnIjEC1Ev"                                   ; magicseg='TEXT32' len=33
  "__ZN6OpenSP11CharMapPageIjEC1Ev"                                     ; magicseg='TEXT32' len=31
  "__ZN6OpenSP13CharMapColumnIjED1Ev"                                   ; magicseg='TEXT32' len=33
  "__ZN6OpenSP17HashTableItemBaseINS_6StringIjEEEC2ERKS2_"              ; magicseg='TEXT32' len=54
  "__ZN6OpenSP6StringIjEC1ERKS1_"                                       ; magicseg='TEXT32' len=29
  "__ZN6OpenSP17HashTableItemBaseINS_6StringIjEEED2Ev"                  ; magicseg='TEXT32' len=50
  "__ZN6OpenSP6VectorIPNS_17HashTableItemBaseINS_6StringIjEEEEE6assignEjRKS5_"              ; magicseg='TEXT32' len=74
  "__ZN6OpenSP6VectorIPNS_17HashTableItemBaseINS_6StringIjEEEEEC1EjRKS5_"                   ; magicseg='TEXT32' len=69
  "__ZN6OpenSP6VectorIPNS_17HashTableItemBaseINS_6StringIjEEEEE4swapERS6_"                  ; magicseg='TEXT32' len=70
  "__ZN6OpenSP6VectorIPNS_17HashTableItemBaseINS_6StringIjEEEEE6insertEPKS5_jRS7_"          ; magicseg='TEXT32' len=78
  "__ZN6OpenSP6VectorIPNS_17HashTableItemBaseINS_6StringIjEEEEE8reserve1Ej"                 ; magicseg='TEXT32' len=71
  "__ZN6OpenSP13HashTableItemINS_6StringIjEEjED1Ev"                     ; magicseg='TEXT32' len=47
  "__ZN6OpenSP13HashTableItemINS_6StringIjEEjED0Ev"                     ; magicseg='TEXT32' len=47
  "__ZNK6OpenSP13HashTableItemINS_6StringIjEEjE4copyEv"                 ; magicseg='TEXT32' len=51
  "__ZN6OpenSP13HashTableItemINS_6StringIjEES2_ED1Ev"                   ; magicseg='TEXT32' len=49
  "__ZN6OpenSP13HashTableItemINS_6StringIjEES2_ED0Ev"                   ; magicseg='TEXT32' len=49
  "__ZNK6OpenSP13HashTableItemINS_6StringIjEES2_E4copyEv"               ; magicseg='TEXT32' len=53
  "__ZN6OpenSP17HashTableItemBaseINS_6StringIjEEED1Ev"                  ; magicseg='TEXT32' len=50
  "__ZN6OpenSP17HashTableItemBaseINS_6StringIjEEED0Ev"                  ; magicseg='TEXT32' len=50
  "__ZN6OpenSP6VectorIPNS_17HashTableItemBaseINS_6StringIjEEEEED0Ev"    ; magicseg='TEXT32' len=64
  "__ZNK9Collector6Object15traceSubObjectsERS_"                         ; magicseg='TEXT32' len=43
  "__ZN9Collector6ObjectD1Ev"                                           ; magicseg='TEXT32' len=25
  "__ZN9Collector6ObjectD0Ev"                                           ; magicseg='TEXT32' len=25
  "__ZTSN9Collector6ObjectE"                                            ; magicseg='TEXT32' len=24
  "__ZTSN14OpenJade_DSSSL7LangObjE"                                     ; magicseg='TEXT32' len=31
  "__ZTSN6OpenSP6VectorIPNS_17HashTableItemBaseINS_6StringIjEEEEEE"     ; magicseg='TEXT32' len=63
  "__ZTSN6OpenSP17HashTableItemBaseINS_6StringIjEEEE"                   ; magicseg='TEXT32' len=49
  "__ZTSN6OpenSP13HashTableItemINS_6StringIjEES2_EE"                    ; magicseg='TEXT32' len=48
  "__ZTSN6OpenSP13HashTableItemINS_6StringIjEEjEE"                      ; magicseg='TEXT32' len=46
  "__ZTSN14OpenJade_DSSSL11LanguageObjE"                                ; magicseg='TEXT32' len=36
  "__ZTSN14OpenJade_DSSSL5ELObjE"                                       ; magicseg='TEXT32' len=29
  "__ZN9CollectorC2Ej"                                                  ; magicseg='TEXT32' len=18
  "__ZN9CollectorC1Ej"                                                  ; magicseg='TEXT32' len=18
  "__ZN9CollectorD2Ev"                                                  ; magicseg='TEXT32' len=18
  "__ZN9Collector11DynamicRootD1Ev"                                     ; magicseg='TEXT32' len=31
  "__ZN9CollectorD1Ev"                                                  ; magicseg='TEXT32' len=18
  "__ZN9CollectorD0Ev"                                                  ; magicseg='TEXT32' len=18
  "__ZN9Collector9makeSpaceEv"                                          ; magicseg='TEXT32' len=26
  "__ZN9Collector7collectEv"                                            ; magicseg='TEXT32' len=24
  "__ZN9Collector5BlockC1EPS0_jjPNS_6ObjectE"                           ; magicseg='TEXT32' len=41
  "__ZN9Collector5checkEv"                                              ; magicseg='TEXT32' len=22
  "__ZN9Collector5BlockC2EPS0_jjPNS_6ObjectE"                           ; magicseg='TEXT32' len=41
  "__ZN9Collector17traceDynamicRootsEv"                                 ; magicseg='TEXT32' len=35
  "__ZN9Collector13makePermanentEPNS_6ObjectE"                          ; magicseg='TEXT32' len=42
  "__ZN9Collector13makeReadOnly1EPNS_6ObjectE"                          ; magicseg='TEXT32' len=42
  "__ZN9Collector11DynamicRootD2Ev"                                     ; magicseg='TEXT32' len=31
  "__ZN9Collector11DynamicRootD0Ev"                                     ; magicseg='TEXT32' len=31
  "__ZN9Collector16unallocateObjectEPv"                                 ; magicseg='TEXT32' len=35
  "__ZNK9Collector16traceStaticRootsEv"                                 ; magicseg='TEXT32' len=35
  "__ZNK9Collector11DynamicRoot5traceERS_"                              ; magicseg='TEXT32' len=38
  "__ZTSN9Collector11DynamicRootE"                                      ; magicseg='TEXT32' len=30
  "__ZTS9Collector"                                                     ; magicseg='TEXT32' len=15
  "__ZN14OpenJade_DSSSL8DssslAppC2Ei"                                   ; magicseg='TEXT32' len=33
  "__ZN6OpenSP6VectorINS_6StringIjEEED1Ev"                              ; magicseg='TEXT32' len=38
  "__ZN6OpenSP9ParserAppD2Ev"                                           ; magicseg='TEXT32' len=25
  "__ZN14OpenJade_DSSSL8DssslAppC1Ei"                                   ; magicseg='TEXT32' len=33
  "__ZN14OpenJade_DSSSL8DssslApp4initEiPPc"                             ; magicseg='TEXT32' len=39
  "__ZN14OpenJade_DSSSL8DssslApp12processSysidERKN6OpenSP6StringIjEE"                       ; magicseg='TEXT32' len=65
  "__ZN6OpenSP6VectorINS_14ParsedSystemId3MapEED1Ev"                    ; magicseg='TEXT32' len=48
  "__ZN6OpenSP6VectorINS_17StorageObjectSpecEED2Ev"                     ; magicseg='TEXT32' len=47
  "__ZN6OpenSP6StringIjE6appendEPKjj"                                   ; magicseg='TEXT32' len=33
  "__ZN6OpenSP6VectorINS_17StorageObjectSpecEE6appendEj"                ; magicseg='TEXT32' len=52
  "__ZN6OpenSP6VectorINS_17StorageObjectSpecEE5eraseEPKS1_S4_"          ; magicseg='TEXT32' len=58
  "__ZN14OpenJade_DSSSL8DssslApp13processOptionEcPKc"                   ; magicseg='TEXT32' len=49
  "__ZN14OpenJade_DSSSL8DssslApp10splitOffIdERN6OpenSP6StringIjEES4_"                       ; magicseg='TEXT32' len=65
  "__ZN6OpenSP6VectorINS_6StringIjEEE8reserve1Ej"                       ; magicseg='TEXT32' len=45
  "__ZN6OpenSP6StringIjE6assignEPKjj"                                   ; magicseg='TEXT32' len=33
  "__ZN14OpenJade_DSSSL8DssslApp14generateEventsEPN6OpenSP22ErrorCountEventHandlerE"        ; magicseg='TEXT32' len=80
  "__ZN6OpenSP9HashTableINS_6StringIjEEN14OpenJade_Grove7NodePtrEE6insertERKS2_RKS4_b"      ; magicseg='TEXT32' len=82
  "__ZN6OpenSP3PtrINS_19ExtendEntityManagerEE5clearEv"                  ; magicseg='TEXT32' len=50
  "__ZN14OpenJade_DSSSL8DssslApp21getDssslSpecFromGroveEv"              ; magicseg='TEXT32' len=54
  "__ZN14OpenJade_DSSSL8DssslApp18getDssslSpecFromPiEPKjjRKN6OpenSP8LocationE"              ; magicseg='TEXT32' len=74
  "__ZN6OpenSP3PtrINS_6OriginEED2Ev"                                    ; magicseg='TEXT32' len=32
  "__ZN14OpenJade_DSSSL8DssslApp15handleAttlistPiEPKjjRKN6OpenSP8LocationE"                 ; magicseg='TEXT32' len=71
  "__ZN14OpenJade_DSSSL8DssslApp14handleSimplePiEPKjjRKN6OpenSP8LocationE"                  ; magicseg='TEXT32' len=70
  "__ZN14OpenJade_DSSSL8DssslApp7matchCiEPKjjPKc"                       ; magicseg='TEXT32' len=45
  "__ZN14OpenJade_DSSSL8DssslApp3isSEj"                                 ; magicseg='TEXT32' len=35
  "__ZN14OpenJade_DSSSL8DssslApp5skipSERPKjRj"                          ; magicseg='TEXT32' len=42
  "__ZN14OpenJade_DSSSL8DssslApp12getAttributeERPKjRjRN6OpenSP6StringIjEES8_"               ; magicseg='TEXT32' len=73
  "__ZN14OpenJade_DSSSL8DssslApp7matchCiERKN6OpenSP6StringIjEEPKc"      ; magicseg='TEXT32' len=62
  "__ZN6OpenSP6StringIjE4swapERS1_"                                     ; magicseg='TEXT32' len=31
  "__ZN14OpenJade_DSSSL8DssslApp14initSpecParserEv"                     ; magicseg='TEXT32' len=47
  "__ZN6OpenSP3PtrINS_13EntityManagerEEaSEPS1_"                         ; magicseg='TEXT32' len=43
  "__ZN6OpenSP3PtrINS_6SyntaxEED2Ev"                                    ; magicseg='TEXT32' len=32
  "__ZN6OpenSP3PtrINS_2SdEED2Ev"                                        ; magicseg='TEXT32' len=28
  "__ZN6OpenSP3PtrINS_13EntityManagerEED1Ev"                            ; magicseg='TEXT32' len=40
  "__ZN6OpenSP3PtrINS_17InputSourceOriginEED1Ev"                        ; magicseg='TEXT32' len=44
  "__ZN6OpenSP6StringIjED1Ev"                                           ; magicseg='TEXT32' len=25
  "__ZN14OpenJade_DSSSL8DssslApp12processGroveEv"                       ; magicseg='TEXT32' len=45
  "__ZN6OpenSP5OwnerIN14OpenJade_DSSSL10FOTBuilderEED1Ev"               ; magicseg='TEXT32' len=53
  "__ZN14OpenJade_DSSSL8DssslApp4loadERKN6OpenSP6StringIjEERKNS1_6VectorIS3_EERKN14OpenJade_Grove7NodePtrERSB_S9_"        ; magicseg='TEXT32' len=110
  "__ZN6OpenSP6VectorINS_6StringIjEEEC1ERKS3_"                          ; magicseg='TEXT32' len=42
  "__ZN6OpenSP5OwnerINS_12EventHandlerEED1Ev"                           ; magicseg='TEXT32' len=41
  "__ZThn432_N14OpenJade_DSSSL8DssslApp4loadERKN6OpenSP6StringIjEERKNS1_6VectorIS3_EERKN14OpenJade_Grove7NodePtrERSB_S9_"                                      ; magicseg='TEXT32' len=117
  "__ZN14OpenJade_DSSSL8DssslApp8mapSysidERN6OpenSP6StringIjEE"         ; magicseg='TEXT32' len=59
  "__ZN6OpenSP6EntityD2Ev"                                              ; magicseg='TEXT32' len=22
  "__ZN6OpenSP3PtrINS_13EntityCatalogEED2Ev"                            ; magicseg='TEXT32' len=40
  "__ZThn432_N14OpenJade_DSSSL8DssslApp8mapSysidERN6OpenSP6StringIjEE"                      ; magicseg='TEXT32' len=66
  "__ZN14OpenJade_DSSSL8DssslApp10readEntityERKN6OpenSP6StringIjEERS3_"                     ; magicseg='TEXT32' len=67
  "__ZN6OpenSP5OwnerINS_11InputSourceEED1Ev"                            ; magicseg='TEXT32' len=40
  "__ZThn432_N14OpenJade_DSSSL8DssslApp10readEntityERKN6OpenSP6StringIjEERS3_"              ; magicseg='TEXT32' len=74
  "__ZN6OpenSP6VectorINS_6StringIjEEE5eraseEPKS2_S5_"                   ; magicseg='TEXT32' len=49
  "__ZN6OpenSP6VectorINS_6StringIjEEE6insertEPKS2_S5_S5_"               ; magicseg='TEXT32' len=53
  "__ZN6OpenSP6VectorINS_14ParsedSystemId3MapEE5eraseEPKS2_S5_"         ; magicseg='TEXT32' len=59
  "__ZN6OpenSP6VectorINS_17StorageObjectSpecEE8reserve1Ej"              ; magicseg='TEXT32' len=54
  "__ZN6OpenSP13HashTableItemINS_6StringIjEEN14OpenJade_Grove7NodePtrEEC1ERKS2_RKS4_"       ; magicseg='TEXT32' len=81
  "__ZN6OpenSP4ISetIjED1Ev"                                             ; magicseg='TEXT32' len=23
  "__ZN6OpenSP6VectorINS_18CharsetDeclSectionEED1Ev"                    ; magicseg='TEXT32' len=48
  "__ZN6OpenSP6VectorINS_13RangeMapRangeIjjEEED1Ev"                     ; magicseg='TEXT32' len=47
  "__ZN6OpenSP3PtrINS_15CharMapResourceIhEEED1Ev"                       ; magicseg='TEXT32' len=45
  "__ZN6OpenSP3PtrINS_14SharedXcharMapIhEEED1Ev"                        ; magicseg='TEXT32' len=44
  "__ZN6OpenSP6VectorINS_10SubstTable4PairEED1Ev"                       ; magicseg='TEXT32' len=45
  "__ZN6OpenSP6VectorINS_13RangeMapRangeIjjEEE5eraseEPKS2_S5_"          ; magicseg='TEXT32' len=58
  "__ZN6OpenSP6VectorINS_18CharsetDeclSectionEE5eraseEPKS1_S4_"         ; magicseg='TEXT32' len=59
  "__ZN6OpenSP6VectorINS_9ISetRangeIjEEED1Ev"                           ; magicseg='TEXT32' len=41
  "__ZN6OpenSP6VectorINS_10SubstTable4PairEE5eraseEPKS2_S5_"            ; magicseg='TEXT32' len=56
  "__ZN6OpenSP12CharMapPlaneIhED1Ev"                                    ; magicseg='TEXT32' len=32
  "__ZN6OpenSP6VectorINS_16CharsetDeclRangeEED1Ev"                      ; magicseg='TEXT32' len=46
  "__ZN6OpenSP6VectorINS_9ISetRangeIjEEE5eraseEPKS2_S5_"                ; magicseg='TEXT32' len=52
  "__ZN6OpenSP6VectorINS_16CharsetDeclRangeEE5eraseEPKS1_S4_"           ; magicseg='TEXT32' len=57
  "__ZN6OpenSP5OwnerINS_11InputSourceEED0Ev"                            ; magicseg='TEXT32' len=40
  "__ZN6OpenSP13HashTableItemINS_6StringIjEEN14OpenJade_Grove7NodePtrEED1Ev"                ; magicseg='TEXT32' len=72
  "__ZN6OpenSP13HashTableItemINS_6StringIjEEN14OpenJade_Grove7NodePtrEED0Ev"                ; magicseg='TEXT32' len=72
  "__ZNK6OpenSP13HashTableItemINS_6StringIjEEN14OpenJade_Grove7NodePtrEE4copyEv"            ; magicseg='TEXT32' len=76
  "__ZN6OpenSP5OwnerINS_12EventHandlerEED0Ev"                           ; magicseg='TEXT32' len=41
  "__ZN6OpenSP5OwnerIN14OpenJade_DSSSL10FOTBuilderEED0Ev"               ; magicseg='TEXT32' len=53
  "__ZN6OpenSP20SelectOneArcDirectorD1Ev"                               ; magicseg='TEXT32' len=37
  "__ZN6OpenSP20SelectOneArcDirectorD0Ev"                               ; magicseg='TEXT32' len=37
  "__ZThn4_N6OpenSP20SelectOneArcDirectorD1Ev"                          ; magicseg='TEXT32' len=42
  "__ZThn4_N6OpenSP20SelectOneArcDirectorD0Ev"                          ; magicseg='TEXT32' len=42
  "__ZN14OpenJade_DSSSL8DssslAppD1Ev"                                   ; magicseg='TEXT32' len=33
  "__ZN14OpenJade_DSSSL8DssslAppD0Ev"                                   ; magicseg='TEXT32' len=33
  "__ZThn4_N14OpenJade_DSSSL8DssslAppD1Ev"                              ; magicseg='TEXT32' len=38
  "__ZThn4_N14OpenJade_DSSSL8DssslAppD0Ev"                              ; magicseg='TEXT32' len=38
  "__ZThn432_N14OpenJade_DSSSL8DssslAppD1Ev"                            ; magicseg='TEXT32' len=40
  "__ZThn432_N14OpenJade_DSSSL8DssslAppD0Ev"                            ; magicseg='TEXT32' len=40
  "__ZN6OpenSP8GroveAppD1Ev"                                            ; magicseg='TEXT32' len=24
  "__ZN6OpenSP8GroveAppD0Ev"                                            ; magicseg='TEXT32' len=24
  "__ZThn4_N6OpenSP8GroveAppD1Ev"                                       ; magicseg='TEXT32' len=29
  "__ZThn4_N6OpenSP8GroveAppD0Ev"                                       ; magicseg='TEXT32' len=29
  "__ZN6OpenSP14ExternalEntityD1Ev"                                     ; magicseg='TEXT32' len=31
  "__ZN6OpenSP14ExternalEntityD0Ev"                                     ; magicseg='TEXT32' len=31
  "__ZN6OpenSP6VectorINS_18CharsetDeclSectionEED0Ev"                    ; magicseg='TEXT32' len=48
  "__ZN6OpenSP6VectorINS_16CharsetDeclRangeEED0Ev"                      ; magicseg='TEXT32' len=46
  "__ZNK6OpenSP6Syntax15namecaseGeneralEv"                              ; magicseg='TEXT32' len=38
  "__ZNK6OpenSP6Syntax14namecaseEntityEv"                               ; magicseg='TEXT32' len=37
  "__ZN6OpenSP14ParsedSystemIdD1Ev"                                     ; magicseg='TEXT32' len=31
  "__ZN6OpenSP14ParsedSystemIdD0Ev"                                     ; magicseg='TEXT32' len=31
  "__ZN6OpenSP6VectorINS_14ParsedSystemId3MapEED0Ev"                    ; magicseg='TEXT32' len=48
  "__ZN6OpenSP6VectorINS_17StorageObjectSpecEED1Ev"                     ; magicseg='TEXT32' len=47
  "__ZN6OpenSP6VectorINS_17StorageObjectSpecEED0Ev"                     ; magicseg='TEXT32' len=47
  "__ZN6OpenSP6VectorINS_9ISetRangeIjEEED0Ev"                           ; magicseg='TEXT32' len=41
  "__ZN6OpenSP6VectorINS_13RangeMapRangeIjjEEED0Ev"                     ; magicseg='TEXT32' len=47
  "__ZN6OpenSP16StringMessageArgD1Ev"                                   ; magicseg='TEXT32' len=33
  "__ZN6OpenSP16StringMessageArgD0Ev"                                   ; magicseg='TEXT32' len=33
  "__ZN6OpenSP6VectorINS_6StringIjEEED0Ev"                              ; magicseg='TEXT32' len=38
  "__ZN6OpenSP6VectorINS_10SubstTable4PairEED0Ev"                       ; magicseg='TEXT32' len=45
  "__ZN6OpenSP3PtrINS_14StringResourceIjEEED2Ev"                        ; magicseg='TEXT32' len=44
  "__ZN6OpenSP13NamedResourceD2Ev"                                      ; magicseg='TEXT32' len=30
  "__ZN6OpenSP6VectorIPKcED1Ev"                                         ; magicseg='TEXT32' len=27
  "__ZN6OpenSP3PtrINS_19ExtendEntityManagerEED1Ev"                      ; magicseg='TEXT32' len=46
  "__ZN6OpenSP3PtrINS_15CodingSystemKitEED1Ev"                          ; magicseg='TEXT32' len=42
  "__ZN6OpenSP6VectorINS_12MessageType1EED1Ev"                          ; magicseg='TEXT32' len=42
  "__ZN6OpenSP6VectorINS_15MessageFragmentEED1Ev"                       ; magicseg='TEXT32' len=45
  "__ZN6OpenSP6VectorINS_10LongOptionIcEEED1Ev"                         ; magicseg='TEXT32' len=43
  "__ZN6OpenSP11CharMapPageIhED1Ev"                                     ; magicseg='TEXT32' len=31
  "__ZTSN6OpenSP6VectorINS_10SubstTable4PairEEE"                        ; magicseg='TEXT32' len=44
  "__ZTSN6OpenSP6VectorINS_6StringIjEEEE"                               ; magicseg='TEXT32' len=37
  "__ZTSN6OpenSP16StringMessageArgE"                                    ; magicseg='TEXT32' len=32
  "__ZTSN6OpenSP6VectorINS_13RangeMapRangeIjjEEEE"                      ; magicseg='TEXT32' len=46
  "__ZTSN6OpenSP6VectorINS_9ISetRangeIjEEEE"                            ; magicseg='TEXT32' len=40
  "__ZTSN6OpenSP6VectorINS_17StorageObjectSpecEEE"                      ; magicseg='TEXT32' len=46
  "__ZTSN6OpenSP6VectorINS_14ParsedSystemId3MapEEE"                     ; magicseg='TEXT32' len=47
  "__ZTSN6OpenSP14ParsedSystemIdE"                                      ; magicseg='TEXT32' len=30
  "__ZTSN6OpenSP6SyntaxE"                                               ; magicseg='TEXT32' len=21
  "__ZTSN6OpenSP6VectorINS_16CharsetDeclRangeEEE"                       ; magicseg='TEXT32' len=45
  "__ZTSN6OpenSP6VectorINS_18CharsetDeclSectionEEE"                     ; magicseg='TEXT32' len=47
  "__ZTSN6OpenSP14ExternalEntityE"                                      ; magicseg='TEXT32' len=30
  "__ZTSN6OpenSP8GroveAppE"                                             ; magicseg='TEXT32' len=23
  "__ZTSN14OpenJade_DSSSL8DssslAppE"                                    ; magicseg='TEXT32' len=32
  "__ZTSN6OpenSP11ArcDirectorE"                                         ; magicseg='TEXT32' len=27
  "__ZTSN6OpenSP20SelectOneArcDirectorE"                                ; magicseg='TEXT32' len=36
  "__ZTSN6OpenSP5OwnerIN14OpenJade_DSSSL10FOTBuilderEEE"                ; magicseg='TEXT32' len=52
  "__ZTSN6OpenSP5OwnerINS_12EventHandlerEEE"                            ; magicseg='TEXT32' len=40
  "__ZTSN6OpenSP13HashTableItemINS_6StringIjEEN14OpenJade_Grove7NodePtrEEE"                 ; magicseg='TEXT32' len=71
  "__ZTSN6OpenSP5OwnerINS_11InputSourceEEE"                             ; magicseg='TEXT32' len=39
  "__ZN6OpenSP9ParserAppD1Ev"                                           ; magicseg='TEXT32' len=25
  "__ZN6OpenSP9ParserAppD0Ev"                                           ; magicseg='TEXT32' len=25
  "__ZThn4_N6OpenSP9ParserAppD1Ev"                                      ; magicseg='TEXT32' len=30
  "__ZThn4_N6OpenSP9ParserAppD0Ev"                                      ; magicseg='TEXT32' len=30
  "__ZN6OpenSP10EntityDeclD1Ev"                                         ; magicseg='TEXT32' len=27
  "__ZN6OpenSP10EntityDeclD0Ev"                                         ; magicseg='TEXT32' len=27
  "__ZN6OpenSP9EntityAppD1Ev"                                           ; magicseg='TEXT32' len=25
  "__ZN6OpenSP9EntityAppD0Ev"                                           ; magicseg='TEXT32' len=25
  "__ZThn4_N6OpenSP9EntityAppD1Ev"                                      ; magicseg='TEXT32' len=30
  "__ZThn4_N6OpenSP9EntityAppD0Ev"                                      ; magicseg='TEXT32' len=30
  "__ZN6OpenSP10CmdLineAppD1Ev"                                         ; magicseg='TEXT32' len=27
  "__ZN6OpenSP10CmdLineAppD0Ev"                                         ; magicseg='TEXT32' len=27
  "__ZThn4_N6OpenSP10CmdLineAppD1Ev"                                    ; magicseg='TEXT32' len=32
  "__ZThn4_N6OpenSP10CmdLineAppD0Ev"                                    ; magicseg='TEXT32' len=32
  "__ZN6OpenSP6VectorIPKcE5eraseEPKS2_S5_"                              ; magicseg='TEXT32' len=38
  "__ZN6OpenSP6VectorINS_10LongOptionIcEEE5eraseEPKS2_S5_"              ; magicseg='TEXT32' len=54
  "__ZN6OpenSP6VectorINS_12MessageType1EE5eraseEPKS1_S4_"               ; magicseg='TEXT32' len=53
  "__ZN6OpenSP6VectorINS_15MessageFragmentEE5eraseEPKS1_S4_"            ; magicseg='TEXT32' len=56
  "__ZN6OpenSP13CharMapColumnIhED1Ev"                                   ; magicseg='TEXT32' len=33
  "__ZTSN6OpenSP13EntityCatalog6SyntaxE"                                ; magicseg='TEXT32' len=36
  "__ZTSN6OpenSP10MessageArgE"                                          ; magicseg='TEXT32' len=26
  "__ZTSN6OpenSP9MessengerE"                                            ; magicseg='TEXT32' len=24
  "__ZTSN6OpenSP10CmdLineAppE"                                          ; magicseg='TEXT32' len=26
  "__ZTSN6OpenSP9EntityAppE"                                            ; magicseg='TEXT32' len=24
  "__ZTSN6OpenSP10EntityDeclE"                                          ; magicseg='TEXT32' len=26
  "__ZTSN6OpenSP6EntityE"                                               ; magicseg='TEXT32' len=21
  "__ZTSN6OpenSP9ParserAppE"                                            ; magicseg='TEXT32' len=24
  "__ZTSN14OpenJade_DSSSL12GroveManagerE"                               ; magicseg='TEXT32' len=37
  "__ZTSN6OpenSP8ResourceE"                                             ; magicseg='TEXT32' len=23
  "__ZN6OpenSP5NamedD1Ev"                                               ; magicseg='TEXT32' len=21
  "__ZN6OpenSP5NamedD0Ev"                                               ; magicseg='TEXT32' len=21
  "__ZN6OpenSP6VectorIPKcED0Ev"                                         ; magicseg='TEXT32' len=27
  "__ZN6OpenSP6VectorINS_15MessageFragmentEED0Ev"                       ; magicseg='TEXT32' len=45
  "__ZN6OpenSP6VectorINS_12MessageType1EED0Ev"                          ; magicseg='TEXT32' len=42
  "__ZN6OpenSP6VectorINS_10LongOptionIcEEED0Ev"                         ; magicseg='TEXT32' len=43
  "__ZTSN6OpenSP15MessageReporterE"                                     ; magicseg='TEXT32' len=31
  "__ZTSN6OpenSP6VectorINS_10LongOptionIcEEEE"                          ; magicseg='TEXT32' len=42
  "__ZTSN6OpenSP6VectorINS_12MessageType1EEE"                           ; magicseg='TEXT32' len=41
  "__ZTSN6OpenSP6VectorINS_15MessageFragmentEEE"                        ; magicseg='TEXT32' len=44
  "__ZTSN6OpenSP6VectorIPKcEE"                                          ; magicseg='TEXT32' len=26
  "__ZTSN6OpenSP5NamedE"                                                ; magicseg='TEXT32' len=20
  "__ZTSN6OpenSP13NamedResourceE"                                       ; magicseg='TEXT32' len=29
  "__ZTSN6OpenSP16MessageFormatterE"                                    ; magicseg='TEXT32' len=32
  "__ZN14OpenJade_DSSSL21DssslSpecEventHandlerC2ERN6OpenSP9MessengerE"                      ; magicseg='TEXT32' len=66
  "__ZN14OpenJade_DSSSL21DssslSpecEventHandlerC1ERN6OpenSP9MessengerE"                      ; magicseg='TEXT32' len=66
  "__ZN14OpenJade_DSSSL21DssslSpecEventHandler4loadERN6OpenSP10SgmlParserERKNS1_11CharsetInfoERKNS1_6StringIjEERNS1_6VectorIPNS0_4PartEEE"                     ; magicseg='TEXT32' len=134
  "__ZN14OpenJade_DSSSL21DssslSpecEventHandler7findDocERKN6OpenSP6StringIjEE"               ; magicseg='TEXT32' len=73
  "__ZN14OpenJade_DSSSL21DssslSpecEventHandler3Doc4loadERS0_"           ; magicseg='TEXT32' len=57
  "__ZN14OpenJade_DSSSL21DssslSpecEventHandler3Doc16resolveFirstPartERS0_"                  ; magicseg='TEXT32' len=70
  "__ZN14OpenJade_DSSSL21DssslSpecEventHandler12resolvePartsEPNS0_4PartERN6OpenSP6VectorIS2_EE"                           ; magicseg='TEXT32' len=91
  "__ZN14OpenJade_DSSSL21DssslSpecEventHandler3Doc7refPartERKN6OpenSP6StringIjEE"           ; magicseg='TEXT32' len=77
  "__ZN14OpenJade_DSSSL21DssslSpecEventHandler10PartHeader7resolveERS0_"                    ; magicseg='TEXT32' len=68
  "__ZN14OpenJade_DSSSL21DssslSpecEventHandler3DocC1ERKN6OpenSP6StringIjEE"                 ; magicseg='TEXT32' len=71
  "__ZN6OpenSP6VectorIPN14OpenJade_DSSSL21DssslSpecEventHandler4PartEE8reserve1Ej"          ; magicseg='TEXT32' len=78
  "__ZN14OpenJade_DSSSL21DssslSpecEventHandler7loadDocERN6OpenSP10SgmlParserERNS0_3DocE"    ; magicseg='TEXT32' len=84
  "__ZN14OpenJade_DSSSL21DssslSpecEventHandler15arcEventHandlerEPKN6OpenSP6StringIjEEPKNS1_8NotationERKNS1_6VectorIS3_EEPKNS1_10SubstTableE"                   ; magicseg='TEXT32' len=136
  "__ZThn16_N14OpenJade_DSSSL21DssslSpecEventHandler15arcEventHandlerEPKN6OpenSP6StringIjEEPKNS1_8NotationERKNS1_6VectorIS3_EEPKNS1_10SubstTableE"             ; magicseg='TEXT32' len=142
  "__ZN14OpenJade_DSSSL21DssslSpecEventHandler7messageEPN6OpenSP12MessageEventE"            ; magicseg='TEXT32' len=76
  "__ZN14OpenJade_DSSSL21DssslSpecEventHandler23styleSpecificationStartERKN6OpenSP17StartElementEventE"                   ; magicseg='TEXT32' len=99
  "__ZN14OpenJade_DSSSL21DssslSpecEventHandler21styleSpecificationEndERKN6OpenSP15EndElementEventE"                       ; magicseg='TEXT32' len=95
  "__ZN14OpenJade_DSSSL21DssslSpecEventHandler27styleSpecificationBodyStartERKN6OpenSP17StartElementEventE"               ; magicseg='TEXT32' len=103
  "__ZN14OpenJade_DSSSL21DssslSpecEventHandler25styleSpecificationBodyEndERKN6OpenSP15EndElementEventE"                   ; magicseg='TEXT32' len=99
  "__ZN14OpenJade_DSSSL21DssslSpecEventHandler26externalSpecificationStartERKN6OpenSP17StartElementEventE"                ; magicseg='TEXT32' len=102
  "__ZN14OpenJade_DSSSL21DssslSpecEventHandler24externalSpecificationEndERKN6OpenSP15EndElementEventE"                    ; magicseg='TEXT32' len=98
  "__ZN14OpenJade_DSSSL21DssslSpecEventHandler16declarationStartERKN6OpenSP17StartElementEventE"                          ; magicseg='TEXT32' len=92
  "__ZN14OpenJade_DSSSL21DssslSpecEventHandler14declarationEndERKN6OpenSP15EndElementEventE"                              ; magicseg='TEXT32' len=88
  "__ZN14OpenJade_DSSSL21DssslSpecEventHandler9endPrologEPN6OpenSP14EndPrologEventE"        ; magicseg='TEXT32' len=80
  "__ZN14OpenJade_DSSSL21DssslSpecEventHandler3Doc11setLocationERKN6OpenSP8LocationE"       ; magicseg='TEXT32' len=81
  "__ZN14OpenJade_DSSSL21DssslSpecEventHandler12startElementEPN6OpenSP17StartElementEventE"                               ; magicseg='TEXT32' len=87
  "__ZN14OpenJade_DSSSL21DssslSpecEventHandler10endElementEPN6OpenSP15EndElementEventE"     ; magicseg='TEXT32' len=83
  "__ZN14OpenJade_DSSSL21DssslSpecEventHandler4dataEPN6OpenSP9DataEventE"                   ; magicseg='TEXT32' len=69
  "__ZN14OpenJade_DSSSL21DssslSpecEventHandler13attributeTextERKN6OpenSP17StartElementEventEPKc"                          ; magicseg='TEXT32' len=92
  "__ZN14OpenJade_DSSSL21DssslSpecEventHandler15attributeStringERKN6OpenSP17StartElementEventEPKc"                        ; magicseg='TEXT32' len=94
  "__ZN14OpenJade_DSSSL21DssslSpecEventHandler15attributeEntityERKN6OpenSP17StartElementEventEPKc"                        ; magicseg='TEXT32' len=94
  "__ZN6OpenSP3PtrINS_6EntityEEC2EPS1_"                                 ; magicseg='TEXT32' len=35
  "__ZN6OpenSP3PtrINS_6EntityEED2Ev"                                    ; magicseg='TEXT32' len=32
  "__ZN14OpenJade_DSSSL21DssslSpecEventHandler3Doc7refPartERKN6OpenSP6StringIjEERKNS2_8LocationE"                         ; magicseg='TEXT32' len=93
  "__ZN14OpenJade_DSSSL21DssslSpecEventHandler12ExternalPartC1EPNS0_10PartHeaderE"          ; magicseg='TEXT32' len=78
  "__ZN6OpenSP5OwnerIN14OpenJade_DSSSL21DssslSpecEventHandler8SpecPartEE3delEv"             ; magicseg='TEXT32' len=75
  "__ZN14OpenJade_DSSSL21DssslSpecEventHandler17ExternalFirstPartC1EPNS0_3DocE"             ; magicseg='TEXT32' len=75
  "__ZN14OpenJade_DSSSL21DssslSpecEventHandler4PartC1EPNS0_3DocE"       ; magicseg='TEXT32' len=61
  "__ZN6OpenSP3PtrINS_6OriginEEC2ERKS2_"                                ; magicseg='TEXT32' len=36
  "__ZN6OpenSP6VectorIPN14OpenJade_DSSSL21DssslSpecEventHandler10PartHeaderEE8reserve1Ej"                                 ; magicseg='TEXT32' len=85
  "__ZN14OpenJade_DSSSL21DssslSpecEventHandler17EntityBodyElementC1ERKN6OpenSP8ConstPtrINS2_6EntityEEE"                   ; magicseg='TEXT32' len=99
  "__ZN14OpenJade_DSSSL21DssslSpecEventHandler4Part6appendEPNS0_11BodyElementE"             ; magicseg='TEXT32' len=75
  "__ZN14OpenJade_DSSSL21DssslSpecEventHandler20ImmediateBodyElementC1ERN6OpenSP4TextE"     ; magicseg='TEXT32' len=83
  "__ZN14OpenJade_DSSSL21DssslSpecEventHandler18DeclarationElementC1ENS1_4TypeE"            ; magicseg='TEXT32' len=76
  "__ZN14OpenJade_DSSSL21DssslSpecEventHandler18DeclarationElement10setContentERN6OpenSP4TextE"                           ; magicseg='TEXT32' len=91
  "__ZN14OpenJade_DSSSL21DssslSpecEventHandler4Part6appendEPNS0_18DeclarationElementE"      ; magicseg='TEXT32' len=82
  "__ZN14OpenJade_DSSSL21DssslSpecEventHandler3Doc6appendEPNS0_18DeclarationElementE"       ; magicseg='TEXT32' len=81
  "__ZN14OpenJade_DSSSL21TextInputSourceOriginC2ERN6OpenSP4TextE"       ; magicseg='TEXT32' len=61
  "__ZN14OpenJade_DSSSL21TextInputSourceOriginC1ERN6OpenSP4TextE"       ; magicseg='TEXT32' len=61
  "__ZNK14OpenJade_DSSSL21TextInputSourceOrigin11defLocationEjRPKN6OpenSP6OriginERj"        ; magicseg='TEXT32' len=80
  "__ZN14OpenJade_DSSSL21TextInputSourceOrigin11noteCharRefEjRKN6OpenSP12NamedCharRefE"     ; magicseg='TEXT32' len=83
  "__ZN14OpenJade_DSSSL21TextInputSourceOrigin15setExternalInfoEPN6OpenSP12ExternalInfoE"                                 ; magicseg='TEXT32' len=85
  "__ZNK14OpenJade_DSSSL21TextInputSourceOrigin4copyEv"                 ; magicseg='TEXT32' len=51
  "__ZN6OpenSP4TextC1ERKS0_"                                            ; magicseg='TEXT32' len=24
  "__ZN6OpenSP17InputSourceOriginD2Ev"                                  ; magicseg='TEXT32' len=34
  "__ZNK14OpenJade_DSSSL21TextInputSourceOrigin6parentEv"               ; magicseg='TEXT32' len=53
  "__ZN14OpenJade_DSSSL21DssslSpecEventHandler3DocC2Ev"                 ; magicseg='TEXT32' len=51
  "__ZN14OpenJade_DSSSL21DssslSpecEventHandler3DocC1Ev"                 ; magicseg='TEXT32' len=51
  "__ZN14OpenJade_DSSSL21DssslSpecEventHandler3DocC2ERKN6OpenSP6StringIjEE"                 ; magicseg='TEXT32' len=71
  "__ZN6OpenSP3PtrINS_6OriginEEaSERKS2_"                                ; magicseg='TEXT32' len=36
  "__ZN14OpenJade_DSSSL21DssslSpecEventHandler10PartHeaderC1EPNS0_3DocERKN6OpenSP6StringIjEE"                             ; magicseg='TEXT32' len=89
  "__ZN14OpenJade_DSSSL21DssslSpecEventHandler10PartHeader9setRefLocERKN6OpenSP8LocationE"                                ; magicseg='TEXT32' len=86
  "__ZN14OpenJade_DSSSL21DssslSpecEventHandler11BodyElementD2Ev"        ; magicseg='TEXT32' len=60
  "__ZN14OpenJade_DSSSL21DssslSpecEventHandler11BodyElementD1Ev"        ; magicseg='TEXT32' len=60
  "__ZN14OpenJade_DSSSL21DssslSpecEventHandler11BodyElementD0Ev"        ; magicseg='TEXT32' len=60
  "__ZN14OpenJade_DSSSL21DssslSpecEventHandler20ImmediateBodyElementC2ERN6OpenSP4TextE"     ; magicseg='TEXT32' len=83
  "__ZN14OpenJade_DSSSL21DssslSpecEventHandler20ImmediateBodyElement15makeInputSourceERS0_RN6OpenSP5OwnerINS3_11InputSourceEEE"                                ; magicseg='TEXT32' len=123
  "__ZN6OpenSP5OwnerINS_11InputSourceEE3delEv"                          ; magicseg='TEXT32' len=42
  "__ZN14OpenJade_DSSSL21DssslSpecEventHandler18DeclarationElementC2ENS1_4TypeE"            ; magicseg='TEXT32' len=76
  "__ZN14OpenJade_DSSSL21DssslSpecEventHandler18DeclarationElement15makeInputSourceERS0_RN6OpenSP5OwnerINS3_11InputSourceEEE"                                  ; magicseg='TEXT32' len=121
  "__ZNK14OpenJade_DSSSL21DssslSpecEventHandler18DeclarationElement4typeEv"                 ; magicseg='TEXT32' len=71
  "__ZN14OpenJade_DSSSL21DssslSpecEventHandler17EntityBodyElementC2ERKN6OpenSP8ConstPtrINS2_6EntityEEE"                   ; magicseg='TEXT32' len=99
  "__ZN6OpenSP3PtrINS_6EntityEEC2ERKS2_"                                ; magicseg='TEXT32' len=36
  "__ZN14OpenJade_DSSSL21DssslSpecEventHandler17EntityBodyElement15makeInputSourceERS0_RN6OpenSP5OwnerINS3_11InputSourceEEE"                                   ; magicseg='TEXT32' len=120
  "__ZN14OpenJade_DSSSL21DssslSpecEventHandler10PartHeaderC2EPNS0_3DocERKN6OpenSP6StringIjEE"                             ; magicseg='TEXT32' len=89
  "__ZN14OpenJade_DSSSL21DssslSpecEventHandler8SpecPartD2Ev"            ; magicseg='TEXT32' len=56
  "__ZN14OpenJade_DSSSL21DssslSpecEventHandler8SpecPartD1Ev"            ; magicseg='TEXT32' len=56
  "__ZN14OpenJade_DSSSL21DssslSpecEventHandler8SpecPartD0Ev"            ; magicseg='TEXT32' len=56
  "__ZN14OpenJade_DSSSL21DssslSpecEventHandler12ExternalPartC2EPNS0_10PartHeaderE"          ; magicseg='TEXT32' len=78
  "__ZN14OpenJade_DSSSL21DssslSpecEventHandler12ExternalPart7resolveERS0_"                  ; magicseg='TEXT32' len=70
  "__ZN14OpenJade_DSSSL21DssslSpecEventHandler17ExternalFirstPartC2EPNS0_3DocE"             ; magicseg='TEXT32' len=75
  "__ZN14OpenJade_DSSSL21DssslSpecEventHandler17ExternalFirstPart7resolveERS0_"             ; magicseg='TEXT32' len=75
  "__ZN14OpenJade_DSSSL21DssslSpecEventHandler4PartC2EPNS0_3DocE"       ; magicseg='TEXT32' len=61
  "__ZN14OpenJade_DSSSL21DssslSpecEventHandler4Part7resolveERS0_"       ; magicseg='TEXT32' len=61
  "__ZN14OpenJade_DSSSL21DssslSpecEventHandler4Part3docEv"              ; magicseg='TEXT32' len=54
  "__ZN14OpenJade_DSSSL21TextInputSourceOriginD1Ev"                     ; magicseg='TEXT32' len=47
  "__ZN14OpenJade_DSSSL21TextInputSourceOriginD0Ev"                     ; magicseg='TEXT32' len=47
  "__ZN14OpenJade_DSSSL21DssslSpecEventHandlerD1Ev"                     ; magicseg='TEXT32' len=47
  "__ZN14OpenJade_DSSSL21DssslSpecEventHandlerD0Ev"                     ; magicseg='TEXT32' len=47
  "__ZN14OpenJade_DSSSL21DssslSpecEventHandler3DocD1Ev"                 ; magicseg='TEXT32' len=51
  "__ZN14OpenJade_DSSSL21DssslSpecEventHandler3DocD0Ev"                 ; magicseg='TEXT32' len=51
  "__ZN14OpenJade_DSSSL21DssslSpecEventHandler4PartD1Ev"                ; magicseg='TEXT32' len=52
  "__ZN14OpenJade_DSSSL21DssslSpecEventHandler4PartD0Ev"                ; magicseg='TEXT32' len=52
  "__ZN6OpenSP6VectorIPN14OpenJade_DSSSL21DssslSpecEventHandler10PartHeaderEED1Ev"          ; magicseg='TEXT32' len=78
  "__ZN6OpenSP6VectorIPN14OpenJade_DSSSL21DssslSpecEventHandler10PartHeaderEED0Ev"          ; magicseg='TEXT32' len=78
  "__ZN14OpenJade_DSSSL21DssslSpecEventHandler17ExternalFirstPartD1Ev"                      ; magicseg='TEXT32' len=66
  "__ZN14OpenJade_DSSSL21DssslSpecEventHandler17ExternalFirstPartD0Ev"                      ; magicseg='TEXT32' len=66
  "__ZN14OpenJade_DSSSL21DssslSpecEventHandler12ExternalPartD1Ev"       ; magicseg='TEXT32' len=61
  "__ZN14OpenJade_DSSSL21DssslSpecEventHandler12ExternalPartD0Ev"       ; magicseg='TEXT32' len=61
  "__ZN14OpenJade_DSSSL21DssslSpecEventHandler10PartHeaderD1Ev"         ; magicseg='TEXT32' len=59
  "__ZN14OpenJade_DSSSL21DssslSpecEventHandler10PartHeaderD0Ev"         ; magicseg='TEXT32' len=59
  "__ZN6OpenSP5OwnerIN14OpenJade_DSSSL21DssslSpecEventHandler8SpecPartEED1Ev"               ; magicseg='TEXT32' len=73
  "__ZN6OpenSP5OwnerIN14OpenJade_DSSSL21DssslSpecEventHandler8SpecPartEED0Ev"               ; magicseg='TEXT32' len=73
  "__ZN14OpenJade_DSSSL21DssslSpecEventHandler18DeclarationElementD1Ev"                     ; magicseg='TEXT32' len=67
  "__ZN14OpenJade_DSSSL21DssslSpecEventHandler18DeclarationElementD0Ev"                     ; magicseg='TEXT32' len=67
  "__ZN14OpenJade_DSSSL21DssslSpecEventHandler17EntityBodyElementD1Ev"                      ; magicseg='TEXT32' len=66
  "__ZN14OpenJade_DSSSL21DssslSpecEventHandler17EntityBodyElementD0Ev"                      ; magicseg='TEXT32' len=66
  "__ZN14OpenJade_DSSSL21DssslSpecEventHandler20ImmediateBodyElementD1Ev"                   ; magicseg='TEXT32' len=69
  "__ZN14OpenJade_DSSSL21DssslSpecEventHandler20ImmediateBodyElementD0Ev"                   ; magicseg='TEXT32' len=69
  "__ZN6OpenSP22ErrorCountEventHandlerD1Ev"                             ; magicseg='TEXT32' len=39
  "__ZN6OpenSP22ErrorCountEventHandlerD0Ev"                             ; magicseg='TEXT32' len=39
  "__ZN6OpenSP17InputSourceOriginD1Ev"                                  ; magicseg='TEXT32' len=34
  "__ZN6OpenSP17InputSourceOriginD0Ev"                                  ; magicseg='TEXT32' len=34
  "__ZN6OpenSP6VectorINS_8TextItemEEC1ERKS2_"                           ; magicseg='TEXT32' len=41
  "__ZN6OpenSP6VectorIPN14OpenJade_DSSSL21DssslSpecEventHandler10PartHeaderEE5eraseEPKS4_S7_"                             ; magicseg='TEXT32' len=89
  "__ZTSN6OpenSP17InputSourceOriginE"                                   ; magicseg='TEXT32' len=33
  "__ZTSN6OpenSP22ErrorCountEventHandlerE"                              ; magicseg='TEXT32' len=38
  "__ZTSN14OpenJade_DSSSL21DssslSpecEventHandler11BodyElementE"         ; magicseg='TEXT32' len=59
  "__ZTSN14OpenJade_DSSSL21DssslSpecEventHandler20ImmediateBodyElementE"                    ; magicseg='TEXT32' len=68
  "__ZTSN14OpenJade_DSSSL21DssslSpecEventHandler17EntityBodyElementE"                       ; magicseg='TEXT32' len=65
  "__ZTSN14OpenJade_DSSSL21DssslSpecEventHandler18DeclarationElementE"                      ; magicseg='TEXT32' len=66
  "__ZTSN6OpenSP5OwnerIN14OpenJade_DSSSL21DssslSpecEventHandler8SpecPartEEE"                ; magicseg='TEXT32' len=72
  "__ZTSN14OpenJade_DSSSL21DssslSpecEventHandler10PartHeaderE"          ; magicseg='TEXT32' len=58
  "__ZTSN14OpenJade_DSSSL21DssslSpecEventHandler8SpecPartE"             ; magicseg='TEXT32' len=55
  "__ZTSN14OpenJade_DSSSL21DssslSpecEventHandler12ExternalPartE"        ; magicseg='TEXT32' len=60
  "__ZTSN14OpenJade_DSSSL21DssslSpecEventHandler17ExternalFirstPartE"                       ; magicseg='TEXT32' len=65
  "__ZTSN6OpenSP6VectorIPN14OpenJade_DSSSL21DssslSpecEventHandler10PartHeaderEEE"           ; magicseg='TEXT32' len=77
  "__ZTSN14OpenJade_DSSSL21DssslSpecEventHandler4PartE"                 ; magicseg='TEXT32' len=51
  "__ZTSN14OpenJade_DSSSL21DssslSpecEventHandler3DocE"                  ; magicseg='TEXT32' len=50
  "__ZTSN14OpenJade_DSSSL21DssslSpecEventHandlerE"                      ; magicseg='TEXT32' len=46
  "__ZTSN14OpenJade_DSSSL21TextInputSourceOriginE"                      ; magicseg='TEXT32' len=46
  "__ZN6OpenSP6VectorINS_8TextItemEE6insertEPKS1_S4_S4_"                ; magicseg='TEXT32' len=52
  "__ZTSN6OpenSP4LinkE"                                                 ; magicseg='TEXT32' len=19
  "__ZTSN6OpenSP6OriginE"                                               ; magicseg='TEXT32' len=21
  "__ZTSN6OpenSP12EventHandlerE"                                        ; magicseg='TEXT32' len=28
  "__ZN6OpenSP6VectorINS_8TextItemEED1Ev"                               ; magicseg='TEXT32' len=37
  "__ZN6OpenSP6VectorINS_8TextItemEED0Ev"                               ; magicseg='TEXT32' len=37
  "__ZN6OpenSP6VectorINS_8TextItemEE5eraseEPKS1_S4_"                    ; magicseg='TEXT32' len=48
  "__ZN6OpenSP6VectorINS_8TextItemEE8reserve1Ej"                        ; magicseg='TEXT32' len=44
  "__ZTSN6OpenSP6VectorINS_8TextItemEEE"                                ; magicseg='TEXT32' len=36
  "__ZN14OpenJade_DSSSL5ELObjC2Ev"                                      ; magicseg='TEXT32' len=30
  "__ZN14OpenJade_DSSSL5ELObjC1Ev"                                      ; magicseg='TEXT32' len=30
  "__ZN14OpenJade_DSSSL5ELObj7isEqualERS0_"                             ; magicseg='TEXT32' len=39
  "__ZN14OpenJade_DSSSL5ELObj7isEquivERS0_"                             ; magicseg='TEXT32' len=39
  "__ZNK14OpenJade_DSSSL5ELObj5isNilEv"                                 ; magicseg='TEXT32' len=35
  "__ZNK14OpenJade_DSSSL5ELObj6isListEv"                                ; magicseg='TEXT32' len=36
  "__ZNK14OpenJade_DSSSL5ELObj6isTrueEv"                                ; magicseg='TEXT32' len=36
  "__ZN14OpenJade_DSSSL5ELObj6asPairEv"                                 ; magicseg='TEXT32' len=35
  "__ZN14OpenJade_DSSSL5ELObj8asVectorEv"                               ; magicseg='TEXT32' len=37
  "__ZN14OpenJade_DSSSL5ELObj8asSymbolEv"                               ; magicseg='TEXT32' len=37
  "__ZN14OpenJade_DSSSL5ELObj9asKeywordEv"                              ; magicseg='TEXT32' len=38
  "__ZN14OpenJade_DSSSL5ELObj15convertToStringEv"                       ; magicseg='TEXT32' len=45
  "__ZN14OpenJade_DSSSL5ELObj10asFunctionEv"                            ; magicseg='TEXT32' len=40
  "__ZN14OpenJade_DSSSL5ELObj8asSosofoEv"                               ; magicseg='TEXT32' len=37
  "__ZN14OpenJade_DSSSL5ELObj14asAppendSosofoEv"                        ; magicseg='TEXT32' len=44
  "__ZN14OpenJade_DSSSL5ELObj7asColorEv"                                ; magicseg='TEXT32' len=36
  "__ZN14OpenJade_DSSSL5ELObj12asColorSpaceEv"                          ; magicseg='TEXT32' len=42
  "__ZN14OpenJade_DSSSL5ELObj9asAddressEv"                              ; magicseg='TEXT32' len=38
  "__ZN14OpenJade_DSSSL5ELObj14asDisplaySpaceEv"                        ; magicseg='TEXT32' len=44
  "__ZN14OpenJade_DSSSL5ELObj13asInlineSpaceEv"                         ; magicseg='TEXT32' len=43
  "__ZN14OpenJade_DSSSL5ELObj17asGlyphSubstTableEv"                     ; magicseg='TEXT32' len=47
  "__ZN14OpenJade_DSSSL5ELObj10asLanguageEv"                            ; magicseg='TEXT32' len=40
  "__ZN14OpenJade_DSSSL5ELObj20optSingletonNodeListERNS_11EvalContextERNS_11InterpreterERN14OpenJade_Grove7NodePtrE"      ; magicseg='TEXT32' len=112
  "__ZN14OpenJade_DSSSL5ELObj10asNodeListEv"                            ; magicseg='TEXT32' len=40
  "__ZN14OpenJade_DSSSL5ELObj15asNamedNodeListEv"                       ; magicseg='TEXT32' len=45
  "__ZN14OpenJade_DSSSL5ELObj7asStyleEv"                                ; magicseg='TEXT32' len=36
  "__ZN14OpenJade_DSSSL5ELObj5asBoxEv"                                  ; magicseg='TEXT32' len=34
  "__ZN14OpenJade_DSSSL5ELObj5printERNS_11InterpreterERN6OpenSP16OutputCharStreamE"         ; magicseg='TEXT32' len=79
  "__ZN14OpenJade_DSSSL5ELObj5printERNS_11InterpreterERN6OpenSP16OutputCharStreamEj"        ; magicseg='TEXT32' len=80
  "__ZN14OpenJade_DSSSL5ELObj17exactIntegerValueERl"                    ; magicseg='TEXT32' len=48
  "__ZN14OpenJade_DSSSL5ELObj9realValueERd"                             ; magicseg='TEXT32' len=39
  "__ZN14OpenJade_DSSSL5ELObj16inexactRealValueERd"                     ; magicseg='TEXT32' len=47
  "__ZN14OpenJade_DSSSL5ELObj11lengthValueERl"                          ; magicseg='TEXT32' len=42
  "__ZN14OpenJade_DSSSL5ELObj13quantityValueERlRdRi"                    ; magicseg='TEXT32' len=48
  "__ZNK14OpenJade_DSSSL5ELObj10lengthSpecEv"                           ; magicseg='TEXT32' len=41
  "__ZN14OpenJade_DSSSL5ELObj10stringDataERPKjRj"                       ; magicseg='TEXT32' len=45
  "__ZN14OpenJade_DSSSL5ELObj9charValueERj"                             ; magicseg='TEXT32' len=39
  "__ZNK14OpenJade_DSSSL5ELObj7glyphIdEv"                               ; magicseg='TEXT32' len=37
  "__ZN14OpenJade_DSSSL5ELObj17resolveQuantitiesEbRNS_11InterpreterERKN6OpenSP8LocationE"                                 ; magicseg='TEXT32' len=85
  "__ZN14OpenJade_DSSSL8ErrorObjC2Ev"                                   ; magicseg='TEXT32' len=33
  "__ZN14OpenJade_DSSSL8ErrorObjC1Ev"                                   ; magicseg='TEXT32' len=33
  "__ZN14OpenJade_DSSSL8ErrorObj5printERNS_11InterpreterERN6OpenSP16OutputCharStreamE"      ; magicseg='TEXT32' len=82
  "__ZN14OpenJade_DSSSL14UnspecifiedObjC2Ev"                            ; magicseg='TEXT32' len=40
  "__ZN14OpenJade_DSSSL14UnspecifiedObjC1Ev"                            ; magicseg='TEXT32' len=40
  "__ZN14OpenJade_DSSSL14UnspecifiedObj5printERNS_11InterpreterERN6OpenSP16OutputCharStreamE"                             ; magicseg='TEXT32' len=89
  "__ZN14OpenJade_DSSSL6NilObjC2Ev"                                     ; magicseg='TEXT32' len=31
  "__ZN14OpenJade_DSSSL6NilObjC1Ev"                                     ; magicseg='TEXT32' len=31
  "__ZNK14OpenJade_DSSSL6NilObj5isNilEv"                                ; magicseg='TEXT32' len=36
  "__ZNK14OpenJade_DSSSL6NilObj6isListEv"                               ; magicseg='TEXT32' len=37
  "__ZN14OpenJade_DSSSL6NilObj5printERNS_11InterpreterERN6OpenSP16OutputCharStreamE"        ; magicseg='TEXT32' len=80
  "__ZN14OpenJade_DSSSL7TrueObjC2Ev"                                    ; magicseg='TEXT32' len=32
  "__ZN14OpenJade_DSSSL7TrueObjC1Ev"                                    ; magicseg='TEXT32' len=32
  "__ZN14OpenJade_DSSSL7TrueObj5printERNS_11InterpreterERN6OpenSP16OutputCharStreamE"       ; magicseg='TEXT32' len=81
  "__ZN14OpenJade_DSSSL8FalseObjC2Ev"                                   ; magicseg='TEXT32' len=33
  "__ZN14OpenJade_DSSSL8FalseObjC1Ev"                                   ; magicseg='TEXT32' len=33
  "__ZNK14OpenJade_DSSSL8FalseObj6isTrueEv"                             ; magicseg='TEXT32' len=39
  "__ZN14OpenJade_DSSSL8FalseObj5printERNS_11InterpreterERN6OpenSP16OutputCharStreamE"      ; magicseg='TEXT32' len=82
  "__ZN14OpenJade_DSSSL9SymbolObjC2EPNS_9StringObjE"                    ; magicseg='TEXT32' len=48
  "__ZN14OpenJade_DSSSL9SymbolObjC1EPNS_9StringObjE"                    ; magicseg='TEXT32' len=48
  "__ZNK14OpenJade_DSSSL9SymbolObj15traceSubObjectsER9Collector"        ; magicseg='TEXT32' len=60
  "__ZN14OpenJade_DSSSL9SymbolObj5printERNS_11InterpreterERN6OpenSP16OutputCharStreamE"     ; magicseg='TEXT32' len=83
  "__ZN14OpenJade_DSSSL9SymbolObj8asSymbolEv"                           ; magicseg='TEXT32' len=41
  "__ZN14OpenJade_DSSSL9SymbolObj15convertToStringEv"                   ; magicseg='TEXT32' len=49
  "__ZN14OpenJade_DSSSL10KeywordObjC2EPKNS_10IdentifierE"               ; magicseg='TEXT32' len=53
  "__ZN14OpenJade_DSSSL10KeywordObjC1EPKNS_10IdentifierE"               ; magicseg='TEXT32' len=53
  "__ZN14OpenJade_DSSSL10KeywordObj9asKeywordEv"                        ; magicseg='TEXT32' len=44
  "__ZN14OpenJade_DSSSL10KeywordObj7isEqualERNS_5ELObjE"                ; magicseg='TEXT32' len=52
  "__ZN14OpenJade_DSSSL10KeywordObj5printERNS_11InterpreterERN6OpenSP16OutputCharStreamE"                                 ; magicseg='TEXT32' len=85
  "__ZN14OpenJade_DSSSL7PairObjC2EPNS_5ELObjES2_"                       ; magicseg='TEXT32' len=45
  "__ZN14OpenJade_DSSSL7PairObjC1EPNS_5ELObjES2_"                       ; magicseg='TEXT32' len=45
  "__ZN14OpenJade_DSSSL7PairObj7isEqualERNS_5ELObjE"                    ; magicseg='TEXT32' len=48
  "__ZN14OpenJade_DSSSL7PairObj7isEquivERNS_5ELObjE"                    ; magicseg='TEXT32' len=48
  "__ZNK14OpenJade_DSSSL7PairObj15traceSubObjectsER9Collector"          ; magicseg='TEXT32' len=58
  "__ZN14OpenJade_DSSSL7PairObj17resolveQuantitiesEbRNS_11InterpreterERKN6OpenSP8LocationE"                               ; magicseg='TEXT32' len=87
  "__ZN14OpenJade_DSSSL7PairObj6asPairEv"                               ; magicseg='TEXT32' len=37
  "__ZNK14OpenJade_DSSSL7PairObj6isListEv"                              ; magicseg='TEXT32' len=38
  "__ZN14OpenJade_DSSSL7PairObj5printERNS_11InterpreterERN6OpenSP16OutputCharStreamE"       ; magicseg='TEXT32' len=81
  "__ZN14OpenJade_DSSSL9VectorObjC2Ev"                                  ; magicseg='TEXT32' len=34
  "__ZN14OpenJade_DSSSL9VectorObjC1Ev"                                  ; magicseg='TEXT32' len=34
  "__ZN14OpenJade_DSSSL9VectorObjC2ERN6OpenSP6VectorIPNS_5ELObjEEE"     ; magicseg='TEXT32' len=63
  "__ZN6OpenSP6VectorIPN14OpenJade_DSSSL5ELObjEE4swapERS4_"             ; magicseg='TEXT32' len=55
  "__ZN6OpenSP6VectorIPN14OpenJade_DSSSL5ELObjEED2Ev"                   ; magicseg='TEXT32' len=49
  "__ZN14OpenJade_DSSSL9VectorObjC1ERN6OpenSP6VectorIPNS_5ELObjEEE"     ; magicseg='TEXT32' len=63
  "__ZNK14OpenJade_DSSSL9VectorObj15traceSubObjectsER9Collector"        ; magicseg='TEXT32' len=60
  "__ZN14OpenJade_DSSSL9VectorObj8asVectorEv"                           ; magicseg='TEXT32' len=41
  "__ZN14OpenJade_DSSSL9VectorObj7isEquivERNS_5ELObjE"                  ; magicseg='TEXT32' len=50
  "__ZN14OpenJade_DSSSL9VectorObj7isEqualERNS_5ELObjE"                  ; magicseg='TEXT32' len=50
  "__ZN14OpenJade_DSSSL9VectorObj5printERNS_11InterpreterERN6OpenSP16OutputCharStreamE"     ; magicseg='TEXT32' len=83
  "__ZN14OpenJade_DSSSL9VectorObj17resolveQuantitiesEbRNS_11InterpreterERKN6OpenSP8LocationE"                             ; magicseg='TEXT32' len=89
  "__ZN14OpenJade_DSSSL7CharObjC2Ej"                                    ; magicseg='TEXT32' len=32
  "__ZN14OpenJade_DSSSL7CharObjC1Ej"                                    ; magicseg='TEXT32' len=32
  "__ZNK14OpenJade_DSSSL7CharObj7displayERNS_11InterpreterERN6OpenSP16OutputCharStreamE"    ; magicseg='TEXT32' len=84
  "__ZN14OpenJade_DSSSL7CharObj5printERNS_11InterpreterERN6OpenSP16OutputCharStreamE"       ; magicseg='TEXT32' len=81
  "__ZN14OpenJade_DSSSL7CharObj9charValueERj"                           ; magicseg='TEXT32' len=41
  "__ZN14OpenJade_DSSSL7CharObj7isEqualERNS_5ELObjE"                    ; magicseg='TEXT32' len=48
  "__ZN14OpenJade_DSSSL9StringObjC2Ev"                                  ; magicseg='TEXT32' len=34
  "__ZN6OpenSP6StringIjEC2Ev"                                           ; magicseg='TEXT32' len=25
  "__ZN14OpenJade_DSSSL9StringObjC1Ev"                                  ; magicseg='TEXT32' len=34
  "__ZN14OpenJade_DSSSL9StringObjC2ERKN6OpenSP6StringIjEE"              ; magicseg='TEXT32' len=54
  "__ZN6OpenSP6StringIjEC2ERKS1_"                                       ; magicseg='TEXT32' len=29
  "__ZN14OpenJade_DSSSL9StringObjC1ERKN6OpenSP6StringIjEE"              ; magicseg='TEXT32' len=54
  "__ZN14OpenJade_DSSSL9StringObjC2EPKjj"                               ; magicseg='TEXT32' len=37
  "__ZN6OpenSP6StringIjEC2EPKjj"                                        ; magicseg='TEXT32' len=28
  "__ZN14OpenJade_DSSSL9StringObjC1EPKjj"                               ; magicseg='TEXT32' len=37
  "__ZN14OpenJade_DSSSL9StringObj10stringDataERPKjRj"                   ; magicseg='TEXT32' len=49
  "__ZN14OpenJade_DSSSL9StringObj7isEqualERNS_5ELObjE"                  ; magicseg='TEXT32' len=50
  "__ZN14OpenJade_DSSSL9StringObj15convertToStringEv"                   ; magicseg='TEXT32' len=49
  "__ZN14OpenJade_DSSSL9StringObj5printERNS_11InterpreterERN6OpenSP16OutputCharStreamE"     ; magicseg='TEXT32' len=83
  "__ZN14OpenJade_DSSSL10IntegerObjC2Ev"                                ; magicseg='TEXT32' len=36
  "__ZN14OpenJade_DSSSL10IntegerObjC1Ev"                                ; magicseg='TEXT32' len=36
  "__ZN14OpenJade_DSSSL10IntegerObjC2El"                                ; magicseg='TEXT32' len=36
  "__ZN14OpenJade_DSSSL10IntegerObjC1El"                                ; magicseg='TEXT32' len=36
  "__ZN14OpenJade_DSSSL10IntegerObj7isEqualERNS_5ELObjE"                ; magicseg='TEXT32' len=52
  "__ZN14OpenJade_DSSSL10IntegerObj5printERNS_11InterpreterERN6OpenSP16OutputCharStreamE"                                 ; magicseg='TEXT32' len=85
  "__ZN14OpenJade_DSSSL10IntegerObj5printERNS_11InterpreterERN6OpenSP16OutputCharStreamEj"                                ; magicseg='TEXT32' len=86
  "__ZN14OpenJade_DSSSL10IntegerObj17exactIntegerValueERl"              ; magicseg='TEXT32' len=54
  "__ZN14OpenJade_DSSSL10IntegerObj9realValueERd"                       ; magicseg='TEXT32' len=45
  "__ZN14OpenJade_DSSSL10IntegerObj13quantityValueERlRdRi"              ; magicseg='TEXT32' len=54
  "__ZN14OpenJade_DSSSL7RealObjC2Ed"                                    ; magicseg='TEXT32' len=32
  "__ZN14OpenJade_DSSSL7RealObjC1Ed"                                    ; magicseg='TEXT32' len=32
  "__ZN14OpenJade_DSSSL7RealObj7isEqualERNS_5ELObjE"                    ; magicseg='TEXT32' len=48
  "__ZN14OpenJade_DSSSL7RealObj9realValueERd"                           ; magicseg='TEXT32' len=41
  "__ZN14OpenJade_DSSSL7RealObj16inexactRealValueERd"                   ; magicseg='TEXT32' len=49
  "__ZN14OpenJade_DSSSL7RealObj13quantityValueERlRdRi"                  ; magicseg='TEXT32' len=50
  "__ZN14OpenJade_DSSSL7RealObj5printERNS_11InterpreterERN6OpenSP16OutputCharStreamE"       ; magicseg='TEXT32' len=81
  "__ZN14OpenJade_DSSSL9LengthObjC2El"                                  ; magicseg='TEXT32' len=34
  "__ZN14OpenJade_DSSSL9LengthObjC1El"                                  ; magicseg='TEXT32' len=34
  "__ZN14OpenJade_DSSSL9LengthObj11lengthValueERl"                      ; magicseg='TEXT32' len=46
  "__ZN14OpenJade_DSSSL9LengthObj13quantityValueERlRdRi"                ; magicseg='TEXT32' len=52
  "__ZN14OpenJade_DSSSL9LengthObj7isEqualERNS_5ELObjE"                  ; magicseg='TEXT32' len=50
  "__ZN14OpenJade_DSSSL9LengthObj5printERNS_11InterpreterERN6OpenSP16OutputCharStreamE"     ; magicseg='TEXT32' len=83
  "__ZN14OpenJade_DSSSL11QuantityObjC2Edi"                              ; magicseg='TEXT32' len=38
  "__ZN14OpenJade_DSSSL11QuantityObjC1Edi"                              ; magicseg='TEXT32' len=38
  "__ZN14OpenJade_DSSSL11QuantityObj7isEqualERNS_5ELObjE"               ; magicseg='TEXT32' len=53
  "__ZN14OpenJade_DSSSL11QuantityObj13quantityValueERlRdRi"             ; magicseg='TEXT32' len=55
  "__ZN14OpenJade_DSSSL11QuantityObj5printERNS_11InterpreterERN6OpenSP16OutputCharStreamE"                                ; magicseg='TEXT32' len=86
  "__ZN14OpenJade_DSSSL11QuantityObj9realValueERd"                      ; magicseg='TEXT32' len=46
  "__ZN14OpenJade_DSSSL11QuantityObj16inexactRealValueERd"              ; magicseg='TEXT32' len=54
  "__ZN14OpenJade_DSSSL13LengthSpecObjC2ERKNS_10LengthSpecE"            ; magicseg='TEXT32' len=56
  "__ZN14OpenJade_DSSSL13LengthSpecObjC1ERKNS_10LengthSpecE"            ; magicseg='TEXT32' len=56
  "__ZNK14OpenJade_DSSSL13LengthSpecObj10lengthSpecEv"                  ; magicseg='TEXT32' len=50
  "__ZN14OpenJade_DSSSL10LengthSpecC2Ev"                                ; magicseg='TEXT32' len=36
  "__ZN14OpenJade_DSSSL10LengthSpecC1Ev"                                ; magicseg='TEXT32' len=36
  "__ZN14OpenJade_DSSSL10LengthSpecC2Ed"                                ; magicseg='TEXT32' len=36
  "__ZN14OpenJade_DSSSL10LengthSpecC1Ed"                                ; magicseg='TEXT32' len=36
  "__ZN14OpenJade_DSSSL10LengthSpecC2ENS0_7UnknownEd"                   ; magicseg='TEXT32' len=49
  "__ZN14OpenJade_DSSSL10LengthSpecC1ENS0_7UnknownEd"                   ; magicseg='TEXT32' len=49
  "__ZN14OpenJade_DSSSL10LengthSpecpLERKS0_"                            ; magicseg='TEXT32' len=40
  "__ZN14OpenJade_DSSSL10LengthSpecmIERKS0_"                            ; magicseg='TEXT32' len=40
  "__ZN14OpenJade_DSSSL10LengthSpecmLEd"                                ; magicseg='TEXT32' len=36
  "__ZN14OpenJade_DSSSL10LengthSpecdVEd"                                ; magicseg='TEXT32' len=36
  "__ZNK14OpenJade_DSSSL10LengthSpec7convertERNS_10FOTBuilder10LengthSpecE"                 ; magicseg='TEXT32' len=71
  "__ZNK14OpenJade_DSSSL10LengthSpec7convertERNS_10FOTBuilder15TableLengthSpecE"            ; magicseg='TEXT32' len=76
  "__ZN14OpenJade_DSSSL15DisplaySpaceObjC2ERKNS_10FOTBuilder12DisplaySpaceE"                ; magicseg='TEXT32' len=72
  "__ZN14OpenJade_DSSSL15DisplaySpaceObjC1ERKNS_10FOTBuilder12DisplaySpaceE"                ; magicseg='TEXT32' len=72
  "__ZNK14OpenJade_DSSSL15DisplaySpaceObj12displaySpaceEv"              ; magicseg='TEXT32' len=54
  "__ZN14OpenJade_DSSSL15DisplaySpaceObj14asDisplaySpaceEv"             ; magicseg='TEXT32' len=55
  "__ZN14OpenJade_DSSSL14InlineSpaceObjC2ERKNS_10FOTBuilder11InlineSpaceE"                  ; magicseg='TEXT32' len=70
  "__ZN14OpenJade_DSSSL14InlineSpaceObjC1ERKNS_10FOTBuilder11InlineSpaceE"                  ; magicseg='TEXT32' len=70
  "__ZNK14OpenJade_DSSSL14InlineSpaceObj11inlineSpaceEv"                ; magicseg='TEXT32' len=52
  "__ZN14OpenJade_DSSSL14InlineSpaceObj13asInlineSpaceEv"               ; magicseg='TEXT32' len=53
  "__ZN14OpenJade_DSSSL19UnresolvedLengthObjC2EliPNS_4UnitE"            ; magicseg='TEXT32' len=56
  "__ZN14OpenJade_DSSSL19UnresolvedLengthObjC1EliPNS_4UnitE"            ; magicseg='TEXT32' len=56
  "__ZN14OpenJade_DSSSL19UnresolvedLengthObj17resolveQuantitiesEbRNS_11InterpreterERKN6OpenSP8LocationE"                  ; magicseg='TEXT32' len=100
  "__ZN14OpenJade_DSSSL21UnresolvedQuantityObjC2EdPNS_4UnitEi"          ; magicseg='TEXT32' len=58
  "__ZN14OpenJade_DSSSL21UnresolvedQuantityObjC1EdPNS_4UnitEi"          ; magicseg='TEXT32' len=58
  "__ZN14OpenJade_DSSSL21UnresolvedQuantityObj17resolveQuantitiesEbRNS_11InterpreterERKN6OpenSP8LocationE"                ; magicseg='TEXT32' len=102
  "__ZN14OpenJade_DSSSL10GlyphIdObjC2ERKNS_10FOTBuilder7GlyphIdE"       ; magicseg='TEXT32' len=61
  "__ZN14OpenJade_DSSSL10GlyphIdObjC1ERKNS_10FOTBuilder7GlyphIdE"       ; magicseg='TEXT32' len=61
  "__ZNK14OpenJade_DSSSL10GlyphIdObj7glyphIdEv"                         ; magicseg='TEXT32' len=43
  "__ZN14OpenJade_DSSSL10GlyphIdObj7isEqualERNS_5ELObjE"                ; magicseg='TEXT32' len=52
  "__ZN14OpenJade_DSSSL18GlyphSubstTableObjC2ERKN6OpenSP8ConstPtrINS_10FOTBuilder15GlyphSubstTableEEE"                    ; magicseg='TEXT32' len=98
  "__ZN6OpenSP3PtrIN14OpenJade_DSSSL10FOTBuilder15GlyphSubstTableEEC2ERKS4_"                ; magicseg='TEXT32' len=72
  "__ZN14OpenJade_DSSSL18GlyphSubstTableObjC1ERKN6OpenSP8ConstPtrINS_10FOTBuilder15GlyphSubstTableEEE"                    ; magicseg='TEXT32' len=98
  "__ZN14OpenJade_DSSSL18GlyphSubstTableObj17asGlyphSubstTableEv"       ; magicseg='TEXT32' len=61
  "__ZN14OpenJade_DSSSL10AddressObjC2ENS_10FOTBuilder7Address4TypeERKN14OpenJade_Grove7NodePtrERKN6OpenSP6StringIjEESC_SC_"                                    ; magicseg='TEXT32' len=119
  "__ZN14OpenJade_DSSSL10FOTBuilder7AddressC1Ev"                        ; magicseg='TEXT32' len=44
  "__ZN6OpenSP5OwnerIN14OpenJade_DSSSL10FOTBuilder7AddressEE3delEv"     ; magicseg='TEXT32' len=63
  "__ZN6OpenSP5OwnerIN14OpenJade_DSSSL10FOTBuilder7AddressEED1Ev"       ; magicseg='TEXT32' len=61
  "__ZN14OpenJade_DSSSL10AddressObjC1ENS_10FOTBuilder7Address4TypeERKN14OpenJade_Grove7NodePtrERKN6OpenSP6StringIjEESC_SC_"                                    ; magicseg='TEXT32' len=119
  "__ZN14OpenJade_DSSSL10AddressObj9asAddressEv"                        ; magicseg='TEXT32' len=44
  "__ZN14OpenJade_DSSSL11NodeListObj10asNodeListEv"                     ; magicseg='TEXT32' len=47
  "__ZN14OpenJade_DSSSL11NodeListObj15nodeListNoOrderER9Collector"      ; magicseg='TEXT32' len=62
  "__ZN14OpenJade_DSSSL11NodeListObj17nodeListChunkRestERNS_11EvalContextERNS_11InterpreterERb"                           ; magicseg='TEXT32' len=91
  "__ZN14OpenJade_DSSSL11NodeListObj20optSingletonNodeListERNS_11EvalContextERNS_11InterpreterERN14OpenJade_Grove7NodePtrE"                                    ; magicseg='TEXT32' len=119
  "__ZN14OpenJade_DSSSL11NodeListObj11nodeListRefElRNS_11EvalContextERNS_11InterpreterE"    ; magicseg='TEXT32' len=84
  "__ZN14OpenJade_DSSSL11NodeListObj15nodeListReverseERNS_11EvalContextERNS_11InterpreterE"                               ; magicseg='TEXT32' len=87
  "__ZN14OpenJade_DSSSL18ReverseNodeListObjC1EPNS_11NodeListObjE"       ; magicseg='TEXT32' len=61
  "__ZN14OpenJade_DSSSL11NodeListObj14nodeListLengthERNS_11EvalContextERNS_11InterpreterE"                                ; magicseg='TEXT32' len=86
  "__ZN14OpenJade_DSSSL11NodeListObj13suppressErrorEv"                  ; magicseg='TEXT32' len=50
  "__ZN14OpenJade_DSSSL16NamedNodeListObj15asNamedNodeListEv"           ; magicseg='TEXT32' len=57
  "__ZN14OpenJade_DSSSL18NodePtrNodeListObjC2Ev"                        ; magicseg='TEXT32' len=44
  "__ZN14OpenJade_DSSSL18NodePtrNodeListObjC1Ev"                        ; magicseg='TEXT32' len=44
  "__ZN14OpenJade_DSSSL18NodePtrNodeListObjC2ERKN14OpenJade_Grove7NodePtrE"                 ; magicseg='TEXT32' len=71
  "__ZN14OpenJade_DSSSL18NodePtrNodeListObjC1ERKN14OpenJade_Grove7NodePtrE"                 ; magicseg='TEXT32' len=71
  "__ZN14OpenJade_DSSSL18NodePtrNodeListObj20optSingletonNodeListERNS_11EvalContextERNS_11InterpreterERN14OpenJade_Grove7NodePtrE"                             ; magicseg='TEXT32' len=126
  "__ZN14OpenJade_DSSSL18NodePtrNodeListObj13nodeListFirstERNS_11EvalContextERNS_11InterpreterE"                          ; magicseg='TEXT32' len=92
  "__ZN14OpenJade_DSSSL18NodePtrNodeListObj12nodeListRestERNS_11EvalContextERNS_11InterpreterE"                           ; magicseg='TEXT32' len=91
  "__ZN14OpenJade_DSSSL22NodeListPtrNodeListObjC2ERKN14OpenJade_Grove11NodeListPtrE"        ; magicseg='TEXT32' len=80
  "__ZN14OpenJade_DSSSL22NodeListPtrNodeListObjC1ERKN14OpenJade_Grove11NodeListPtrE"        ; magicseg='TEXT32' len=80
  "__ZN14OpenJade_DSSSL22NodeListPtrNodeListObj13nodeListFirstERNS_11EvalContextERNS_11InterpreterE"                      ; magicseg='TEXT32' len=96
  "__ZN14OpenJade_DSSSL22NodeListPtrNodeListObj12nodeListRestERNS_11EvalContextERNS_11InterpreterE"                       ; magicseg='TEXT32' len=95
  "__ZN14OpenJade_DSSSL22NodeListPtrNodeListObj17nodeListChunkRestERNS_11EvalContextERNS_11InterpreterERb"                ; magicseg='TEXT32' len=102
  "__ZN14OpenJade_DSSSL22NodeListPtrNodeListObj11nodeListRefElRNS_11EvalContextERNS_11InterpreterE"                       ; magicseg='TEXT32' len=95
  "__ZN14OpenJade_DSSSL27NamedNodeListPtrNodeListObjC2ERKN14OpenJade_Grove16NamedNodeListPtrE"                            ; magicseg='TEXT32' len=90
  "__ZN9Collector6ObjectD2Ev"                                           ; magicseg='TEXT32' len=25
  "__ZN14OpenJade_DSSSL27NamedNodeListPtrNodeListObjC1ERKN14OpenJade_Grove16NamedNodeListPtrE"                            ; magicseg='TEXT32' len=90
  "__ZN14OpenJade_DSSSL27NamedNodeListPtrNodeListObj9namedNodeEPKjj"    ; magicseg='TEXT32' len=64
  "__ZN14OpenJade_DSSSL27NamedNodeListPtrNodeListObj8nodeNameERKN14OpenJade_Grove7NodePtrERNS1_11GroveStringE"            ; magicseg='TEXT32' len=106
  "__ZN14OpenJade_DSSSL27NamedNodeListPtrNodeListObj9normalizeEPjj"     ; magicseg='TEXT32' len=63
  "__ZN14OpenJade_DSSSL27NamedNodeListPtrNodeListObj13nodeListFirstERNS_11EvalContextERNS_11InterpreterE"                 ; magicseg='TEXT32' len=101
  "__ZN14OpenJade_DSSSL27NamedNodeListPtrNodeListObj12nodeListRestERNS_11EvalContextERNS_11InterpreterE"                  ; magicseg='TEXT32' len=100
  "__ZN14OpenJade_DSSSL27NamedNodeListPtrNodeListObj15nodeListNoOrderER9Collector"          ; magicseg='TEXT32' len=78
  "__ZN14OpenJade_DSSSL15PairNodeListObjC2EPNS_11NodeListObjES2_"       ; magicseg='TEXT32' len=61
  "__ZN14OpenJade_DSSSL15PairNodeListObjC1EPNS_11NodeListObjES2_"       ; magicseg='TEXT32' len=61
  "__ZN14OpenJade_DSSSL15PairNodeListObj13nodeListFirstERNS_11EvalContextERNS_11InterpreterE"                             ; magicseg='TEXT32' len=89
  "__ZN14OpenJade_DSSSL15PairNodeListObj12nodeListRestERNS_11EvalContextERNS_11InterpreterE"                              ; magicseg='TEXT32' len=88
  "__ZN14OpenJade_DSSSL15PairNodeListObj17nodeListChunkRestERNS_11EvalContextERNS_11InterpreterERb"                       ; magicseg='TEXT32' len=95
  "__ZNK14OpenJade_DSSSL15PairNodeListObj15traceSubObjectsER9Collector"                     ; magicseg='TEXT32' len=67
  "__ZN14OpenJade_DSSSL18ReverseNodeListObjC2EPNS_11NodeListObjE"       ; magicseg='TEXT32' len=61
  "__ZN14OpenJade_DSSSL18ReverseNodeListObj13nodeListFirstERNS_11EvalContextERNS_11InterpreterE"                          ; magicseg='TEXT32' len=92
  "__ZN14OpenJade_DSSSL18ReverseNodeListObj8reversedERNS_11EvalContextERNS_11InterpreterE"                                ; magicseg='TEXT32' len=86
  "__ZN14OpenJade_DSSSL18ReverseNodeListObj12nodeListRestERNS_11EvalContextERNS_11InterpreterE"                           ; magicseg='TEXT32' len=91
  "__ZN14OpenJade_DSSSL18ReverseNodeListObj11nodeListRefElRNS_11EvalContextERNS_11InterpreterE"                           ; magicseg='TEXT32' len=91
  "__ZN14OpenJade_DSSSL18ReverseNodeListObj15nodeListReverseERNS_11EvalContextERNS_11InterpreterE"                        ; magicseg='TEXT32' len=94
  "__ZN14OpenJade_DSSSL18ReverseNodeListObj14nodeListLengthERNS_11EvalContextERNS_11InterpreterE"                         ; magicseg='TEXT32' len=93
  "__ZNK14OpenJade_DSSSL18ReverseNodeListObj15traceSubObjectsER9Collector"                  ; magicseg='TEXT32' len=70
  "__ZN6OpenSP6VectorIPN14OpenJade_DSSSL5ELObjEE5eraseEPKS3_S6_"        ; magicseg='TEXT32' len=60
  "__ZN14OpenJade_DSSSL18ReverseNodeListObjD1Ev"                        ; magicseg='TEXT32' len=44
  "__ZN14OpenJade_DSSSL18ReverseNodeListObjD0Ev"                        ; magicseg='TEXT32' len=44
  "__ZN14OpenJade_DSSSL16ELObjDynamicRootD1Ev"                          ; magicseg='TEXT32' len=42
  "__ZN14OpenJade_DSSSL16ELObjDynamicRootD0Ev"                          ; magicseg='TEXT32' len=42
  "__ZN14OpenJade_DSSSL15PairNodeListObjD1Ev"                           ; magicseg='TEXT32' len=41
  "__ZN14OpenJade_DSSSL15PairNodeListObjD0Ev"                           ; magicseg='TEXT32' len=41
  "__ZN14OpenJade_DSSSL27NamedNodeListPtrNodeListObjD1Ev"               ; magicseg='TEXT32' len=53
  "__ZN14OpenJade_DSSSL27NamedNodeListPtrNodeListObjD0Ev"               ; magicseg='TEXT32' len=53
  "__ZN14OpenJade_DSSSL22NodeListPtrNodeListObjD1Ev"                    ; magicseg='TEXT32' len=48
  "__ZN14OpenJade_DSSSL22NodeListPtrNodeListObjD0Ev"                    ; magicseg='TEXT32' len=48
  "__ZN14OpenJade_DSSSL18NodePtrNodeListObjD1Ev"                        ; magicseg='TEXT32' len=44
  "__ZN14OpenJade_DSSSL18NodePtrNodeListObjD0Ev"                        ; magicseg='TEXT32' len=44
  "__ZN14OpenJade_DSSSL16NamedNodeListObjD1Ev"                          ; magicseg='TEXT32' len=42
  "__ZN14OpenJade_DSSSL16NamedNodeListObjD0Ev"                          ; magicseg='TEXT32' len=42
  "__ZN14OpenJade_DSSSL11NodeListObjD1Ev"                               ; magicseg='TEXT32' len=37
  "__ZN14OpenJade_DSSSL11NodeListObjD0Ev"                               ; magicseg='TEXT32' len=37
  "__ZN14OpenJade_DSSSL10AddressObjD1Ev"                                ; magicseg='TEXT32' len=36
  "__ZN14OpenJade_DSSSL10AddressObjD0Ev"                                ; magicseg='TEXT32' len=36
  "__ZN6OpenSP5OwnerIN14OpenJade_DSSSL10FOTBuilder7AddressEED0Ev"       ; magicseg='TEXT32' len=61
  "__ZN14OpenJade_DSSSL18GlyphSubstTableObjD1Ev"                        ; magicseg='TEXT32' len=44
  "__ZN14OpenJade_DSSSL18GlyphSubstTableObjD0Ev"                        ; magicseg='TEXT32' len=44
  "__ZN14OpenJade_DSSSL10GlyphIdObjD1Ev"                                ; magicseg='TEXT32' len=36
  "__ZN14OpenJade_DSSSL10GlyphIdObjD0Ev"                                ; magicseg='TEXT32' len=36
  "__ZN14OpenJade_DSSSL19UnresolvedLengthObjD1Ev"                       ; magicseg='TEXT32' len=45
  "__ZN14OpenJade_DSSSL19UnresolvedLengthObjD0Ev"                       ; magicseg='TEXT32' len=45
  "__ZN14OpenJade_DSSSL21UnresolvedQuantityObjD1Ev"                     ; magicseg='TEXT32' len=47
  "__ZN14OpenJade_DSSSL21UnresolvedQuantityObjD0Ev"                     ; magicseg='TEXT32' len=47
  "__ZN14OpenJade_DSSSL14InlineSpaceObjD1Ev"                            ; magicseg='TEXT32' len=40
  "__ZN14OpenJade_DSSSL14InlineSpaceObjD0Ev"                            ; magicseg='TEXT32' len=40
  "__ZN6OpenSP5OwnerIN14OpenJade_DSSSL10FOTBuilder11InlineSpaceEED1Ev"                      ; magicseg='TEXT32' len=66
  "__ZN6OpenSP5OwnerIN14OpenJade_DSSSL10FOTBuilder11InlineSpaceEED0Ev"                      ; magicseg='TEXT32' len=66
  "__ZN14OpenJade_DSSSL15DisplaySpaceObjD1Ev"                           ; magicseg='TEXT32' len=41
  "__ZN14OpenJade_DSSSL15DisplaySpaceObjD0Ev"                           ; magicseg='TEXT32' len=41
  "__ZN6OpenSP5OwnerIN14OpenJade_DSSSL10FOTBuilder12DisplaySpaceEED1Ev"                     ; magicseg='TEXT32' len=67
  "__ZN6OpenSP5OwnerIN14OpenJade_DSSSL10FOTBuilder12DisplaySpaceEED0Ev"                     ; magicseg='TEXT32' len=67
  "__ZN14OpenJade_DSSSL13LengthSpecObjD1Ev"                             ; magicseg='TEXT32' len=39
  "__ZN14OpenJade_DSSSL13LengthSpecObjD0Ev"                             ; magicseg='TEXT32' len=39
  "__ZN6OpenSP5OwnerIN14OpenJade_DSSSL10LengthSpecEED1Ev"               ; magicseg='TEXT32' len=53
  "__ZN6OpenSP5OwnerIN14OpenJade_DSSSL10LengthSpecEED0Ev"               ; magicseg='TEXT32' len=53
  "__ZN14OpenJade_DSSSL11QuantityObjD1Ev"                               ; magicseg='TEXT32' len=37
  "__ZN14OpenJade_DSSSL11QuantityObjD0Ev"                               ; magicseg='TEXT32' len=37
  "__ZN14OpenJade_DSSSL9LengthObjD1Ev"                                  ; magicseg='TEXT32' len=34
  "__ZN14OpenJade_DSSSL9LengthObjD0Ev"                                  ; magicseg='TEXT32' len=34
  "__ZN14OpenJade_DSSSL7RealObjD1Ev"                                    ; magicseg='TEXT32' len=32
  "__ZN14OpenJade_DSSSL7RealObjD0Ev"                                    ; magicseg='TEXT32' len=32
  "__ZN14OpenJade_DSSSL10IntegerObjD1Ev"                                ; magicseg='TEXT32' len=36
  "__ZN14OpenJade_DSSSL10IntegerObjD0Ev"                                ; magicseg='TEXT32' len=36
  "__ZN14OpenJade_DSSSL9StringObjD1Ev"                                  ; magicseg='TEXT32' len=34
  "__ZN14OpenJade_DSSSL9StringObjD0Ev"                                  ; magicseg='TEXT32' len=34
  "__ZN14OpenJade_DSSSL7CharObjD1Ev"                                    ; magicseg='TEXT32' len=32
  "__ZN14OpenJade_DSSSL7CharObjD0Ev"                                    ; magicseg='TEXT32' len=32
  "__ZN14OpenJade_DSSSL9VectorObjD1Ev"                                  ; magicseg='TEXT32' len=34
  "__ZN14OpenJade_DSSSL9VectorObjD0Ev"                                  ; magicseg='TEXT32' len=34
  "__ZThn16_N14OpenJade_DSSSL9VectorObjD1Ev"                            ; magicseg='TEXT32' len=40
  "__ZThn16_N14OpenJade_DSSSL9VectorObjD0Ev"                            ; magicseg='TEXT32' len=40
  "__ZN6OpenSP6VectorIPN14OpenJade_DSSSL5ELObjEED1Ev"                   ; magicseg='TEXT32' len=49
  "__ZN6OpenSP6VectorIPN14OpenJade_DSSSL5ELObjEED0Ev"                   ; magicseg='TEXT32' len=49
  "__ZN14OpenJade_DSSSL7PairObjD1Ev"                                    ; magicseg='TEXT32' len=32
  "__ZN14OpenJade_DSSSL7PairObjD0Ev"                                    ; magicseg='TEXT32' len=32
  "__ZN14OpenJade_DSSSL10KeywordObjD1Ev"                                ; magicseg='TEXT32' len=36
  "__ZN14OpenJade_DSSSL10KeywordObjD0Ev"                                ; magicseg='TEXT32' len=36
  "__ZN14OpenJade_DSSSL9SymbolObjD1Ev"                                  ; magicseg='TEXT32' len=34
  "__ZN14OpenJade_DSSSL9SymbolObjD0Ev"                                  ; magicseg='TEXT32' len=34
  "__ZN14OpenJade_DSSSL8FalseObjD1Ev"                                   ; magicseg='TEXT32' len=33
  "__ZN14OpenJade_DSSSL8FalseObjD0Ev"                                   ; magicseg='TEXT32' len=33
  "__ZN14OpenJade_DSSSL7TrueObjD1Ev"                                    ; magicseg='TEXT32' len=32
  "__ZN14OpenJade_DSSSL7TrueObjD0Ev"                                    ; magicseg='TEXT32' len=32
  "__ZN14OpenJade_DSSSL6NilObjD1Ev"                                     ; magicseg='TEXT32' len=31
  "__ZN14OpenJade_DSSSL6NilObjD0Ev"                                     ; magicseg='TEXT32' len=31
  "__ZN14OpenJade_DSSSL14UnspecifiedObjD1Ev"                            ; magicseg='TEXT32' len=40
  "__ZN14OpenJade_DSSSL14UnspecifiedObjD0Ev"                            ; magicseg='TEXT32' len=40
  "__ZN14OpenJade_DSSSL8ErrorObjD1Ev"                                   ; magicseg='TEXT32' len=33
  "__ZN14OpenJade_DSSSL8ErrorObjD0Ev"                                   ; magicseg='TEXT32' len=33
  "__ZN14OpenJade_DSSSL5ELObjD1Ev"                                      ; magicseg='TEXT32' len=30
  "__ZN14OpenJade_DSSSL5ELObjD0Ev"                                      ; magicseg='TEXT32' len=30
  "__ZN6OpenSP3PtrIN14OpenJade_DSSSL10FOTBuilder15GlyphSubstTableEED2Ev"                    ; magicseg='TEXT32' len=68
  "__ZN6OpenSP6VectorIN14OpenJade_DSSSL10FOTBuilder7GlyphIdEED1Ev"      ; magicseg='TEXT32' len=62
  "__ZTSN14OpenJade_DSSSL8ErrorObjE"                                    ; magicseg='TEXT32' len=32
  "__ZTSN14OpenJade_DSSSL14UnspecifiedObjE"                             ; magicseg='TEXT32' len=39
  "__ZTSN14OpenJade_DSSSL6NilObjE"                                      ; magicseg='TEXT32' len=30
  "__ZTSN14OpenJade_DSSSL7TrueObjE"                                     ; magicseg='TEXT32' len=31
  "__ZTSN14OpenJade_DSSSL8FalseObjE"                                    ; magicseg='TEXT32' len=32
  "__ZTSN14OpenJade_DSSSL9SymbolObjE"                                   ; magicseg='TEXT32' len=33
  "__ZTSN14OpenJade_DSSSL10KeywordObjE"                                 ; magicseg='TEXT32' len=35
  "__ZTSN14OpenJade_DSSSL7PairObjE"                                     ; magicseg='TEXT32' len=31
  "__ZTSN6OpenSP6VectorIPN14OpenJade_DSSSL5ELObjEEE"                    ; magicseg='TEXT32' len=48
  "__ZTSN14OpenJade_DSSSL9VectorObjE"                                   ; magicseg='TEXT32' len=33
  "__ZTSN14OpenJade_DSSSL7CharObjE"                                     ; magicseg='TEXT32' len=31
  "__ZTSN14OpenJade_DSSSL9StringObjE"                                   ; magicseg='TEXT32' len=33
  "__ZTSN14OpenJade_DSSSL10IntegerObjE"                                 ; magicseg='TEXT32' len=35
  "__ZTSN14OpenJade_DSSSL7RealObjE"                                     ; magicseg='TEXT32' len=31
  "__ZTSN14OpenJade_DSSSL9LengthObjE"                                   ; magicseg='TEXT32' len=33
  "__ZTSN14OpenJade_DSSSL11QuantityObjE"                                ; magicseg='TEXT32' len=36
  "__ZTSN6OpenSP5OwnerIN14OpenJade_DSSSL10LengthSpecEEE"                ; magicseg='TEXT32' len=52
  "__ZTSN14OpenJade_DSSSL13LengthSpecObjE"                              ; magicseg='TEXT32' len=38
  "__ZTSN6OpenSP5OwnerIN14OpenJade_DSSSL10FOTBuilder12DisplaySpaceEEE"                      ; magicseg='TEXT32' len=66
  "__ZTSN14OpenJade_DSSSL15DisplaySpaceObjE"                            ; magicseg='TEXT32' len=40
  "__ZTSN6OpenSP5OwnerIN14OpenJade_DSSSL10FOTBuilder11InlineSpaceEEE"                       ; magicseg='TEXT32' len=65
  "__ZTSN14OpenJade_DSSSL14InlineSpaceObjE"                             ; magicseg='TEXT32' len=39
  "__ZTSN14OpenJade_DSSSL21UnresolvedQuantityObjE"                      ; magicseg='TEXT32' len=46
  "__ZTSN14OpenJade_DSSSL19UnresolvedLengthObjE"                        ; magicseg='TEXT32' len=44
  "__ZTSN14OpenJade_DSSSL10GlyphIdObjE"                                 ; magicseg='TEXT32' len=35
  "__ZTSN14OpenJade_DSSSL18GlyphSubstTableObjE"                         ; magicseg='TEXT32' len=43
  "__ZTSN6OpenSP5OwnerIN14OpenJade_DSSSL10FOTBuilder7AddressEEE"        ; magicseg='TEXT32' len=60
  "__ZTSN14OpenJade_DSSSL10AddressObjE"                                 ; magicseg='TEXT32' len=35
  "__ZTSN14OpenJade_DSSSL11NodeListObjE"                                ; magicseg='TEXT32' len=36
  "__ZTSN14OpenJade_DSSSL16NamedNodeListObjE"                           ; magicseg='TEXT32' len=41
  "__ZTSN14OpenJade_DSSSL18NodePtrNodeListObjE"                         ; magicseg='TEXT32' len=43
  "__ZTSN14OpenJade_DSSSL22NodeListPtrNodeListObjE"                     ; magicseg='TEXT32' len=47
  "__ZTSN14OpenJade_DSSSL27NamedNodeListPtrNodeListObjE"                ; magicseg='TEXT32' len=52
  "__ZTSN14OpenJade_DSSSL15PairNodeListObjE"                            ; magicseg='TEXT32' len=40
  "__ZTSN14OpenJade_DSSSL16ELObjDynamicRootE"                           ; magicseg='TEXT32' len=41
  "__ZTSN14OpenJade_DSSSL18ReverseNodeListObjE"                         ; magicseg='TEXT32' len=43
  "__ZN6OpenSP6VectorIN14OpenJade_DSSSL10FOTBuilder7GlyphIdEE5eraseEPKS3_S6_"               ; magicseg='TEXT32' len=73
  "__ZTSN6OpenSP6StringIjEE"                                            ; magicseg='TEXT32' len=24
  "__ZN6OpenSP6VectorIN14OpenJade_DSSSL10FOTBuilder7GlyphIdEED0Ev"      ; magicseg='TEXT32' len=62
  "__ZTSN6OpenSP6VectorIN14OpenJade_DSSSL10FOTBuilder7GlyphIdEEE"       ; magicseg='TEXT32' len=61
  "__ZN14OpenJade_DSSSL15ELObjMessageArgC2EPNS_5ELObjERNS_11InterpreterE"                   ; magicseg='TEXT32' len=69
  "__ZN14OpenJade_DSSSL15ELObjMessageArg7convertEPNS_5ELObjERNS_11InterpreterE"             ; magicseg='TEXT32' len=75
  "__ZN14OpenJade_DSSSL15ELObjMessageArgC1EPNS_5ELObjERNS_11InterpreterE"                   ; magicseg='TEXT32' len=69
  "__ZN14OpenJade_DSSSL15ELObjMessageArgD1Ev"                           ; magicseg='TEXT32' len=41
  "__ZN14OpenJade_DSSSL15ELObjMessageArgD0Ev"                           ; magicseg='TEXT32' len=41
  "__ZTSN14OpenJade_DSSSL15ELObjMessageArgE"                            ; magicseg='TEXT32' len=40
  "__ZN14OpenJade_DSSSL10ExpressionC2ERKN6OpenSP8LocationE"             ; magicseg='TEXT32' len=55
  "__ZN14OpenJade_DSSSL10ExpressionC1ERKN6OpenSP8LocationE"             ; magicseg='TEXT32' len=55
  "__ZN14OpenJade_DSSSL10Expression8optimizeERNS_11InterpreterERKNS_11EnvironmentERN6OpenSP5OwnerIS0_EE"                  ; magicseg='TEXT32' len=100
  "__ZNK14OpenJade_DSSSL10Expression13constantValueEv"                  ; magicseg='TEXT32' len=50
  "__ZNK14OpenJade_DSSSL10Expression7keywordEv"                         ; magicseg='TEXT32' len=43
  "__ZN14OpenJade_DSSSL10Expression13markBoundVarsERNS_12BoundVarListEb"                    ; magicseg='TEXT32' len=68
  "__ZN14OpenJade_DSSSL18ConstantExpressionC2EPNS_5ELObjERKN6OpenSP8LocationE"              ; magicseg='TEXT32' len=74
  "__ZN14OpenJade_DSSSL18ConstantExpressionC1EPNS_5ELObjERKN6OpenSP8LocationE"              ; magicseg='TEXT32' len=74
  "__ZN14OpenJade_DSSSL18ConstantExpression7compileERNS_11InterpreterERKNS_11EnvironmentEiRKN6OpenSP8ConstPtrINS_4InsnEEE"                                     ; magicseg='TEXT32' len=118
  "__ZN6OpenSP3PtrIN14OpenJade_DSSSL4InsnEEC2ERKS3_"                    ; magicseg='TEXT32' len=48
  "__ZN6OpenSP3PtrIN14OpenJade_DSSSL4InsnEEC2EPS2_"                     ; magicseg='TEXT32' len=47
  "__ZN6OpenSP3PtrIN14OpenJade_DSSSL4InsnEED2Ev"                        ; magicseg='TEXT32' len=44
  "__ZN14OpenJade_DSSSL18ConstantExpression8optimizeERNS_11InterpreterERKNS_11EnvironmentERN6OpenSP5OwnerINS_10ExpressionEEE"                                  ; magicseg='TEXT32' len=121
  "__ZN14OpenJade_DSSSL26ResolvedConstantExpressionC1EPNS_5ELObjERKN6OpenSP8LocationE"      ; magicseg='TEXT32' len=82
  "__ZN6OpenSP5OwnerIN14OpenJade_DSSSL10ExpressionEE3delEv"             ; magicseg='TEXT32' len=55
  "__ZNK14OpenJade_DSSSL18ConstantExpression7canEvalEb"                 ; magicseg='TEXT32' len=51
  "__ZNK14OpenJade_DSSSL18ConstantExpression7keywordEv"                 ; magicseg='TEXT32' len=51
  "__ZN14OpenJade_DSSSL26ResolvedConstantExpressionC2EPNS_5ELObjERKN6OpenSP8LocationE"      ; magicseg='TEXT32' len=82
  "__ZN14OpenJade_DSSSL26ResolvedConstantExpression7compileERNS_11InterpreterERKNS_11EnvironmentEiRKN6OpenSP8ConstPtrINS_4InsnEEE"                             ; magicseg='TEXT32' len=126
  "__ZNK14OpenJade_DSSSL26ResolvedConstantExpression13constantValueEv"                      ; magicseg='TEXT32' len=66
  "__ZNK14OpenJade_DSSSL26ResolvedConstantExpression7canEvalEb"         ; magicseg='TEXT32' len=59
  "__ZN14OpenJade_DSSSL14CallExpressionC2ERN6OpenSP5OwnerINS_10ExpressionEEERNS1_8NCVectorIS4_EERKNS1_8LocationE"         ; magicseg='TEXT32' len=109
  "__ZN6OpenSP8NCVectorINS_5OwnerIN14OpenJade_DSSSL10ExpressionEEEE4swapERS5_"              ; magicseg='TEXT32' len=74
  "__ZN6OpenSP8NCVectorINS_5OwnerIN14OpenJade_DSSSL10ExpressionEEEED1Ev"                    ; magicseg='TEXT32' len=68
  "__ZN6OpenSP5OwnerIN14OpenJade_DSSSL10ExpressionEED1Ev"               ; magicseg='TEXT32' len=53
  "__ZN14OpenJade_DSSSL14CallExpressionC1ERN6OpenSP5OwnerINS_10ExpressionEEERNS1_8NCVectorIS4_EERKNS1_8LocationE"         ; magicseg='TEXT32' len=109
  "__ZNK14OpenJade_DSSSL14CallExpression7canEvalEb"                     ; magicseg='TEXT32' len=47
  "__ZN14OpenJade_DSSSL14CallExpression5nArgsEv"                        ; magicseg='TEXT32' len=44
  "__ZN14OpenJade_DSSSL14CallExpression7compileERNS_11InterpreterERKNS_11EnvironmentEiRKN6OpenSP8ConstPtrINS_4InsnEEE"    ; magicseg='TEXT32' len=114
  "__ZN6OpenSP3PtrIN14OpenJade_DSSSL4InsnEEaSERKS3_"                    ; magicseg='TEXT32' len=48
  "__ZN6OpenSP8NCVectorINS_5OwnerIN14OpenJade_DSSSL10ExpressionEEEE6appendEj"               ; magicseg='TEXT32' len=73
  "__ZN6OpenSP8NCVectorINS_5OwnerIN14OpenJade_DSSSL10ExpressionEEEE5eraseEPKS4_S7_"         ; magicseg='TEXT32' len=79
  "__ZN6OpenSP3PtrIN14OpenJade_DSSSL4InsnEEaSEPS2_"                     ; magicseg='TEXT32' len=47
  "__ZN14OpenJade_DSSSL14CallExpression13markBoundVarsERNS_12BoundVarListEb"                ; magicseg='TEXT32' len=72
  "__ZN14OpenJade_DSSSL18VariableExpressionC2EPKNS_10IdentifierERKN6OpenSP8LocationE"       ; magicseg='TEXT32' len=81
  "__ZN14OpenJade_DSSSL18VariableExpressionC1EPKNS_10IdentifierERKN6OpenSP8LocationE"       ; magicseg='TEXT32' len=81
  "__ZN14OpenJade_DSSSL18VariableExpression7compileERNS_11InterpreterERKNS_11EnvironmentEiRKN6OpenSP8ConstPtrINS_4InsnEEE"                                     ; magicseg='TEXT32' len=118
  "__ZNK14OpenJade_DSSSL11Environment6lookupEPKNS_10IdentifierERbRiRj"                      ; magicseg='TEXT32' len=66
  "__ZN14OpenJade_DSSSL18VariableExpression8optimizeERNS_11InterpreterERKNS_11EnvironmentERN6OpenSP5OwnerINS_10ExpressionEEE"                                  ; magicseg='TEXT32' len=121
  "__ZNK14OpenJade_DSSSL18VariableExpression7canEvalEb"                 ; magicseg='TEXT32' len=51
  "__ZN14OpenJade_DSSSL18VariableExpression13markBoundVarsERNS_12BoundVarListEb"            ; magicseg='TEXT32' len=76
  "__ZN14OpenJade_DSSSL12BoundVarList4markEPKNS_10IdentifierEj"         ; magicseg='TEXT32' len=59
  "__ZN14OpenJade_DSSSL12IfExpressionC2ERN6OpenSP5OwnerINS_10ExpressionEEES5_S5_RKNS1_8LocationE"                         ; magicseg='TEXT32' len=93
  "__ZN14OpenJade_DSSSL12IfExpressionC1ERN6OpenSP5OwnerINS_10ExpressionEEES5_S5_RKNS1_8LocationE"                         ; magicseg='TEXT32' len=93
  "__ZNK14OpenJade_DSSSL12IfExpression7canEvalEb"                       ; magicseg='TEXT32' len=45
  "__ZN14OpenJade_DSSSL12IfExpression8optimizeERNS_11InterpreterERKNS_11EnvironmentERN6OpenSP5OwnerINS_10ExpressionEEE"                                        ; magicseg='TEXT32' len=115
  "__ZN14OpenJade_DSSSL12IfExpression7compileERNS_11InterpreterERKNS_11EnvironmentEiRKN6OpenSP8ConstPtrINS_4InsnEEE"      ; magicseg='TEXT32' len=112
  "__ZN14OpenJade_DSSSL12IfExpression13markBoundVarsERNS_12BoundVarListEb"                  ; magicseg='TEXT32' len=70
  "__ZN14OpenJade_DSSSL12OrExpressionC2ERN6OpenSP5OwnerINS_10ExpressionEEES5_RKNS1_8LocationE"                            ; magicseg='TEXT32' len=90
  "__ZN14OpenJade_DSSSL12OrExpressionC1ERN6OpenSP5OwnerINS_10ExpressionEEES5_RKNS1_8LocationE"                            ; magicseg='TEXT32' len=90
  "__ZNK14OpenJade_DSSSL12OrExpression7canEvalEb"                       ; magicseg='TEXT32' len=45
  "__ZN14OpenJade_DSSSL12OrExpression8optimizeERNS_11InterpreterERKNS_11EnvironmentERN6OpenSP5OwnerINS_10ExpressionEEE"                                        ; magicseg='TEXT32' len=115
  "__ZN14OpenJade_DSSSL12OrExpression7compileERNS_11InterpreterERKNS_11EnvironmentEiRKN6OpenSP8ConstPtrINS_4InsnEEE"      ; magicseg='TEXT32' len=112
  "__ZN14OpenJade_DSSSL12OrExpression13markBoundVarsERNS_12BoundVarListEb"                  ; magicseg='TEXT32' len=70
  "__ZN14OpenJade_DSSSL18CondFailExpressionC2ERKN6OpenSP8LocationE"     ; magicseg='TEXT32' len=63
  "__ZN14OpenJade_DSSSL18CondFailExpressionC1ERKN6OpenSP8LocationE"     ; magicseg='TEXT32' len=63
  "__ZN14OpenJade_DSSSL18CondFailExpression7compileERNS_11InterpreterERKNS_11EnvironmentEiRKN6OpenSP8ConstPtrINS_4InsnEEE"                                     ; magicseg='TEXT32' len=118
  "__ZNK14OpenJade_DSSSL18CondFailExpression7canEvalEb"                 ; magicseg='TEXT32' len=51
  "__ZN14OpenJade_DSSSL14CaseExpressionC2ERN6OpenSP5OwnerINS_10ExpressionEEERNS1_8NCVectorINS0_4CaseEEES5_RKNS1_8LocationE"                                    ; magicseg='TEXT32' len=119
  "__ZN6OpenSP8NCVectorIN14OpenJade_DSSSL14CaseExpression4CaseEE4swapERS4_"                 ; magicseg='TEXT32' len=71
  "__ZN6OpenSP6VectorIjED1Ev"                                           ; magicseg='TEXT32' len=25
  "__ZN6OpenSP8NCVectorIN14OpenJade_DSSSL14CaseExpression4CaseEED1Ev"                       ; magicseg='TEXT32' len=65
  "__ZN14OpenJade_DSSSL14CaseExpressionC1ERN6OpenSP5OwnerINS_10ExpressionEEERNS1_8NCVectorINS0_4CaseEEES5_RKNS1_8LocationE"                                    ; magicseg='TEXT32' len=119
  "__ZN14OpenJade_DSSSL14CaseExpression7compileERNS_11InterpreterERKNS_11EnvironmentEiRKN6OpenSP8ConstPtrINS_4InsnEEE"    ; magicseg='TEXT32' len=114
  "__ZN14OpenJade_DSSSL14CaseExpression13markBoundVarsERNS_12BoundVarListEb"                ; magicseg='TEXT32' len=72
  "__ZNK14OpenJade_DSSSL14CaseExpression7canEvalEb"                     ; magicseg='TEXT32' len=47
  "__ZN14OpenJade_DSSSL14CaseExpression8optimizeERNS_11InterpreterERKNS_11EnvironmentERN6OpenSP5OwnerINS_10ExpressionEEE"                                      ; magicseg='TEXT32' len=117
  "__ZN6OpenSP6VectorIjE6assignEjRKj"                                   ; magicseg='TEXT32' len=33
  "__ZN14OpenJade_DSSSL16LambdaExpressionC2ERN6OpenSP6VectorIPKNS_10IdentifierEEERNS1_8NCVectorINS1_5OwnerINS_10ExpressionEEEEEibiRSB_RKNS1_8LocationE"        ; magicseg='TEXT32' len=147
  "__ZN6OpenSP6VectorIPKN14OpenJade_DSSSL10IdentifierEE4swapERS5_"      ; magicseg='TEXT32' len=62
  "__ZN6OpenSP6VectorIPKN14OpenJade_DSSSL10IdentifierEED1Ev"            ; magicseg='TEXT32' len=56
  "__ZN14OpenJade_DSSSL16LambdaExpressionC1ERN6OpenSP6VectorIPKNS_10IdentifierEEERNS1_8NCVectorINS1_5OwnerINS_10ExpressionEEEEEibiRSB_RKNS1_8LocationE"        ; magicseg='TEXT32' len=147
  "__ZNK14OpenJade_DSSSL16LambdaExpression7canEvalEb"                   ; magicseg='TEXT32' len=49
  "__ZN14OpenJade_DSSSL16LambdaExpression7compileERNS_11InterpreterERKNS_11EnvironmentEiRKN6OpenSP8ConstPtrINS_4InsnEEE"                                       ; magicseg='TEXT32' len=116
  "__ZNK14OpenJade_DSSSL11Environment9boundVarsERNS_12BoundVarListE"    ; magicseg='TEXT32' len=64
  "__ZN14OpenJade_DSSSL12BoundVarList12removeUnusedEv"                  ; magicseg='TEXT32' len=50
  "__ZN14OpenJade_DSSSL12BoundVarListC1ERKN6OpenSP6VectorIPKNS_10IdentifierEEEjj"           ; magicseg='TEXT32' len=77
  "__ZN14OpenJade_DSSSL12BoundVarList6appendEPKNS_10IdentifierEj"       ; magicseg='TEXT32' len=61
  "__ZN14OpenJade_DSSSL11EnvironmentC1ERKNS_12BoundVarListES3_"         ; magicseg='TEXT32' len=59
  "__ZN6OpenSP3PtrIN14OpenJade_DSSSL11Environment12FrameVarListEED2Ev"                      ; magicseg='TEXT32' len=66
  "__ZN6OpenSP6VectorINS_8ConstPtrIN14OpenJade_DSSSL4InsnEEEE6appendEj"                     ; magicseg='TEXT32' len=67
  "__ZN6OpenSP6VectorIN14OpenJade_DSSSL8BoundVarEEC2ERKS3_"             ; magicseg='TEXT32' len=55
  "__ZN6OpenSP6VectorIN14OpenJade_DSSSL8BoundVarEED2Ev"                 ; magicseg='TEXT32' len=51
  "__ZN6OpenSP6VectorINS_8ConstPtrIN14OpenJade_DSSSL4InsnEEEED1Ev"      ; magicseg='TEXT32' len=62
  "__ZN14OpenJade_DSSSL10Expression15compilePushVarsERNS_11InterpreterERKNS_11EnvironmentEiRKNS_12BoundVarListEjRKN6OpenSP8ConstPtrINS_4InsnEEE"               ; magicseg='TEXT32' len=140
  "__ZN6OpenSP6VectorIN14OpenJade_DSSSL8BoundVarEE6appendEj"            ; magicseg='TEXT32' len=56
  "__ZN6OpenSP6VectorIN14OpenJade_DSSSL8BoundVarEE5eraseEPKS2_S5_"      ; magicseg='TEXT32' len=62
  "__ZN14OpenJade_DSSSL16LambdaExpression13markBoundVarsERNS_12BoundVarListEb"              ; magicseg='TEXT32' len=74
  "__ZN14OpenJade_DSSSL12BoundVarList6rebindERKN6OpenSP6VectorIPKNS_10IdentifierEEE"        ; magicseg='TEXT32' len=80
  "__ZN14OpenJade_DSSSL12BoundVarList6unbindERKN6OpenSP6VectorIPKNS_10IdentifierEEE"        ; magicseg='TEXT32' len=80
  "__ZN6OpenSP6VectorIPKN14OpenJade_DSSSL10IdentifierEEC1ERKS5_"        ; magicseg='TEXT32' len=60
  "__ZN6OpenSP6VectorIPKN14OpenJade_DSSSL10IdentifierEE6appendEj"       ; magicseg='TEXT32' len=61
  "__ZN6OpenSP6VectorIPKN14OpenJade_DSSSL10IdentifierEE5eraseEPKS4_S7_"                     ; magicseg='TEXT32' len=67
  "__ZN14OpenJade_DSSSL13LetExpressionC2ERN6OpenSP6VectorIPKNS_10IdentifierEEERNS1_8NCVectorINS1_5OwnerINS_10ExpressionEEEEERSB_RKNS1_8LocationE"              ; magicseg='TEXT32' len=141
  "__ZN14OpenJade_DSSSL13LetExpressionC1ERN6OpenSP6VectorIPKNS_10IdentifierEEERNS1_8NCVectorINS1_5OwnerINS_10ExpressionEEEEERSB_RKNS1_8LocationE"              ; magicseg='TEXT32' len=141
  "__ZNK14OpenJade_DSSSL13LetExpression7canEvalEb"                      ; magicseg='TEXT32' len=46
  "__ZN14OpenJade_DSSSL13LetExpression7compileERNS_11InterpreterERKNS_11EnvironmentEiRKN6OpenSP8ConstPtrINS_4InsnEEE"     ; magicseg='TEXT32' len=113
  "__ZN6OpenSP3PtrIN14OpenJade_DSSSL11Environment12FrameVarListEEC2ERKS4_"                  ; magicseg='TEXT32' len=70
  "__ZN14OpenJade_DSSSL12BoundVarListC1ERKN6OpenSP6VectorIPKNS_10IdentifierEEE"             ; magicseg='TEXT32' len=75
  "__ZN14OpenJade_DSSSL11Environment12augmentFrameERKNS_12BoundVarListEi"                   ; magicseg='TEXT32' len=69
  "__ZN14OpenJade_DSSSL13LetExpression12compileInitsERNS_11InterpreterERKNS_11EnvironmentERKNS_12BoundVarListEjiRKN6OpenSP8ConstPtrINS_4InsnEEE"               ; magicseg='TEXT32' len=140
  "__ZN14OpenJade_DSSSL13LetExpression13markBoundVarsERNS_12BoundVarListEb"                 ; magicseg='TEXT32' len=71
  "__ZN14OpenJade_DSSSL17LetStarExpressionC2ERN6OpenSP6VectorIPKNS_10IdentifierEEERNS1_8NCVectorINS1_5OwnerINS_10ExpressionEEEEERSB_RKNS1_8LocationE"          ; magicseg='TEXT32' len=145
  "__ZN14OpenJade_DSSSL17LetStarExpressionC1ERN6OpenSP6VectorIPKNS_10IdentifierEEERNS1_8NCVectorINS1_5OwnerINS_10ExpressionEEEEERSB_RKNS1_8LocationE"          ; magicseg='TEXT32' len=145
  "__ZN14OpenJade_DSSSL17LetStarExpression7compileERNS_11InterpreterERKNS_11EnvironmentEiRKN6OpenSP8ConstPtrINS_4InsnEEE"                                      ; magicseg='TEXT32' len=117
  "__ZN14OpenJade_DSSSL17LetStarExpression12compileInitsERNS_11InterpreterERKNS_11EnvironmentERKNS_12BoundVarListEjiRKN6OpenSP8ConstPtrINS_4InsnEEE"           ; magicseg='TEXT32' len=144
  "__ZN14OpenJade_DSSSL16LetrecExpressionC2ERN6OpenSP6VectorIPKNS_10IdentifierEEERNS1_8NCVectorINS1_5OwnerINS_10ExpressionEEEEERSB_RKNS1_8LocationE"           ; magicseg='TEXT32' len=144
  "__ZN14OpenJade_DSSSL16LetrecExpressionC1ERN6OpenSP6VectorIPKNS_10IdentifierEEERNS1_8NCVectorINS1_5OwnerINS_10ExpressionEEEEERSB_RKNS1_8LocationE"           ; magicseg='TEXT32' len=144
  "__ZNK14OpenJade_DSSSL16LetrecExpression7canEvalEb"                   ; magicseg='TEXT32' len=49
  "__ZN14OpenJade_DSSSL16LetrecExpression7compileERNS_11InterpreterERKNS_11EnvironmentEiRKN6OpenSP8ConstPtrINS_4InsnEEE"                                       ; magicseg='TEXT32' len=116
  "__ZN14OpenJade_DSSSL16LetrecExpression12compileInitsERNS_11InterpreterERKNS_11EnvironmentEjiRKN6OpenSP8ConstPtrINS_4InsnEEE"                                ; magicseg='TEXT32' len=123
  "__ZN14OpenJade_DSSSL16LetrecExpression13markBoundVarsERNS_12BoundVarListEb"              ; magicseg='TEXT32' len=74
  "__ZN14OpenJade_DSSSL20QuasiquoteExpressionC2ERN6OpenSP8NCVectorINS1_5OwnerINS_10ExpressionEEEEERNS1_6VectorIbEENS0_4TypeERKNS1_8LocationE"                  ; magicseg='TEXT32' len=137
  "__ZN6OpenSP6VectorIbEC1ERKS1_"                                       ; magicseg='TEXT32' len=29
  "__ZN6OpenSP6VectorIbED1Ev"                                           ; magicseg='TEXT32' len=25
  "__ZN14OpenJade_DSSSL20QuasiquoteExpressionC1ERN6OpenSP8NCVectorINS1_5OwnerINS_10ExpressionEEEEERNS1_6VectorIbEENS0_4TypeERKNS1_8LocationE"                  ; magicseg='TEXT32' len=137
  "__ZN14OpenJade_DSSSL20QuasiquoteExpression7compileERNS_11InterpreterERKNS_11EnvironmentEiRKN6OpenSP8ConstPtrINS_4InsnEEE"                                   ; magicseg='TEXT32' len=120
  "__ZN14OpenJade_DSSSL20QuasiquoteExpression13markBoundVarsERNS_12BoundVarListEb"          ; magicseg='TEXT32' len=78
  "__ZNK14OpenJade_DSSSL20QuasiquoteExpression7canEvalEb"               ; magicseg='TEXT32' len=53
  "__ZN14OpenJade_DSSSL20QuasiquoteExpression8optimizeERNS_11InterpreterERKNS_11EnvironmentERN6OpenSP5OwnerINS_10ExpressionEEE"                                ; magicseg='TEXT32' len=123
  "__ZN14OpenJade_DSSSL18SequenceExpressionC2ERN6OpenSP8NCVectorINS1_5OwnerINS_10ExpressionEEEEERKNS1_8LocationE"         ; magicseg='TEXT32' len=109
  "__ZN14OpenJade_DSSSL18SequenceExpressionC1ERN6OpenSP8NCVectorINS1_5OwnerINS_10ExpressionEEEEERKNS1_8LocationE"         ; magicseg='TEXT32' len=109
  "__ZN14OpenJade_DSSSL18SequenceExpression7compileERNS_11InterpreterERKNS_11EnvironmentEiRKN6OpenSP8ConstPtrINS_4InsnEEE"                                     ; magicseg='TEXT32' len=118
  "__ZN14OpenJade_DSSSL18SequenceExpression13markBoundVarsERNS_12BoundVarListEb"            ; magicseg='TEXT32' len=76
  "__ZNK14OpenJade_DSSSL18SequenceExpression7canEvalEb"                 ; magicseg='TEXT32' len=51
  "__ZN14OpenJade_DSSSL18SequenceExpression8optimizeERNS_11InterpreterERKNS_11EnvironmentERN6OpenSP5OwnerINS_10ExpressionEEE"                                  ; magicseg='TEXT32' len=121
  "__ZN14OpenJade_DSSSL20AssignmentExpressionC2EPKNS_10IdentifierERN6OpenSP5OwnerINS_10ExpressionEEERKNS4_8LocationE"     ; magicseg='TEXT32' len=113
  "__ZN14OpenJade_DSSSL20AssignmentExpressionC1EPKNS_10IdentifierERN6OpenSP5OwnerINS_10ExpressionEEERKNS4_8LocationE"     ; magicseg='TEXT32' len=113
  "__ZN14OpenJade_DSSSL20AssignmentExpression7compileERNS_11InterpreterERKNS_11EnvironmentEiRKN6OpenSP8ConstPtrINS_4InsnEEE"                                   ; magicseg='TEXT32' len=120
  "__ZN14OpenJade_DSSSL20AssignmentExpression13markBoundVarsERNS_12BoundVarListEb"          ; magicseg='TEXT32' len=78
  "__ZNK14OpenJade_DSSSL20AssignmentExpression7canEvalEb"               ; magicseg='TEXT32' len=53
  "__ZN14OpenJade_DSSSL18WithModeExpressionC2EPKNS_14ProcessingModeERN6OpenSP5OwnerINS_10ExpressionEEERKNS4_8LocationE"                                        ; magicseg='TEXT32' len=115
  "__ZN14OpenJade_DSSSL18WithModeExpressionC1EPKNS_14ProcessingModeERN6OpenSP5OwnerINS_10ExpressionEEERKNS4_8LocationE"                                        ; magicseg='TEXT32' len=115
  "__ZN14OpenJade_DSSSL18WithModeExpression7compileERNS_11InterpreterERKNS_11EnvironmentEiRKN6OpenSP8ConstPtrINS_4InsnEEE"                                     ; magicseg='TEXT32' len=118
  "__ZN14OpenJade_DSSSL18WithModeExpression13markBoundVarsERNS_12BoundVarListEb"            ; magicseg='TEXT32' len=76
  "__ZNK14OpenJade_DSSSL18WithModeExpression7canEvalEb"                 ; magicseg='TEXT32' len=51
  "__ZN14OpenJade_DSSSL15StyleExpressionC2ERN6OpenSP6VectorIPKNS_10IdentifierEEERNS1_8NCVectorINS1_5OwnerINS_10ExpressionEEEEERKNS1_8LocationE"                ; magicseg='TEXT32' len=139
  "__ZN14OpenJade_DSSSL15StyleExpressionC1ERN6OpenSP6VectorIPKNS_10IdentifierEEERNS1_8NCVectorINS1_5OwnerINS_10ExpressionEEEEERKNS1_8LocationE"                ; magicseg='TEXT32' len=139
  "__ZN14OpenJade_DSSSL15StyleExpression7compileERNS_11InterpreterERKNS_11EnvironmentEiRKN6OpenSP8ConstPtrINS_4InsnEEE"                                        ; magicseg='TEXT32' len=115
  "__ZN6OpenSP3PtrIN14OpenJade_DSSSL10InheritedCEEaSERKS3_"             ; magicseg='TEXT32' len=55
  "__ZN6OpenSP3PtrIN14OpenJade_DSSSL10InheritedCEED2Ev"                 ; magicseg='TEXT32' len=51
  "__ZN6OpenSP3PtrIN14OpenJade_DSSSL9StyleSpecEEC2EPS2_"                ; magicseg='TEXT32' len=52
  "__ZN6OpenSP3PtrIN14OpenJade_DSSSL9StyleSpecEED2Ev"                   ; magicseg='TEXT32' len=49
  "__ZN6OpenSP6VectorINS_8ConstPtrIN14OpenJade_DSSSL10InheritedCEEEED1Ev"                   ; magicseg='TEXT32' len=69
  "__ZN6OpenSP6VectorINS_8ConstPtrIN14OpenJade_DSSSL10InheritedCEEEE6appendEj"              ; magicseg='TEXT32' len=74
  "__ZN6OpenSP6VectorINS_8ConstPtrIN14OpenJade_DSSSL10InheritedCEEEE5eraseEPKS4_S7_"        ; magicseg='TEXT32' len=80
  "__ZN6OpenSP3PtrIN14OpenJade_DSSSL10InheritedCEEaSEPS2_"              ; magicseg='TEXT32' len=54
  "__ZN14OpenJade_DSSSL15StyleExpression13markBoundVarsERNS_12BoundVarListEb"               ; magicseg='TEXT32' len=73
  "__ZNK14OpenJade_DSSSL15StyleExpression7canEvalEb"                    ; magicseg='TEXT32' len=48
  "__ZNK14OpenJade_DSSSL15StyleExpression19unknownStyleKeywordEPKNS_10IdentifierERNS_11InterpreterERKN6OpenSP8LocationE"                                       ; magicseg='TEXT32' len=116
  "__ZNK14OpenJade_DSSSL15StyleExpression17maybeStyleKeywordEPKNS_10IdentifierE"            ; magicseg='TEXT32' len=76
  "__ZN14OpenJade_DSSSL14MakeExpressionC2EPKNS_10IdentifierERN6OpenSP6VectorIS3_EERNS4_8NCVectorINS4_5OwnerINS_10ExpressionEEEEERKNS4_8LocationE"              ; magicseg='TEXT32' len=141
  "__ZN14OpenJade_DSSSL14MakeExpressionC1EPKNS_10IdentifierERN6OpenSP6VectorIS3_EERNS4_8NCVectorINS4_5OwnerINS_10ExpressionEEEEERKNS4_8LocationE"              ; magicseg='TEXT32' len=141
  "__ZN14OpenJade_DSSSL14MakeExpression7compileERNS_11InterpreterERKNS_11EnvironmentEiRKN6OpenSP8ConstPtrINS_4InsnEEE"    ; magicseg='TEXT32' len=114
  "__ZN14OpenJade_DSSSL14MakeExpression24applyConstNonInheritedCsEPNS_7FlowObjERNS_11InterpreterERKNS_11EnvironmentE"     ; magicseg='TEXT32' len=113
  "__ZN14OpenJade_DSSSL14MakeExpression21compileNonInheritedCsERNS_11InterpreterERKNS_11EnvironmentEiRKN6OpenSP8ConstPtrINS_4InsnEEE"                          ; magicseg='TEXT32' len=129
  "__ZNK14OpenJade_DSSSL14MakeExpression19unknownStyleKeywordEPKNS_10IdentifierERNS_11InterpreterERKN6OpenSP8LocationE"                                        ; magicseg='TEXT32' len=115
  "__ZNK14OpenJade_DSSSL14MakeExpression17maybeStyleKeywordEPKNS_10IdentifierE"             ; magicseg='TEXT32' len=75
  "__ZN14OpenJade_DSSSL11EnvironmentC2Ev"                               ; magicseg='TEXT32' len=37
  "__ZN14OpenJade_DSSSL11EnvironmentC1Ev"                               ; magicseg='TEXT32' len=37
  "__ZN14OpenJade_DSSSL11EnvironmentC2ERKNS_12BoundVarListES3_"         ; magicseg='TEXT32' len=59
  "__ZN6OpenSP3PtrIN14OpenJade_DSSSL11Environment12FrameVarListEEaSEPS3_"                   ; magicseg='TEXT32' len=69
  "__ZN6OpenSP3PtrIN14OpenJade_DSSSL11Environment12FrameVarListEEaSERKS4_"                  ; magicseg='TEXT32' len=70
  "__ZN14OpenJade_DSSSL12BoundVarListC2ERKN6OpenSP6VectorIPKNS_10IdentifierEEE"             ; magicseg='TEXT32' len=75
  "__ZN14OpenJade_DSSSL12BoundVarListC2ERKN6OpenSP6VectorIPKNS_10IdentifierEEEjj"           ; magicseg='TEXT32' len=77
  "__ZN14OpenJade_DSSSL12BoundVarList6removeERKN6OpenSP6VectorIPKNS_10IdentifierEEE"        ; magicseg='TEXT32' len=80
  "__ZN14OpenJade_DSSSL12BoundVarList4findEPKNS_10IdentifierE"          ; magicseg='TEXT32' len=58
  "__ZN6OpenSP6VectorIjE5eraseEPKjS3_"                                  ; magicseg='TEXT32' len=34
  "__ZN6OpenSP8NCVectorINS_5OwnerIN14OpenJade_DSSSL10ExpressionEEEE8reserve1Ej"             ; magicseg='TEXT32' len=75
  "__ZN6OpenSP8NCVectorIN14OpenJade_DSSSL14CaseExpression4CaseEE5eraseEPKS3_S6_"            ; magicseg='TEXT32' len=76
  "__ZN6OpenSP6VectorIjE6insertEPKjjRS2_"                               ; magicseg='TEXT32' len=37
  "__ZN6OpenSP6VectorINS_8ConstPtrIN14OpenJade_DSSSL4InsnEEEE5eraseEPKS4_S7_"               ; magicseg='TEXT32' len=73
  "__ZN6OpenSP6VectorIN14OpenJade_DSSSL8BoundVarEE6insertEPKS2_S5_S5_"                      ; magicseg='TEXT32' len=66
  "__ZN6OpenSP6VectorINS_8ConstPtrIN14OpenJade_DSSSL4InsnEEEE8reserve1Ej"                   ; magicseg='TEXT32' len=69
  "__ZN6OpenSP6VectorIN14OpenJade_DSSSL8BoundVarEE8reserve1Ej"          ; magicseg='TEXT32' len=58
  "__ZN6OpenSP6VectorIPKN14OpenJade_DSSSL10IdentifierEE6insertEPKS4_S7_S7_"                 ; magicseg='TEXT32' len=71
  "__ZN6OpenSP6VectorIPKN14OpenJade_DSSSL10IdentifierEE8reserve1Ej"     ; magicseg='TEXT32' len=63
  "__ZN6OpenSP6VectorIbE6insertEPKbS3_S3_"                              ; magicseg='TEXT32' len=38
  "__ZN6OpenSP6VectorIbE5eraseEPKbS3_"                                  ; magicseg='TEXT32' len=34
  "__ZN6OpenSP6VectorINS_8ConstPtrIN14OpenJade_DSSSL10InheritedCEEEE8reserve1Ej"            ; magicseg='TEXT32' len=76
  "__ZN6OpenSP6VectorIjE8reserve1Ej"                                    ; magicseg='TEXT32' len=32
  "__ZN6OpenSP6VectorIbE8reserve1Ej"                                    ; magicseg='TEXT32' len=32
  "__ZN14OpenJade_DSSSL11PopModeInsnD1Ev"                               ; magicseg='TEXT32' len=37
  "__ZN14OpenJade_DSSSL11PopModeInsnD0Ev"                               ; magicseg='TEXT32' len=37
  "__ZN14OpenJade_DSSSL12PushModeInsnD1Ev"                              ; magicseg='TEXT32' len=38
  "__ZN14OpenJade_DSSSL12PushModeInsnD0Ev"                              ; magicseg='TEXT32' len=38
  "__ZN14OpenJade_DSSSL14CheckStyleInsnD1Ev"                            ; magicseg='TEXT32' len=40
  "__ZN14OpenJade_DSSSL14CheckStyleInsnD0Ev"                            ; magicseg='TEXT32' len=40
  "__ZN14OpenJade_DSSSL15CheckSosofoInsnD1Ev"                           ; magicseg='TEXT32' len=41
  "__ZN14OpenJade_DSSSL15CheckSosofoInsnD0Ev"                           ; magicseg='TEXT32' len=41
  "__ZN6OpenSP6VectorINS_8ConstPtrIN14OpenJade_DSSSL10InheritedCEEEED0Ev"                   ; magicseg='TEXT32' len=69
  "__ZN14OpenJade_DSSSL14MakeExpressionD1Ev"                            ; magicseg='TEXT32' len=40
  "__ZN14OpenJade_DSSSL14MakeExpressionD0Ev"                            ; magicseg='TEXT32' len=40
  "__ZN14OpenJade_DSSSL15StyleExpressionD1Ev"                           ; magicseg='TEXT32' len=41
  "__ZN14OpenJade_DSSSL15StyleExpressionD0Ev"                           ; magicseg='TEXT32' len=41
  "__ZN14OpenJade_DSSSL18WithModeExpressionD1Ev"                        ; magicseg='TEXT32' len=44
  "__ZN14OpenJade_DSSSL18WithModeExpressionD0Ev"                        ; magicseg='TEXT32' len=44
  "__ZN14OpenJade_DSSSL20AssignmentExpressionD1Ev"                      ; magicseg='TEXT32' len=46
  "__ZN14OpenJade_DSSSL20AssignmentExpressionD0Ev"                      ; magicseg='TEXT32' len=46
  "__ZN14OpenJade_DSSSL18SequenceExpressionD1Ev"                        ; magicseg='TEXT32' len=44
  "__ZN14OpenJade_DSSSL18SequenceExpressionD0Ev"                        ; magicseg='TEXT32' len=44
  "__ZN14OpenJade_DSSSL20QuasiquoteExpressionD1Ev"                      ; magicseg='TEXT32' len=46
  "__ZN14OpenJade_DSSSL20QuasiquoteExpressionD0Ev"                      ; magicseg='TEXT32' len=46
  "__ZN6OpenSP6VectorIbED0Ev"                                           ; magicseg='TEXT32' len=25
  "__ZN14OpenJade_DSSSL16LetrecExpressionD1Ev"                          ; magicseg='TEXT32' len=42
  "__ZN14OpenJade_DSSSL16LetrecExpressionD0Ev"                          ; magicseg='TEXT32' len=42
  "__ZN14OpenJade_DSSSL17LetStarExpressionD1Ev"                         ; magicseg='TEXT32' len=43
  "__ZN14OpenJade_DSSSL17LetStarExpressionD0Ev"                         ; magicseg='TEXT32' len=43
  "__ZN14OpenJade_DSSSL13LetExpressionD1Ev"                             ; magicseg='TEXT32' len=39
  "__ZN14OpenJade_DSSSL13LetExpressionD0Ev"                             ; magicseg='TEXT32' len=39
  "__ZN14OpenJade_DSSSL16LambdaExpressionD1Ev"                          ; magicseg='TEXT32' len=42
  "__ZN14OpenJade_DSSSL16LambdaExpressionD0Ev"                          ; magicseg='TEXT32' len=42
  "__ZN6OpenSP6VectorIPKN14OpenJade_DSSSL10IdentifierEED0Ev"            ; magicseg='TEXT32' len=56
  "__ZN14OpenJade_DSSSL14CaseExpressionD1Ev"                            ; magicseg='TEXT32' len=40
  "__ZN14OpenJade_DSSSL14CaseExpressionD0Ev"                            ; magicseg='TEXT32' len=40
  "__ZN6OpenSP6VectorIjED0Ev"                                           ; magicseg='TEXT32' len=25
  "__ZN6OpenSP8NCVectorIN14OpenJade_DSSSL14CaseExpression4CaseEED0Ev"                       ; magicseg='TEXT32' len=65
  "__ZN14OpenJade_DSSSL18CondFailExpressionD1Ev"                        ; magicseg='TEXT32' len=44
  "__ZN14OpenJade_DSSSL18CondFailExpressionD0Ev"                        ; magicseg='TEXT32' len=44
  "__ZN14OpenJade_DSSSL12OrExpressionD1Ev"                              ; magicseg='TEXT32' len=38
  "__ZN14OpenJade_DSSSL12OrExpressionD0Ev"                              ; magicseg='TEXT32' len=38
  "__ZN14OpenJade_DSSSL12IfExpressionD1Ev"                              ; magicseg='TEXT32' len=38
  "__ZN14OpenJade_DSSSL12IfExpressionD0Ev"                              ; magicseg='TEXT32' len=38
  "__ZN14OpenJade_DSSSL18VariableExpressionD1Ev"                        ; magicseg='TEXT32' len=44
  "__ZN14OpenJade_DSSSL18VariableExpressionD0Ev"                        ; magicseg='TEXT32' len=44
  "__ZN14OpenJade_DSSSL14CallExpressionD1Ev"                            ; magicseg='TEXT32' len=40
  "__ZN14OpenJade_DSSSL14CallExpressionD0Ev"                            ; magicseg='TEXT32' len=40
  "__ZN6OpenSP8NCVectorINS_5OwnerIN14OpenJade_DSSSL10ExpressionEEEED0Ev"                    ; magicseg='TEXT32' len=68
  "__ZN6OpenSP5OwnerIN14OpenJade_DSSSL10ExpressionEED0Ev"               ; magicseg='TEXT32' len=53
  "__ZN14OpenJade_DSSSL26ResolvedConstantExpressionD1Ev"                ; magicseg='TEXT32' len=52
  "__ZN14OpenJade_DSSSL26ResolvedConstantExpressionD0Ev"                ; magicseg='TEXT32' len=52
  "__ZN14OpenJade_DSSSL18ConstantExpressionD1Ev"                        ; magicseg='TEXT32' len=44
  "__ZN14OpenJade_DSSSL18ConstantExpressionD0Ev"                        ; magicseg='TEXT32' len=44
  "__ZN14OpenJade_DSSSL10ExpressionD1Ev"                                ; magicseg='TEXT32' len=36
  "__ZN14OpenJade_DSSSL10ExpressionD0Ev"                                ; magicseg='TEXT32' len=36
  "__ZN14OpenJade_DSSSL12BoundVarListD1Ev"                              ; magicseg='TEXT32' len=38
  "__ZN14OpenJade_DSSSL12BoundVarListD0Ev"                              ; magicseg='TEXT32' len=38
  "__ZN6OpenSP6VectorIN14OpenJade_DSSSL8BoundVarEED1Ev"                 ; magicseg='TEXT32' len=51
  "__ZN6OpenSP6VectorIN14OpenJade_DSSSL8BoundVarEED0Ev"                 ; magicseg='TEXT32' len=51
  "__ZN14OpenJade_DSSSL15SequenceFlowObjD1Ev"                           ; magicseg='TEXT32' len=41
  "__ZN14OpenJade_DSSSL15SequenceFlowObjD0Ev"                           ; magicseg='TEXT32' len=41
  "__ZN6OpenSP6VectorINS_8ConstPtrIN14OpenJade_DSSSL4InsnEEEED0Ev"      ; magicseg='TEXT32' len=62
  "__ZN14OpenJade_DSSSL9ErrorInsnD1Ev"                                  ; magicseg='TEXT32' len=34
  "__ZN14OpenJade_DSSSL9ErrorInsnD0Ev"                                  ; magicseg='TEXT32' len=34
  "__ZN14OpenJade_DSSSL5ELObjD2Ev"                                      ; magicseg='TEXT32' len=30
  "__ZTSN14OpenJade_DSSSL9ErrorInsnE"                                   ; magicseg='TEXT32' len=33
  "__ZTSN6OpenSP6VectorINS_8ConstPtrIN14OpenJade_DSSSL4InsnEEEEE"       ; magicseg='TEXT32' len=61
  "__ZTSN14OpenJade_DSSSL15SequenceFlowObjE"                            ; magicseg='TEXT32' len=40
  "__ZTSN6OpenSP6VectorIN14OpenJade_DSSSL8BoundVarEEE"                  ; magicseg='TEXT32' len=50
  "__ZTSN14OpenJade_DSSSL12BoundVarListE"                               ; magicseg='TEXT32' len=37
  "__ZTSN14OpenJade_DSSSL10ExpressionE"                                 ; magicseg='TEXT32' len=35
  "__ZTSN14OpenJade_DSSSL18ConstantExpressionE"                         ; magicseg='TEXT32' len=43
  "__ZTSN14OpenJade_DSSSL26ResolvedConstantExpressionE"                 ; magicseg='TEXT32' len=51
  "__ZTSN6OpenSP5OwnerIN14OpenJade_DSSSL10ExpressionEEE"                ; magicseg='TEXT32' len=52
  "__ZTSN6OpenSP8NCVectorINS_5OwnerIN14OpenJade_DSSSL10ExpressionEEEEE"                     ; magicseg='TEXT32' len=67
  "__ZTSN14OpenJade_DSSSL14CallExpressionE"                             ; magicseg='TEXT32' len=39
  "__ZTSN14OpenJade_DSSSL18VariableExpressionE"                         ; magicseg='TEXT32' len=43
  "__ZTSN14OpenJade_DSSSL12IfExpressionE"                               ; magicseg='TEXT32' len=37
  "__ZTSN14OpenJade_DSSSL12OrExpressionE"                               ; magicseg='TEXT32' len=37
  "__ZTSN14OpenJade_DSSSL18CondFailExpressionE"                         ; magicseg='TEXT32' len=43
  "__ZTSN6OpenSP8NCVectorIN14OpenJade_DSSSL14CaseExpression4CaseEEE"    ; magicseg='TEXT32' len=64
  "__ZTSN6OpenSP6VectorIjEE"                                            ; magicseg='TEXT32' len=24
  "__ZTSN14OpenJade_DSSSL14CaseExpressionE"                             ; magicseg='TEXT32' len=39
  "__ZTSN6OpenSP6VectorIPKN14OpenJade_DSSSL10IdentifierEEE"             ; magicseg='TEXT32' len=55
  "__ZTSN14OpenJade_DSSSL16LambdaExpressionE"                           ; magicseg='TEXT32' len=41
  "__ZTSN14OpenJade_DSSSL13LetExpressionE"                              ; magicseg='TEXT32' len=38
  "__ZTSN14OpenJade_DSSSL17LetStarExpressionE"                          ; magicseg='TEXT32' len=42
  "__ZTSN14OpenJade_DSSSL16LetrecExpressionE"                           ; magicseg='TEXT32' len=41
  "__ZTSN6OpenSP6VectorIbEE"                                            ; magicseg='TEXT32' len=24
  "__ZTSN14OpenJade_DSSSL20QuasiquoteExpressionE"                       ; magicseg='TEXT32' len=45
  "__ZTSN14OpenJade_DSSSL18SequenceExpressionE"                         ; magicseg='TEXT32' len=43
  "__ZTSN14OpenJade_DSSSL20AssignmentExpressionE"                       ; magicseg='TEXT32' len=45
  "__ZTSN14OpenJade_DSSSL18WithModeExpressionE"                         ; magicseg='TEXT32' len=43
  "__ZTSN14OpenJade_DSSSL15StyleExpressionE"                            ; magicseg='TEXT32' len=40
  "__ZTSN14OpenJade_DSSSL14MakeExpressionE"                             ; magicseg='TEXT32' len=39
  "__ZTSN6OpenSP6VectorINS_8ConstPtrIN14OpenJade_DSSSL10InheritedCEEEEE"                    ; magicseg='TEXT32' len=68
  "__ZTSN14OpenJade_DSSSL15CheckSosofoInsnE"                            ; magicseg='TEXT32' len=40
  "__ZTSN14OpenJade_DSSSL14CheckStyleInsnE"                             ; magicseg='TEXT32' len=39
  "__ZTSN14OpenJade_DSSSL12PushModeInsnE"                               ; magicseg='TEXT32' len=37
  "__ZTSN14OpenJade_DSSSL11PopModeInsnE"                                ; magicseg='TEXT32' len=36
  "__ZN14OpenJade_DSSSL9SosofoObjD1Ev"                                  ; magicseg='TEXT32' len=34
  "__ZN14OpenJade_DSSSL9SosofoObjD0Ev"                                  ; magicseg='TEXT32' len=34
  "__ZTSN14OpenJade_DSSSL4InsnE"                                        ; magicseg='TEXT32' len=28
  "__ZTSN14OpenJade_DSSSL9SosofoObjE"                                   ; magicseg='TEXT32' len=33
  "__ZTSN14OpenJade_DSSSL15CompoundFlowObjE"                            ; magicseg='TEXT32' len=40
  "__ZTSN14OpenJade_DSSSL7FlowObjE"                                     ; magicseg='TEXT32' len=31
  "__ZN14OpenJade_DSSSL10FOTBuilder10symbolNameENS0_6SymbolE"           ; magicseg='TEXT32' len=57
  "__ZN14OpenJade_DSSSL10FOTBuilder16asSaveFOTBuilderEv"                ; magicseg='TEXT32' len=52
  "__ZN14OpenJade_DSSSL10FOTBuilderD2Ev"                                ; magicseg='TEXT32' len=36
  "__ZN14OpenJade_DSSSL10FOTBuilderD1Ev"                                ; magicseg='TEXT32' len=36
  "__ZN14OpenJade_DSSSL10FOTBuilderD0Ev"                                ; magicseg='TEXT32' len=36
  "__ZN14OpenJade_DSSSL10FOTBuilder5startEv"                            ; magicseg='TEXT32' len=40
  "__ZN14OpenJade_DSSSL10FOTBuilder3endEv"                              ; magicseg='TEXT32' len=38
  "__ZN14OpenJade_DSSSL10FOTBuilder6atomicEv"                           ; magicseg='TEXT32' len=41
  "__ZN14OpenJade_DSSSL10FOTBuilder10charactersEPKjj"                   ; magicseg='TEXT32' len=49
  "__ZN14OpenJade_DSSSL10FOTBuilder18charactersFromNodeERKN14OpenJade_Grove7NodePtrEPKjj"                                 ; magicseg='TEXT32' len=85
  "__ZN14OpenJade_DSSSL10FOTBuilder9characterERKNS0_12CharacterNICE"    ; magicseg='TEXT32' len=64
  "__ZN14OpenJade_DSSSL10FOTBuilder13startSequenceEv"                   ; magicseg='TEXT32' len=49
  "__ZN14OpenJade_DSSSL10FOTBuilder11endSequenceEv"                     ; magicseg='TEXT32' len=47
  "__ZN14OpenJade_DSSSL10FOTBuilder14startLineFieldERKNS0_9InlineNICE"                      ; magicseg='TEXT32' len=66
  "__ZN14OpenJade_DSSSL10FOTBuilder12endLineFieldEv"                    ; magicseg='TEXT32' len=48
  "__ZN14OpenJade_DSSSL10FOTBuilder14paragraphBreakERKNS0_10DisplayNICE"                    ; magicseg='TEXT32' len=68
  "__ZN14OpenJade_DSSSL10FOTBuilder15externalGraphicERKNS0_18ExternalGraphicNICE"           ; magicseg='TEXT32' len=77
  "__ZN14OpenJade_DSSSL10FOTBuilder4ruleERKNS0_7RuleNICE"               ; magicseg='TEXT32' len=53
  "__ZN14OpenJade_DSSSL10FOTBuilder14alignmentPointEv"                  ; magicseg='TEXT32' len=50
  "__ZN14OpenJade_DSSSL10FOTBuilder21formattingInstructionERKN6OpenSP6StringIjEE"           ; magicseg='TEXT32' len=77
  "__ZN14OpenJade_DSSSL10FOTBuilder14startParagraphERKNS0_10DisplayNICE"                    ; magicseg='TEXT32' len=68
  "__ZN14OpenJade_DSSSL10FOTBuilder12endParagraphEv"                    ; magicseg='TEXT32' len=48
  "__ZN14OpenJade_DSSSL10FOTBuilder17startDisplayGroupERKNS0_15DisplayGroupNICE"            ; magicseg='TEXT32' len=76
  "__ZN14OpenJade_DSSSL10FOTBuilder15endDisplayGroupEv"                 ; magicseg='TEXT32' len=51
  "__ZN14OpenJade_DSSSL10FOTBuilder11startScrollEv"                     ; magicseg='TEXT32' len=47
  "__ZN14OpenJade_DSSSL10FOTBuilder9endScrollEv"                        ; magicseg='TEXT32' len=44
  "__ZN14OpenJade_DSSSL10FOTBuilder9startLinkERKNS0_7AddressE"          ; magicseg='TEXT32' len=58
  "__ZN14OpenJade_DSSSL10FOTBuilder7endLinkEv"                          ; magicseg='TEXT32' len=42
  "__ZN14OpenJade_DSSSL10FOTBuilder15startMarginaliaEv"                 ; magicseg='TEXT32' len=51
  "__ZN14OpenJade_DSSSL10FOTBuilder13endMarginaliaEv"                   ; magicseg='TEXT32' len=49
  "__ZN14OpenJade_DSSSL10FOTBuilder14startMultiModeEPKNS0_9MultiModeERKN6OpenSP6VectorIS1_EERNS5_IPS0_EE"                 ; magicseg='TEXT32' len=101
  "__ZN14OpenJade_DSSSL10FOTBuilder12endMultiModeEv"                    ; magicseg='TEXT32' len=48
  "__ZN14OpenJade_DSSSL10FOTBuilder10startScoreENS0_6SymbolE"           ; magicseg='TEXT32' len=57
  "__ZN14OpenJade_DSSSL10FOTBuilder10startScoreEj"                      ; magicseg='TEXT32' len=46
  "__ZN14OpenJade_DSSSL10FOTBuilder10startScoreERKNS0_10LengthSpecE"    ; magicseg='TEXT32' len=64
  "__ZN14OpenJade_DSSSL10FOTBuilder8endScoreEv"                         ; magicseg='TEXT32' len=43
  "__ZN14OpenJade_DSSSL10FOTBuilder11startLeaderERKNS0_9LeaderNICE"     ; magicseg='TEXT32' len=63
  "__ZN14OpenJade_DSSSL10FOTBuilder9endLeaderEv"                        ; magicseg='TEXT32' len=44
  "__ZN14OpenJade_DSSSL10FOTBuilder8startBoxERKNS0_6BoxNICE"            ; magicseg='TEXT32' len=56
  "__ZN14OpenJade_DSSSL10FOTBuilder6endBoxEv"                           ; magicseg='TEXT32' len=41
  "__ZN14OpenJade_DSSSL10FOTBuilder13startSidelineEv"                   ; magicseg='TEXT32' len=49
  "__ZN14OpenJade_DSSSL10FOTBuilder11endSidelineEv"                     ; magicseg='TEXT32' len=47
  "__ZN14OpenJade_DSSSL10FOTBuilder23startSimplePageSequenceEPPS0_"     ; magicseg='TEXT32' len=63
  "__ZN14OpenJade_DSSSL10FOTBuilder33endSimplePageSequenceHeaderFooterEv"                   ; magicseg='TEXT32' len=69
  "__ZN14OpenJade_DSSSL10FOTBuilder21endSimplePageSequenceEv"           ; magicseg='TEXT32' len=57
  "__ZN14OpenJade_DSSSL10FOTBuilder22startColumnSetSequenceERKNS0_10DisplayNICE"            ; magicseg='TEXT32' len=76
  "__ZN14OpenJade_DSSSL10FOTBuilder20endColumnSetSequenceEv"            ; magicseg='TEXT32' len=56
  "__ZN14OpenJade_DSSSL10FOTBuilder17startPageSequenceEv"               ; magicseg='TEXT32' len=53
  "__ZN14OpenJade_DSSSL10FOTBuilder15endPageSequenceEv"                 ; magicseg='TEXT32' len=51
  "__ZN14OpenJade_DSSSL10FOTBuilder6anchorERKNS0_9AnchorNICE"           ; magicseg='TEXT32' len=57
  "__ZN14OpenJade_DSSSL10FOTBuilder17startEmbeddedTextERKNS0_15EmbeddedTextNICE"            ; magicseg='TEXT32' len=76
  "__ZN14OpenJade_DSSSL10FOTBuilder15endEmbeddedTextEv"                 ; magicseg='TEXT32' len=51
  "__ZN14OpenJade_DSSSL10FOTBuilder26startIncludedContainerAreaERKNS0_24IncludedContainerAreaNICE"                        ; magicseg='TEXT32' len=94
  "__ZN14OpenJade_DSSSL10FOTBuilder24endIncludedContainerAreaEv"        ; magicseg='TEXT32' len=60
  "__ZN14OpenJade_DSSSL10FOTBuilder18startAlignedColumnERKNS0_10DisplayNICE"                ; magicseg='TEXT32' len=72
  "__ZN14OpenJade_DSSSL10FOTBuilder16endAlignedColumnEv"                ; magicseg='TEXT32' len=52
  "__ZN14OpenJade_DSSSL10FOTBuilder24startMultiLineInlineNoteERKNS0_22MultiLineInlineNoteNICEPPS0_"                       ; magicseg='TEXT32' len=95
  "__ZN14OpenJade_DSSSL10FOTBuilder22endMultiLineInlineNoteEv"          ; magicseg='TEXT32' len=58
  "__ZN14OpenJade_DSSSL10FOTBuilder31endMultiLineInlineNoteOpenCloseEv"                     ; magicseg='TEXT32' len=67
  "__ZN14OpenJade_DSSSL10FOTBuilder20startEmphasizingMarkERKNS0_18EmphasizingMarkNICEPPS0_"                               ; magicseg='TEXT32' len=87
  "__ZN14OpenJade_DSSSL10FOTBuilder18endEmphasizingMarkEv"              ; magicseg='TEXT32' len=54
  "__ZN14OpenJade_DSSSL10FOTBuilder20endEmphasizingMarkEMEv"            ; magicseg='TEXT32' len=56
  "__ZN14OpenJade_DSSSL10FOTBuilder20startGlyphAnnotationERKNS0_18GlyphAnnotationNICE"      ; magicseg='TEXT32' len=82
  "__ZN14OpenJade_DSSSL10FOTBuilder18endGlyphAnnotationEv"              ; magicseg='TEXT32' len=54
  "__ZN14OpenJade_DSSSL10FOTBuilder15startSideBySideERKNS0_10DisplayNICE"                   ; magicseg='TEXT32' len=69
  "__ZN14OpenJade_DSSSL10FOTBuilder13endSideBySideEv"                   ; magicseg='TEXT32' len=49
  "__ZN14OpenJade_DSSSL10FOTBuilder19startSideBySideItemEv"             ; magicseg='TEXT32' len=55
  "__ZN14OpenJade_DSSSL10FOTBuilder17endSideBySideItemEv"               ; magicseg='TEXT32' len=53
  "__ZN14OpenJade_DSSSL10FOTBuilder10pageNumberEv"                      ; magicseg='TEXT32' len=46
  "__ZN14OpenJade_DSSSL10FOTBuilder10startTableERKNS0_8TableNICE"       ; magicseg='TEXT32' len=61
  "__ZN14OpenJade_DSSSL10FOTBuilder8endTableEv"                         ; magicseg='TEXT32' len=43
  "__ZN14OpenJade_DSSSL10FOTBuilder20tableBeforeRowBorderEv"            ; magicseg='TEXT32' len=56
  "__ZN14OpenJade_DSSSL10FOTBuilder19tableAfterRowBorderEv"             ; magicseg='TEXT32' len=55
  "__ZN14OpenJade_DSSSL10FOTBuilder23tableBeforeColumnBorderEv"         ; magicseg='TEXT32' len=59
  "__ZN14OpenJade_DSSSL10FOTBuilder22tableAfterColumnBorderEv"          ; magicseg='TEXT32' len=58
  "__ZN14OpenJade_DSSSL10FOTBuilder14startTablePartERKNS0_10DisplayNICERPS0_S5_"            ; magicseg='TEXT32' len=76
  "__ZN14OpenJade_DSSSL10FOTBuilder12endTablePartEv"                    ; magicseg='TEXT32' len=48
  "__ZN14OpenJade_DSSSL10FOTBuilder11tableColumnERKNS0_14TableColumnNICE"                   ; magicseg='TEXT32' len=69
  "__ZN14OpenJade_DSSSL10FOTBuilder13startTableRowEv"                   ; magicseg='TEXT32' len=49
  "__ZN14OpenJade_DSSSL10FOTBuilder11endTableRowEv"                     ; magicseg='TEXT32' len=47
  "__ZN14OpenJade_DSSSL10FOTBuilder14startTableCellERKNS0_12TableCellNICE"                  ; magicseg='TEXT32' len=70
  "__ZN14OpenJade_DSSSL10FOTBuilder12endTableCellEv"                    ; magicseg='TEXT32' len=48
  "__ZN14OpenJade_DSSSL10FOTBuilder24tableCellBeforeRowBorderEv"        ; magicseg='TEXT32' len=60
  "__ZN14OpenJade_DSSSL10FOTBuilder23tableCellAfterRowBorderEv"         ; magicseg='TEXT32' len=59
  "__ZN14OpenJade_DSSSL10FOTBuilder27tableCellBeforeColumnBorderEv"     ; magicseg='TEXT32' len=63
  "__ZN14OpenJade_DSSSL10FOTBuilder26tableCellAfterColumnBorderEv"      ; magicseg='TEXT32' len=62
  "__ZN14OpenJade_DSSSL10FOTBuilder17startMathSequenceEv"               ; magicseg='TEXT32' len=53
  "__ZN14OpenJade_DSSSL10FOTBuilder15endMathSequenceEv"                 ; magicseg='TEXT32' len=51
  "__ZN14OpenJade_DSSSL10FOTBuilder13startFractionERPS0_S2_"            ; magicseg='TEXT32' len=56
  "__ZN14OpenJade_DSSSL10FOTBuilder11endFractionEv"                     ; magicseg='TEXT32' len=47
  "__ZN14OpenJade_DSSSL10FOTBuilder11fractionBarEv"                     ; magicseg='TEXT32' len=47
  "__ZN14OpenJade_DSSSL10FOTBuilder11startUnmathEv"                     ; magicseg='TEXT32' len=47
  "__ZN14OpenJade_DSSSL10FOTBuilder9endUnmathEv"                        ; magicseg='TEXT32' len=44
  "__ZN14OpenJade_DSSSL10FOTBuilder16startSuperscriptEv"                ; magicseg='TEXT32' len=52
  "__ZN14OpenJade_DSSSL10FOTBuilder14endSuperscriptEv"                  ; magicseg='TEXT32' len=50
  "__ZN14OpenJade_DSSSL10FOTBuilder14startSubscriptEv"                  ; magicseg='TEXT32' len=50
  "__ZN14OpenJade_DSSSL10FOTBuilder12endSubscriptEv"                    ; magicseg='TEXT32' len=48
  "__ZN14OpenJade_DSSSL10FOTBuilder11startScriptERPS0_S2_S2_S2_S2_S2_"                      ; magicseg='TEXT32' len=66
  "__ZN14OpenJade_DSSSL10FOTBuilder9endScriptEv"                        ; magicseg='TEXT32' len=44
  "__ZN14OpenJade_DSSSL10FOTBuilder9startMarkERPS0_S2_"                 ; magicseg='TEXT32' len=51
  "__ZN14OpenJade_DSSSL10FOTBuilder7endMarkEv"                          ; magicseg='TEXT32' len=42
  "__ZN14OpenJade_DSSSL10FOTBuilder10startFenceERPS0_S2_"               ; magicseg='TEXT32' len=53
  "__ZN14OpenJade_DSSSL10FOTBuilder8endFenceEv"                         ; magicseg='TEXT32' len=43
  "__ZN14OpenJade_DSSSL10FOTBuilder12startRadicalERPS0_"                ; magicseg='TEXT32' len=52
  "__ZN14OpenJade_DSSSL10FOTBuilder10endRadicalEv"                      ; magicseg='TEXT32' len=46
  "__ZN14OpenJade_DSSSL10FOTBuilder14radicalRadicalERKNS0_12CharacterNICE"                  ; magicseg='TEXT32' len=70
  "__ZN14OpenJade_DSSSL10FOTBuilder23radicalRadicalDefaultedEv"         ; magicseg='TEXT32' len=59
  "__ZN14OpenJade_DSSSL10FOTBuilder17startMathOperatorERPS0_S2_S2_"     ; magicseg='TEXT32' len=63
  "__ZN14OpenJade_DSSSL10FOTBuilder15endMathOperatorEv"                 ; magicseg='TEXT32' len=51
  "__ZN14OpenJade_DSSSL10FOTBuilder9startGridERKNS0_7GridNICE"          ; magicseg='TEXT32' len=58
  "__ZN14OpenJade_DSSSL10FOTBuilder7endGridEv"                          ; magicseg='TEXT32' len=42
  "__ZN14OpenJade_DSSSL10FOTBuilder13startGridCellERKNS0_11GridCellNICE"                    ; magicseg='TEXT32' len=68
  "__ZN14OpenJade_DSSSL10FOTBuilder11endGridCellEv"                     ; magicseg='TEXT32' len=47
  "__ZN14OpenJade_DSSSL10FOTBuilder9extensionERKNS0_16ExtensionFlowObjERKN14OpenJade_Grove7NodePtrE"                      ; magicseg='TEXT32' len=96
  "__ZN14OpenJade_DSSSL10FOTBuilder14startExtensionERKNS0_24CompoundExtensionFlowObjERKN14OpenJade_Grove7NodePtrERN6OpenSP6VectorIPS0_EE"                      ; magicseg='TEXT32' len=133
  "__ZN14OpenJade_DSSSL10FOTBuilder12endExtensionERKNS0_24CompoundExtensionFlowObjE"        ; magicseg='TEXT32' len=80
  "__ZN14OpenJade_DSSSL10FOTBuilder11setFontSizeEl"                     ; magicseg='TEXT32' len=47
  "__ZN14OpenJade_DSSSL10FOTBuilder17setFontFamilyNameERKN6OpenSP6StringIjEE"               ; magicseg='TEXT32' len=73
  "__ZN14OpenJade_DSSSL10FOTBuilder13setFontWeightENS0_6SymbolE"        ; magicseg='TEXT32' len=60
  "__ZN14OpenJade_DSSSL10FOTBuilder14setFontPostureENS0_6SymbolE"       ; magicseg='TEXT32' len=61
  "__ZN14OpenJade_DSSSL10FOTBuilder14setStartIndentERKNS0_10LengthSpecE"                    ; magicseg='TEXT32' len=68
  "__ZN14OpenJade_DSSSL10FOTBuilder12setEndIndentERKNS0_10LengthSpecE"                      ; magicseg='TEXT32' len=66
  "__ZN14OpenJade_DSSSL10FOTBuilder23setFirstLineStartIndentERKNS0_10LengthSpecE"           ; magicseg='TEXT32' len=77
  "__ZN14OpenJade_DSSSL10FOTBuilder20setLastLineEndIndentERKNS0_10LengthSpecE"              ; magicseg='TEXT32' len=74
  "__ZN14OpenJade_DSSSL10FOTBuilder14setLineSpacingERKNS0_10LengthSpecE"                    ; magicseg='TEXT32' len=68
  "__ZN14OpenJade_DSSSL10FOTBuilder13setFieldWidthERKNS0_10LengthSpecE"                     ; magicseg='TEXT32' len=67
  "__ZN14OpenJade_DSSSL10FOTBuilder11setQuaddingENS0_6SymbolE"          ; magicseg='TEXT32' len=58
  "__ZN14OpenJade_DSSSL10FOTBuilder19setDisplayAlignmentENS0_6SymbolE"                      ; magicseg='TEXT32' len=66
  "__ZN14OpenJade_DSSSL10FOTBuilder13setFieldAlignENS0_6SymbolE"        ; magicseg='TEXT32' len=60
  "__ZN14OpenJade_DSSSL10FOTBuilder8setLinesENS0_6SymbolE"              ; magicseg='TEXT32' len=54
  "__ZN14OpenJade_DSSSL10FOTBuilder8setColorERKNS0_14DeviceRGBColorE"                       ; magicseg='TEXT32' len=65
  "__ZN14OpenJade_DSSSL10FOTBuilder18setBackgroundColorERKNS0_14DeviceRGBColorE"            ; magicseg='TEXT32' len=76
  "__ZN14OpenJade_DSSSL10FOTBuilder18setBackgroundColorEv"              ; magicseg='TEXT32' len=54
  "__ZN14OpenJade_DSSSL10FOTBuilder12setPageWidthEl"                    ; magicseg='TEXT32' len=48
  "__ZN14OpenJade_DSSSL10FOTBuilder13setPageHeightEl"                   ; magicseg='TEXT32' len=49
  "__ZN14OpenJade_DSSSL10FOTBuilder13setLeftMarginEl"                   ; magicseg='TEXT32' len=49
  "__ZN14OpenJade_DSSSL10FOTBuilder14setRightMarginEl"                  ; magicseg='TEXT32' len=50
  "__ZN14OpenJade_DSSSL10FOTBuilder12setTopMarginEl"                    ; magicseg='TEXT32' len=48
  "__ZN14OpenJade_DSSSL10FOTBuilder15setBottomMarginEl"                 ; magicseg='TEXT32' len=51
  "__ZN14OpenJade_DSSSL10FOTBuilder15setHeaderMarginEl"                 ; magicseg='TEXT32' len=51
  "__ZN14OpenJade_DSSSL10FOTBuilder15setFooterMarginEl"                 ; magicseg='TEXT32' len=51
  "__ZN14OpenJade_DSSSL10FOTBuilder15setPageCategoryENS0_6SymbolE"      ; magicseg='TEXT32' len=62
  "__ZN14OpenJade_DSSSL10FOTBuilder16setForceLastPageENS0_6SymbolE"     ; magicseg='TEXT32' len=63
  "__ZN14OpenJade_DSSSL10FOTBuilder17setForceFirstPageENS0_6SymbolE"    ; magicseg='TEXT32' len=64
  "__ZN14OpenJade_DSSSL10FOTBuilder16setFirstPageTypeENS0_6SymbolE"     ; magicseg='TEXT32' len=63
  "__ZN14OpenJade_DSSSL10FOTBuilder16setJustifySpreadEb"                ; magicseg='TEXT32' len=52
  "__ZN14OpenJade_DSSSL10FOTBuilder14setBindingEdgeENS0_6SymbolE"       ; magicseg='TEXT32' len=61
  "__ZN14OpenJade_DSSSL10FOTBuilder25setAnchorKeepWithPreviousEb"       ; magicseg='TEXT32' len=61
  "__ZN14OpenJade_DSSSL10FOTBuilder20setContentsAlignmentENS0_6SymbolE"                     ; magicseg='TEXT32' len=67
  "__ZN14OpenJade_DSSSL10FOTBuilder17setOverflowActionENS0_6SymbolE"    ; magicseg='TEXT32' len=64
  "__ZN14OpenJade_DSSSL10FOTBuilder27setAnnotationGlyphPlacementENS0_6SymbolE"              ; magicseg='TEXT32' len=74
  "__ZN14OpenJade_DSSSL10FOTBuilder23setAnnotationGlyphStyleEPKc"       ; magicseg='TEXT32' len=61
  "__ZN14OpenJade_DSSSL10FOTBuilder22setInlineNoteLineCountEl"          ; magicseg='TEXT32' len=58
  "__ZN14OpenJade_DSSSL10FOTBuilder18setInlineNoteStyleEPKc"            ; magicseg='TEXT32' len=56
  "__ZN14OpenJade_DSSSL10FOTBuilder19setMarkDistributionENS0_6SymbolE"                      ; magicseg='TEXT32' len=66
  "__ZN14OpenJade_DSSSL10FOTBuilder12setMarkStyleEPKc"                  ; magicseg='TEXT32' len=50
  "__ZN14OpenJade_DSSSL10FOTBuilder27setSideBySideOverlapControlENS0_6SymbolE"              ; magicseg='TEXT32' len=74
  "__ZN14OpenJade_DSSSL10FOTBuilder21setSideBySidePreAlignENS0_6SymbolE"                    ; magicseg='TEXT32' len=68
  "__ZN14OpenJade_DSSSL10FOTBuilder22setSideBySidePostAlignENS0_6SymbolE"                   ; magicseg='TEXT32' len=69
  "__ZN14OpenJade_DSSSL10FOTBuilder16setBorderPresentEb"                ; magicseg='TEXT32' len=52
  "__ZN14OpenJade_DSSSL10FOTBuilder16setLineThicknessEl"                ; magicseg='TEXT32' len=52
  "__ZN14OpenJade_DSSSL10FOTBuilder22setCellBeforeRowMarginEl"          ; magicseg='TEXT32' len=58
  "__ZN14OpenJade_DSSSL10FOTBuilder21setCellAfterRowMarginEl"           ; magicseg='TEXT32' len=57
  "__ZN14OpenJade_DSSSL10FOTBuilder25setCellBeforeColumnMarginEl"       ; magicseg='TEXT32' len=61
  "__ZN14OpenJade_DSSSL10FOTBuilder24setCellAfterColumnMarginEl"        ; magicseg='TEXT32' len=60
  "__ZN14OpenJade_DSSSL10FOTBuilder10setLineSepEl"                      ; magicseg='TEXT32' len=46
  "__ZN14OpenJade_DSSSL10FOTBuilder16setBoxSizeBeforeEl"                ; magicseg='TEXT32' len=52
  "__ZN14OpenJade_DSSSL10FOTBuilder15setBoxSizeAfterEl"                 ; magicseg='TEXT32' len=51
  "__ZN14OpenJade_DSSSL10FOTBuilder21setPositionPointShiftERKNS0_10LengthSpecE"             ; magicseg='TEXT32' len=75
  "__ZN14OpenJade_DSSSL10FOTBuilder14setStartMarginERKNS0_10LengthSpecE"                    ; magicseg='TEXT32' len=68
  "__ZN14OpenJade_DSSSL10FOTBuilder12setEndMarginERKNS0_10LengthSpecE"                      ; magicseg='TEXT32' len=66
  "__ZN14OpenJade_DSSSL10FOTBuilder14setSidelineSepERKNS0_10LengthSpecE"                    ; magicseg='TEXT32' len=68
  "__ZN14OpenJade_DSSSL10FOTBuilder17setAsisWrapIndentERKNS0_10LengthSpecE"                 ; magicseg='TEXT32' len=71
  "__ZN14OpenJade_DSSSL10FOTBuilder16setLineNumberSepERKNS0_10LengthSpecE"                  ; magicseg='TEXT32' len=70
  "__ZN14OpenJade_DSSSL10FOTBuilder23setLastLineJustifyLimitERKNS0_10LengthSpecE"           ; magicseg='TEXT32' len=77
  "__ZN14OpenJade_DSSSL10FOTBuilder26setJustifyGlyphSpaceMaxAddERKNS0_10LengthSpecE"        ; magicseg='TEXT32' len=80
  "__ZN14OpenJade_DSSSL10FOTBuilder29setJustifyGlyphSpaceMaxRemoveERKNS0_10LengthSpecE"     ; magicseg='TEXT32' len=83
  "__ZN14OpenJade_DSSSL10FOTBuilder20setTableCornerRadiusERKNS0_10LengthSpecE"              ; magicseg='TEXT32' len=74
  "__ZN14OpenJade_DSSSL10FOTBuilder18setBoxCornerRadiusERKNS0_10LengthSpecE"                ; magicseg='TEXT32' len=72
  "__ZN14OpenJade_DSSSL10FOTBuilder16setMarginaliaSepERKNS0_10LengthSpecE"                  ; magicseg='TEXT32' len=70
  "__ZN14OpenJade_DSSSL10FOTBuilder20setMinPreLineSpacingERKNS0_13OptLengthSpecE"           ; magicseg='TEXT32' len=77
  "__ZN14OpenJade_DSSSL10FOTBuilder21setMinPostLineSpacingERKNS0_13OptLengthSpecE"          ; magicseg='TEXT32' len=78
  "__ZN14OpenJade_DSSSL10FOTBuilder13setMinLeadingERKNS0_13OptLengthSpecE"                  ; magicseg='TEXT32' len=70
  "__ZN14OpenJade_DSSSL10FOTBuilder20setInhibitLineBreaksEb"            ; magicseg='TEXT32' len=56
  "__ZN14OpenJade_DSSSL10FOTBuilder12setHyphenateEb"                    ; magicseg='TEXT32' len=48
  "__ZN14OpenJade_DSSSL10FOTBuilder7setKernEb"                          ; magicseg='TEXT32' len=42
  "__ZN14OpenJade_DSSSL10FOTBuilder11setLigatureEb"                     ; magicseg='TEXT32' len=47
  "__ZN14OpenJade_DSSSL10FOTBuilder14setScoreSpacesEb"                  ; magicseg='TEXT32' len=50
  "__ZN14OpenJade_DSSSL10FOTBuilder21setFloatOutMarginaliaEb"           ; magicseg='TEXT32' len=57
  "__ZN14OpenJade_DSSSL10FOTBuilder20setFloatOutSidelinesEb"            ; magicseg='TEXT32' len=56
  "__ZN14OpenJade_DSSSL10FOTBuilder22setFloatOutLineNumbersEb"          ; magicseg='TEXT32' len=58
  "__ZN14OpenJade_DSSSL10FOTBuilder17setCellBackgroundEb"               ; magicseg='TEXT32' len=53
  "__ZN14OpenJade_DSSSL10FOTBuilder11setSpanWeakEb"                     ; magicseg='TEXT32' len=47
  "__ZN14OpenJade_DSSSL10FOTBuilder18setIgnoreRecordEndEb"              ; magicseg='TEXT32' len=54
  "__ZN14OpenJade_DSSSL10FOTBuilder16setNumberedLinesEb"                ; magicseg='TEXT32' len=52
  "__ZN14OpenJade_DSSSL10FOTBuilder15setHangingPunctEb"                 ; magicseg='TEXT32' len=51
  "__ZN14OpenJade_DSSSL10FOTBuilder13setBoxOpenEndEb"                   ; magicseg='TEXT32' len=49
  "__ZN14OpenJade_DSSSL10FOTBuilder17setTruncateLeaderEb"               ; magicseg='TEXT32' len=53
  "__ZN14OpenJade_DSSSL10FOTBuilder14setAlignLeaderEb"                  ; magicseg='TEXT32' len=50
  "__ZN14OpenJade_DSSSL10FOTBuilder28setTablePartOmitMiddleHeaderEb"    ; magicseg='TEXT32' len=64
  "__ZN14OpenJade_DSSSL10FOTBuilder28setTablePartOmitMiddleFooterEb"    ; magicseg='TEXT32' len=64
  "__ZN14OpenJade_DSSSL10FOTBuilder20setBorderOmitAtBreakEb"            ; magicseg='TEXT32' len=56
  "__ZN14OpenJade_DSSSL10FOTBuilder28setPrincipalModeSimultaneousEb"    ; magicseg='TEXT32' len=64
  "__ZN14OpenJade_DSSSL10FOTBuilder29setMarginaliaKeepWithPreviousEb"                       ; magicseg='TEXT32' len=65
  "__ZN14OpenJade_DSSSL10FOTBuilder22setGridEquidistantRowsEb"          ; magicseg='TEXT32' len=58
  "__ZN14OpenJade_DSSSL10FOTBuilder25setGridEquidistantColumnsEb"       ; magicseg='TEXT32' len=61
  "__ZN14OpenJade_DSSSL10FOTBuilder11setLineJoinENS0_6SymbolE"          ; magicseg='TEXT32' len=58
  "__ZN14OpenJade_DSSSL10FOTBuilder10setLineCapENS0_6SymbolE"           ; magicseg='TEXT32' len=57
  "__ZN14OpenJade_DSSSL10FOTBuilder17setLineNumberSideENS0_6SymbolE"    ; magicseg='TEXT32' len=64
  "__ZN14OpenJade_DSSSL10FOTBuilder11setKernModeENS0_6SymbolE"          ; magicseg='TEXT32' len=58
  "__ZN14OpenJade_DSSSL10FOTBuilder27setInputWhitespaceTreatmentENS0_6SymbolE"              ; magicseg='TEXT32' len=74
  "__ZN14OpenJade_DSSSL10FOTBuilder19setFillingDirectionENS0_6SymbolE"                      ; magicseg='TEXT32' len=66
  "__ZN14OpenJade_DSSSL10FOTBuilder14setWritingModeENS0_6SymbolE"       ; magicseg='TEXT32' len=61
  "__ZN14OpenJade_DSSSL10FOTBuilder19setLastLineQuaddingENS0_6SymbolE"                      ; magicseg='TEXT32' len=66
  "__ZN14OpenJade_DSSSL10FOTBuilder18setMathDisplayModeENS0_6SymbolE"                       ; magicseg='TEXT32' len=65
  "__ZN14OpenJade_DSSSL10FOTBuilder17setScriptPreAlignENS0_6SymbolE"    ; magicseg='TEXT32' len=64
  "__ZN14OpenJade_DSSSL10FOTBuilder18setScriptPostAlignENS0_6SymbolE"                       ; magicseg='TEXT32' len=65
  "__ZN14OpenJade_DSSSL10FOTBuilder20setScriptMidSupAlignENS0_6SymbolE"                     ; magicseg='TEXT32' len=67
  "__ZN14OpenJade_DSSSL10FOTBuilder20setScriptMidSubAlignENS0_6SymbolE"                     ; magicseg='TEXT32' len=67
  "__ZN14OpenJade_DSSSL10FOTBuilder17setNumeratorAlignENS0_6SymbolE"    ; magicseg='TEXT32' len=64
  "__ZN14OpenJade_DSSSL10FOTBuilder19setDenominatorAlignENS0_6SymbolE"                      ; magicseg='TEXT32' len=66
  "__ZN14OpenJade_DSSSL10FOTBuilder23setGridPositionCellTypeENS0_6SymbolE"                  ; magicseg='TEXT32' len=70
  "__ZN14OpenJade_DSSSL10FOTBuilder22setGridColumnAlignmentENS0_6SymbolE"                   ; magicseg='TEXT32' len=69
  "__ZN14OpenJade_DSSSL10FOTBuilder19setGridRowAlignmentENS0_6SymbolE"                      ; magicseg='TEXT32' len=66
  "__ZN14OpenJade_DSSSL10FOTBuilder10setBoxTypeENS0_6SymbolE"           ; magicseg='TEXT32' len=57
  "__ZN14OpenJade_DSSSL10FOTBuilder21setGlyphAlignmentModeENS0_6SymbolE"                    ; magicseg='TEXT32' len=68
  "__ZN14OpenJade_DSSSL10FOTBuilder21setBoxBorderAlignmentENS0_6SymbolE"                    ; magicseg='TEXT32' len=68
  "__ZN14OpenJade_DSSSL10FOTBuilder19setCellRowAlignmentENS0_6SymbolE"                      ; magicseg='TEXT32' len=66
  "__ZN14OpenJade_DSSSL10FOTBuilder18setBorderAlignmentENS0_6SymbolE"                       ; magicseg='TEXT32' len=65
  "__ZN14OpenJade_DSSSL10FOTBuilder15setSidelineSideENS0_6SymbolE"      ; magicseg='TEXT32' len=62
  "__ZN14OpenJade_DSSSL10FOTBuilder18setHyphenationKeepENS0_6SymbolE"                       ; magicseg='TEXT32' len=65
  "__ZN14OpenJade_DSSSL10FOTBuilder16setFontStructureENS0_6SymbolE"     ; magicseg='TEXT32' len=63
  "__ZN14OpenJade_DSSSL10FOTBuilder25setFontProportionateWidthENS0_6SymbolE"                ; magicseg='TEXT32' len=72
  "__ZN14OpenJade_DSSSL10FOTBuilder14setCellCrossedENS0_6SymbolE"       ; magicseg='TEXT32' len=61
  "__ZN14OpenJade_DSSSL10FOTBuilder17setMarginaliaSideENS0_6SymbolE"    ; magicseg='TEXT32' len=64
  "__ZN14OpenJade_DSSSL10FOTBuilder8setLayerEl"                         ; magicseg='TEXT32' len=43
  "__ZN14OpenJade_DSSSL10FOTBuilder18setBackgroundLayerEl"              ; magicseg='TEXT32' len=54
  "__ZN14OpenJade_DSSSL10FOTBuilder17setBorderPriorityEl"               ; magicseg='TEXT32' len=53
  "__ZN14OpenJade_DSSSL10FOTBuilder13setLineRepeatEl"                   ; magicseg='TEXT32' len=49
  "__ZN14OpenJade_DSSSL10FOTBuilder7setSpanEl"                          ; magicseg='TEXT32' len=42
  "__ZN14OpenJade_DSSSL10FOTBuilder18setMinLeaderRepeatEl"              ; magicseg='TEXT32' len=54
  "__ZN14OpenJade_DSSSL10FOTBuilder29setHyphenationRemainCharCountEl"                       ; magicseg='TEXT32' len=65
  "__ZN14OpenJade_DSSSL10FOTBuilder27setHyphenationPushCharCountEl"     ; magicseg='TEXT32' len=63
  "__ZN14OpenJade_DSSSL10FOTBuilder13setWidowCountEl"                   ; magicseg='TEXT32' len=49
  "__ZN14OpenJade_DSSSL10FOTBuilder14setOrphanCountEl"                  ; magicseg='TEXT32' len=50
  "__ZN14OpenJade_DSSSL10FOTBuilder13setExpandTabsEl"                   ; magicseg='TEXT32' len=49
  "__ZN14OpenJade_DSSSL10FOTBuilder25setHyphenationLadderCountEl"       ; magicseg='TEXT32' len=61
  "__ZN14OpenJade_DSSSL10FOTBuilder17setBackgroundTileEPKc"             ; magicseg='TEXT32' len=55
  "__ZN14OpenJade_DSSSL10FOTBuilder21setLineBreakingMethodEPKc"         ; magicseg='TEXT32' len=59
  "__ZN14OpenJade_DSSSL10FOTBuilder24setLineCompositionMethodEPKc"      ; magicseg='TEXT32' len=62
  "__ZN14OpenJade_DSSSL10FOTBuilder21setImplicitBidiMethodEPKc"         ; magicseg='TEXT32' len=59
  "__ZN14OpenJade_DSSSL10FOTBuilder19setGlyphSubstMethodEPKc"           ; magicseg='TEXT32' len=57
  "__ZN14OpenJade_DSSSL10FOTBuilder21setGlyphReorderMethodEPKc"         ; magicseg='TEXT32' len=59
  "__ZN14OpenJade_DSSSL10FOTBuilder20setHyphenationMethodEPKc"          ; magicseg='TEXT32' len=58
  "__ZN14OpenJade_DSSSL10FOTBuilder23setTableAutoWidthMethodEPKc"       ; magicseg='TEXT32' len=61
  "__ZN14OpenJade_DSSSL10FOTBuilder11setFontNameEPKc"                   ; magicseg='TEXT32' len=49
  "__ZN14OpenJade_DSSSL10FOTBuilder11setLanguageEj"                     ; magicseg='TEXT32' len=47
  "__ZN14OpenJade_DSSSL10FOTBuilder10setCountryEj"                      ; magicseg='TEXT32' len=46
  "__ZN14OpenJade_DSSSL10FOTBuilder24setEscapementSpaceBeforeERKNS0_11InlineSpaceE"         ; magicseg='TEXT32' len=79
  "__ZN14OpenJade_DSSSL10FOTBuilder23setEscapementSpaceAfterERKNS0_11InlineSpaceE"          ; magicseg='TEXT32' len=78
  "__ZN14OpenJade_DSSSL10FOTBuilder19setInlineSpaceSpaceERKNS0_14OptInlineSpaceE"           ; magicseg='TEXT32' len=77
  "__ZN14OpenJade_DSSSL10FOTBuilder18setGlyphSubstTableERKN6OpenSP6VectorINS1_8ConstPtrINS0_15GlyphSubstTableEEEEE"       ; magicseg='TEXT32' len=111
  "__ZN14OpenJade_DSSSL10FOTBuilder9startNodeERKN14OpenJade_Grove7NodePtrERKN6OpenSP6StringIjEE"                          ; magicseg='TEXT32' len=92
  "__ZN14OpenJade_DSSSL10FOTBuilder7endNodeEv"                          ; magicseg='TEXT32' len=42
  "__ZN14OpenJade_DSSSL10FOTBuilder21currentNodePageNumberERKN14OpenJade_Grove7NodePtrE"    ; magicseg='TEXT32' len=84
  "__ZN14OpenJade_DSSSL10FOTBuilder12extensionSetEMS0_FvbEb"            ; magicseg='TEXT32' len=56
  "__ZN14OpenJade_DSSSL10FOTBuilder12extensionSetEMS0_FvRKN6OpenSP6StringIjEEES5_"          ; magicseg='TEXT32' len=78
  "__ZN14OpenJade_DSSSL10FOTBuilder12extensionSetEMS0_FvlEl"            ; magicseg='TEXT32' len=56
  "__ZN14OpenJade_DSSSL10FOTBuilder10DisplayNICC2Ev"                    ; magicseg='TEXT32' len=48
  "__ZN14OpenJade_DSSSL10FOTBuilder10DisplayNICC1Ev"                    ; magicseg='TEXT32' len=48
  "__ZN14OpenJade_DSSSL10FOTBuilder15DisplayGroupNICC2Ev"               ; magicseg='TEXT32' len=53
  "__ZN14OpenJade_DSSSL10FOTBuilder15DisplayGroupNICC1Ev"               ; magicseg='TEXT32' len=53
  "__ZN14OpenJade_DSSSL10FOTBuilder9InlineNICC2Ev"                      ; magicseg='TEXT32' len=46
  "__ZN14OpenJade_DSSSL10FOTBuilder9InlineNICC1Ev"                      ; magicseg='TEXT32' len=46
  "__ZN14OpenJade_DSSSL10FOTBuilder18ExternalGraphicNICC2Ev"            ; magicseg='TEXT32' len=56
  "__ZN14OpenJade_DSSSL10FOTBuilder18ExternalGraphicNICC1Ev"            ; magicseg='TEXT32' len=56
  "__ZN14OpenJade_DSSSL10FOTBuilder6BoxNICC2Ev"                         ; magicseg='TEXT32' len=43
  "__ZN14OpenJade_DSSSL10FOTBuilder6BoxNICC1Ev"                         ; magicseg='TEXT32' len=43
  "__ZN14OpenJade_DSSSL10FOTBuilder7RuleNICC2Ev"                        ; magicseg='TEXT32' len=44
  "__ZN14OpenJade_DSSSL10FOTBuilder7RuleNICC1Ev"                        ; magicseg='TEXT32' len=44
  "__ZN14OpenJade_DSSSL10FOTBuilder9LeaderNICC2Ev"                      ; magicseg='TEXT32' len=46
  "__ZN14OpenJade_DSSSL10FOTBuilder9LeaderNICC1Ev"                      ; magicseg='TEXT32' len=46
  "__ZN14OpenJade_DSSSL10FOTBuilder12CharacterNICC2Ev"                  ; magicseg='TEXT32' len=50
  "__ZN14OpenJade_DSSSL10FOTBuilder12CharacterNICC1Ev"                  ; magicseg='TEXT32' len=50
  "__ZN14OpenJade_DSSSL10FOTBuilder8TableNICC2Ev"                       ; magicseg='TEXT32' len=45
  "__ZN14OpenJade_DSSSL10FOTBuilder8TableNICC1Ev"                       ; magicseg='TEXT32' len=45
  "__ZN14OpenJade_DSSSL10FOTBuilder14TableColumnNICC2Ev"                ; magicseg='TEXT32' len=52
  "__ZN14OpenJade_DSSSL10FOTBuilder14TableColumnNICC1Ev"                ; magicseg='TEXT32' len=52
  "__ZN14OpenJade_DSSSL10FOTBuilder12TableCellNICC2Ev"                  ; magicseg='TEXT32' len=50
  "__ZN14OpenJade_DSSSL10FOTBuilder12TableCellNICC1Ev"                  ; magicseg='TEXT32' len=50
  "__ZN14OpenJade_DSSSL10FOTBuilder7GridNICC2Ev"                        ; magicseg='TEXT32' len=44
  "__ZN14OpenJade_DSSSL10FOTBuilder7GridNICC1Ev"                        ; magicseg='TEXT32' len=44
  "__ZN14OpenJade_DSSSL10FOTBuilder11GridCellNICC2Ev"                   ; magicseg='TEXT32' len=49
  "__ZN14OpenJade_DSSSL10FOTBuilder11GridCellNICC1Ev"                   ; magicseg='TEXT32' len=49
  "__ZN14OpenJade_DSSSL10FOTBuilder9MultiModeC2Ev"                      ; magicseg='TEXT32' len=46
  "__ZN14OpenJade_DSSSL10FOTBuilder9MultiModeC1Ev"                      ; magicseg='TEXT32' len=46
  "__ZN14OpenJade_DSSSL10FOTBuilder15EmbeddedTextNICC2Ev"               ; magicseg='TEXT32' len=53
  "__ZN14OpenJade_DSSSL10FOTBuilder15EmbeddedTextNICC1Ev"               ; magicseg='TEXT32' len=53
  "__ZN14OpenJade_DSSSL10FOTBuilder9AnchorNICC2Ev"                      ; magicseg='TEXT32' len=46
  "__ZN14OpenJade_DSSSL10FOTBuilder9AnchorNICC1Ev"                      ; magicseg='TEXT32' len=46
  "__ZN14OpenJade_DSSSL10FOTBuilder24IncludedContainerAreaNICC2Ev"      ; magicseg='TEXT32' len=62
  "__ZN14OpenJade_DSSSL10FOTBuilder24IncludedContainerAreaNICC1Ev"      ; magicseg='TEXT32' len=62
  "__ZN14OpenJade_DSSSL10FOTBuilder22MultiLineInlineNoteNICC2Ev"        ; magicseg='TEXT32' len=60
  "__ZN14OpenJade_DSSSL10FOTBuilder22MultiLineInlineNoteNICC1Ev"        ; magicseg='TEXT32' len=60
  "__ZN14OpenJade_DSSSL10FOTBuilder18EmphasizingMarkNICC2Ev"            ; magicseg='TEXT32' len=56
  "__ZN14OpenJade_DSSSL10FOTBuilder18EmphasizingMarkNICC1Ev"            ; magicseg='TEXT32' len=56
  "__ZN14OpenJade_DSSSL10FOTBuilder18GlyphAnnotationNICC2Ev"            ; magicseg='TEXT32' len=56
  "__ZN14OpenJade_DSSSL10FOTBuilder18GlyphAnnotationNICC1Ev"            ; magicseg='TEXT32' len=56
  "__ZNK14OpenJade_DSSSL10FOTBuilder15GlyphSubstTable5substERKNS0_7GlyphIdE"                ; magicseg='TEXT32' len=72
  "__ZN14OpenJade_DSSSL14SaveFOTBuilderC2Ev"                            ; magicseg='TEXT32' len=40
  "__ZN14OpenJade_DSSSL14SaveFOTBuilderC1Ev"                            ; magicseg='TEXT32' len=40
  "__ZN14OpenJade_DSSSL14SaveFOTBuilderC2ERKN14OpenJade_Grove7NodePtrERKN6OpenSP6StringIjEE"                              ; magicseg='TEXT32' len=88
  "__ZN14OpenJade_DSSSL14SaveFOTBuilderC1ERKN14OpenJade_Grove7NodePtrERKN6OpenSP6StringIjEE"                              ; magicseg='TEXT32' len=88
  "__ZN14OpenJade_DSSSL14SaveFOTBuilderD2Ev"                            ; magicseg='TEXT32' len=40
  "__ZN14OpenJade_DSSSL14SaveFOTBuilderD1Ev"                            ; magicseg='TEXT32' len=40
  "__ZThn8_N14OpenJade_DSSSL14SaveFOTBuilderD1Ev"                       ; magicseg='TEXT32' len=45
  "__ZN14OpenJade_DSSSL14SaveFOTBuilderD0Ev"                            ; magicseg='TEXT32' len=40
  "__ZThn8_N14OpenJade_DSSSL14SaveFOTBuilderD0Ev"                       ; magicseg='TEXT32' len=45
  "__ZN14OpenJade_DSSSL14SaveFOTBuilder16asSaveFOTBuilderEv"            ; magicseg='TEXT32' len=56
  "__ZThn8_N14OpenJade_DSSSL14SaveFOTBuilder16asSaveFOTBuilderEv"       ; magicseg='TEXT32' len=61
  "__ZN14OpenJade_DSSSL14SaveFOTBuilder4emitERNS_10FOTBuilderE"         ; magicseg='TEXT32' len=59
  "__ZN14OpenJade_DSSSL14SaveFOTBuilder13startSequenceEv"               ; magicseg='TEXT32' len=53
  "__ZThn8_N14OpenJade_DSSSL14SaveFOTBuilder13startSequenceEv"          ; magicseg='TEXT32' len=58
  "__ZN14OpenJade_DSSSL14SaveFOTBuilder11endSequenceEv"                 ; magicseg='TEXT32' len=51
  "__ZThn8_N14OpenJade_DSSSL14SaveFOTBuilder11endSequenceEv"            ; magicseg='TEXT32' len=56
  "__ZN14OpenJade_DSSSL14SaveFOTBuilder12endLineFieldEv"                ; magicseg='TEXT32' len=52
  "__ZThn8_N14OpenJade_DSSSL14SaveFOTBuilder12endLineFieldEv"           ; magicseg='TEXT32' len=57
  "__ZN14OpenJade_DSSSL14SaveFOTBuilder12endParagraphEv"                ; magicseg='TEXT32' len=52
  "__ZThn8_N14OpenJade_DSSSL14SaveFOTBuilder12endParagraphEv"           ; magicseg='TEXT32' len=57
  "__ZN14OpenJade_DSSSL14SaveFOTBuilder15endDisplayGroupEv"             ; magicseg='TEXT32' len=55
  "__ZThn8_N14OpenJade_DSSSL14SaveFOTBuilder15endDisplayGroupEv"        ; magicseg='TEXT32' len=60
  "__ZN14OpenJade_DSSSL14SaveFOTBuilder14alignmentPointEv"              ; magicseg='TEXT32' len=54
  "__ZThn8_N14OpenJade_DSSSL14SaveFOTBuilder14alignmentPointEv"         ; magicseg='TEXT32' len=59
  "__ZN14OpenJade_DSSSL14SaveFOTBuilder11startScrollEv"                 ; magicseg='TEXT32' len=51
  "__ZThn8_N14OpenJade_DSSSL14SaveFOTBuilder11startScrollEv"            ; magicseg='TEXT32' len=56
  "__ZN14OpenJade_DSSSL14SaveFOTBuilder9endScrollEv"                    ; magicseg='TEXT32' len=48
  "__ZThn8_N14OpenJade_DSSSL14SaveFOTBuilder9endScrollEv"               ; magicseg='TEXT32' len=53
  "__ZN14OpenJade_DSSSL14SaveFOTBuilder9endLeaderEv"                    ; magicseg='TEXT32' len=48
  "__ZThn8_N14OpenJade_DSSSL14SaveFOTBuilder9endLeaderEv"               ; magicseg='TEXT32' len=53
  "__ZN14OpenJade_DSSSL14SaveFOTBuilder7endLinkEv"                      ; magicseg='TEXT32' len=46
  "__ZThn8_N14OpenJade_DSSSL14SaveFOTBuilder7endLinkEv"                 ; magicseg='TEXT32' len=51
  "__ZN14OpenJade_DSSSL14SaveFOTBuilder15startMarginaliaEv"             ; magicseg='TEXT32' len=55
  "__ZThn8_N14OpenJade_DSSSL14SaveFOTBuilder15startMarginaliaEv"        ; magicseg='TEXT32' len=60
  "__ZN14OpenJade_DSSSL14SaveFOTBuilder13endMarginaliaEv"               ; magicseg='TEXT32' len=53
  "__ZThn8_N14OpenJade_DSSSL14SaveFOTBuilder13endMarginaliaEv"          ; magicseg='TEXT32' len=58
  "__ZN14OpenJade_DSSSL14SaveFOTBuilder12endMultiModeEv"                ; magicseg='TEXT32' len=52
  "__ZThn8_N14OpenJade_DSSSL14SaveFOTBuilder12endMultiModeEv"           ; magicseg='TEXT32' len=57
  "__ZN14OpenJade_DSSSL14SaveFOTBuilder8endScoreEv"                     ; magicseg='TEXT32' len=47
  "__ZThn8_N14OpenJade_DSSSL14SaveFOTBuilder8endScoreEv"                ; magicseg='TEXT32' len=52
  "__ZN14OpenJade_DSSSL14SaveFOTBuilder6endBoxEv"                       ; magicseg='TEXT32' len=45
  "__ZThn8_N14OpenJade_DSSSL14SaveFOTBuilder6endBoxEv"                  ; magicseg='TEXT32' len=50
  "__ZN14OpenJade_DSSSL14SaveFOTBuilder13startSidelineEv"               ; magicseg='TEXT32' len=53
  "__ZThn8_N14OpenJade_DSSSL14SaveFOTBuilder13startSidelineEv"          ; magicseg='TEXT32' len=58
  "__ZN14OpenJade_DSSSL14SaveFOTBuilder11endSidelineEv"                 ; magicseg='TEXT32' len=51
  "__ZThn8_N14OpenJade_DSSSL14SaveFOTBuilder11endSidelineEv"            ; magicseg='TEXT32' len=56
  "__ZN14OpenJade_DSSSL14SaveFOTBuilder7endNodeEv"                      ; magicseg='TEXT32' len=46
  "__ZThn8_N14OpenJade_DSSSL14SaveFOTBuilder7endNodeEv"                 ; magicseg='TEXT32' len=51
  "__ZN14OpenJade_DSSSL14SaveFOTBuilder33endSimplePageSequenceHeaderFooterEv"               ; magicseg='TEXT32' len=73
  "__ZThn8_N14OpenJade_DSSSL14SaveFOTBuilder33endSimplePageSequenceHeaderFooterEv"          ; magicseg='TEXT32' len=78
  "__ZN14OpenJade_DSSSL14SaveFOTBuilder21endSimplePageSequenceEv"       ; magicseg='TEXT32' len=61
  "__ZThn8_N14OpenJade_DSSSL14SaveFOTBuilder21endSimplePageSequenceEv"                      ; magicseg='TEXT32' len=66
  "__ZN14OpenJade_DSSSL14SaveFOTBuilder20endColumnSetSequenceEv"        ; magicseg='TEXT32' len=60
  "__ZThn8_N14OpenJade_DSSSL14SaveFOTBuilder20endColumnSetSequenceEv"                       ; magicseg='TEXT32' len=65
  "__ZN14OpenJade_DSSSL14SaveFOTBuilder17startPageSequenceEv"           ; magicseg='TEXT32' len=57
  "__ZThn8_N14OpenJade_DSSSL14SaveFOTBuilder17startPageSequenceEv"      ; magicseg='TEXT32' len=62
  "__ZN14OpenJade_DSSSL14SaveFOTBuilder15endPageSequenceEv"             ; magicseg='TEXT32' len=55
  "__ZThn8_N14OpenJade_DSSSL14SaveFOTBuilder15endPageSequenceEv"        ; magicseg='TEXT32' len=60
  "__ZN14OpenJade_DSSSL14SaveFOTBuilder15endEmbeddedTextEv"             ; magicseg='TEXT32' len=55
  "__ZThn8_N14OpenJade_DSSSL14SaveFOTBuilder15endEmbeddedTextEv"        ; magicseg='TEXT32' len=60
  "__ZN14OpenJade_DSSSL14SaveFOTBuilder24endIncludedContainerAreaEv"    ; magicseg='TEXT32' len=64
  "__ZThn8_N14OpenJade_DSSSL14SaveFOTBuilder24endIncludedContainerAreaEv"                   ; magicseg='TEXT32' len=69
  "__ZN14OpenJade_DSSSL14SaveFOTBuilder16endAlignedColumnEv"            ; magicseg='TEXT32' len=56
  "__ZThn8_N14OpenJade_DSSSL14SaveFOTBuilder16endAlignedColumnEv"       ; magicseg='TEXT32' len=61
  "__ZN14OpenJade_DSSSL14SaveFOTBuilder22endMultiLineInlineNoteEv"      ; magicseg='TEXT32' len=62
  "__ZThn8_N14OpenJade_DSSSL14SaveFOTBuilder22endMultiLineInlineNoteEv"                     ; magicseg='TEXT32' len=67
  "__ZN14OpenJade_DSSSL14SaveFOTBuilder31endMultiLineInlineNoteOpenCloseEv"                 ; magicseg='TEXT32' len=71
  "__ZThn8_N14OpenJade_DSSSL14SaveFOTBuilder31endMultiLineInlineNoteOpenCloseEv"            ; magicseg='TEXT32' len=76
  "__ZN14OpenJade_DSSSL14SaveFOTBuilder18endEmphasizingMarkEv"          ; magicseg='TEXT32' len=58
  "__ZThn8_N14OpenJade_DSSSL14SaveFOTBuilder18endEmphasizingMarkEv"     ; magicseg='TEXT32' len=63
  "__ZN14OpenJade_DSSSL14SaveFOTBuilder20endEmphasizingMarkEMEv"        ; magicseg='TEXT32' len=60
  "__ZThn8_N14OpenJade_DSSSL14SaveFOTBuilder20endEmphasizingMarkEMEv"                       ; magicseg='TEXT32' len=65
  "__ZN14OpenJade_DSSSL14SaveFOTBuilder18endGlyphAnnotationEv"          ; magicseg='TEXT32' len=58
  "__ZThn8_N14OpenJade_DSSSL14SaveFOTBuilder18endGlyphAnnotationEv"     ; magicseg='TEXT32' len=63
  "__ZN14OpenJade_DSSSL14SaveFOTBuilder13endSideBySideEv"               ; magicseg='TEXT32' len=53
  "__ZThn8_N14OpenJade_DSSSL14SaveFOTBuilder13endSideBySideEv"          ; magicseg='TEXT32' len=58
  "__ZN14OpenJade_DSSSL14SaveFOTBuilder19startSideBySideItemEv"         ; magicseg='TEXT32' len=59
  "__ZThn8_N14OpenJade_DSSSL14SaveFOTBuilder19startSideBySideItemEv"    ; magicseg='TEXT32' len=64
  "__ZN14OpenJade_DSSSL14SaveFOTBuilder17endSideBySideItemEv"           ; magicseg='TEXT32' len=57
  "__ZThn8_N14OpenJade_DSSSL14SaveFOTBuilder17endSideBySideItemEv"      ; magicseg='TEXT32' len=62
  "__ZN14OpenJade_DSSSL14SaveFOTBuilder10pageNumberEv"                  ; magicseg='TEXT32' len=50
  "__ZThn8_N14OpenJade_DSSSL14SaveFOTBuilder10pageNumberEv"             ; magicseg='TEXT32' len=55
  "__ZN14OpenJade_DSSSL14SaveFOTBuilder8endTableEv"                     ; magicseg='TEXT32' len=47
  "__ZThn8_N14OpenJade_DSSSL14SaveFOTBuilder8endTableEv"                ; magicseg='TEXT32' len=52
  "__ZN14OpenJade_DSSSL14SaveFOTBuilder20tableBeforeRowBorderEv"        ; magicseg='TEXT32' len=60
  "__ZThn8_N14OpenJade_DSSSL14SaveFOTBuilder20tableBeforeRowBorderEv"                       ; magicseg='TEXT32' len=65
  "__ZN14OpenJade_DSSSL14SaveFOTBuilder19tableAfterRowBorderEv"         ; magicseg='TEXT32' len=59
  "__ZThn8_N14OpenJade_DSSSL14SaveFOTBuilder19tableAfterRowBorderEv"    ; magicseg='TEXT32' len=64
  "__ZN14OpenJade_DSSSL14SaveFOTBuilder23tableBeforeColumnBorderEv"     ; magicseg='TEXT32' len=63
  "__ZThn8_N14OpenJade_DSSSL14SaveFOTBuilder23tableBeforeColumnBorderEv"                    ; magicseg='TEXT32' len=68
  "__ZN14OpenJade_DSSSL14SaveFOTBuilder22tableAfterColumnBorderEv"      ; magicseg='TEXT32' len=62
  "__ZThn8_N14OpenJade_DSSSL14SaveFOTBuilder22tableAfterColumnBorderEv"                     ; magicseg='TEXT32' len=67
  "__ZN14OpenJade_DSSSL14SaveFOTBuilder12endTablePartEv"                ; magicseg='TEXT32' len=52
  "__ZThn8_N14OpenJade_DSSSL14SaveFOTBuilder12endTablePartEv"           ; magicseg='TEXT32' len=57
  "__ZN14OpenJade_DSSSL14SaveFOTBuilder13startTableRowEv"               ; magicseg='TEXT32' len=53
  "__ZThn8_N14OpenJade_DSSSL14SaveFOTBuilder13startTableRowEv"          ; magicseg='TEXT32' len=58
  "__ZN14OpenJade_DSSSL14SaveFOTBuilder11endTableRowEv"                 ; magicseg='TEXT32' len=51
  "__ZThn8_N14OpenJade_DSSSL14SaveFOTBuilder11endTableRowEv"            ; magicseg='TEXT32' len=56
  "__ZN14OpenJade_DSSSL14SaveFOTBuilder12endTableCellEv"                ; magicseg='TEXT32' len=52
  "__ZThn8_N14OpenJade_DSSSL14SaveFOTBuilder12endTableCellEv"           ; magicseg='TEXT32' len=57
  "__ZN14OpenJade_DSSSL14SaveFOTBuilder24tableCellBeforeRowBorderEv"    ; magicseg='TEXT32' len=64
  "__ZThn8_N14OpenJade_DSSSL14SaveFOTBuilder24tableCellBeforeRowBorderEv"                   ; magicseg='TEXT32' len=69
  "__ZN14OpenJade_DSSSL14SaveFOTBuilder23tableCellAfterRowBorderEv"     ; magicseg='TEXT32' len=63
  "__ZThn8_N14OpenJade_DSSSL14SaveFOTBuilder23tableCellAfterRowBorderEv"                    ; magicseg='TEXT32' len=68
  "__ZN14OpenJade_DSSSL14SaveFOTBuilder27tableCellBeforeColumnBorderEv"                     ; magicseg='TEXT32' len=67
  "__ZThn8_N14OpenJade_DSSSL14SaveFOTBuilder27tableCellBeforeColumnBorderEv"                ; magicseg='TEXT32' len=72
  "__ZN14OpenJade_DSSSL14SaveFOTBuilder26tableCellAfterColumnBorderEv"                      ; magicseg='TEXT32' len=66
  "__ZThn8_N14OpenJade_DSSSL14SaveFOTBuilder26tableCellAfterColumnBorderEv"                 ; magicseg='TEXT32' len=71
  "__ZN14OpenJade_DSSSL14SaveFOTBuilder17startMathSequenceEv"           ; magicseg='TEXT32' len=57
  "__ZThn8_N14OpenJade_DSSSL14SaveFOTBuilder17startMathSequenceEv"      ; magicseg='TEXT32' len=62
  "__ZN14OpenJade_DSSSL14SaveFOTBuilder15endMathSequenceEv"             ; magicseg='TEXT32' len=55
  "__ZThn8_N14OpenJade_DSSSL14SaveFOTBuilder15endMathSequenceEv"        ; magicseg='TEXT32' len=60
  "__ZN14OpenJade_DSSSL14SaveFOTBuilder11endFractionEv"                 ; magicseg='TEXT32' len=51
  "__ZThn8_N14OpenJade_DSSSL14SaveFOTBuilder11endFractionEv"            ; magicseg='TEXT32' len=56
  "__ZN14OpenJade_DSSSL14SaveFOTBuilder11fractionBarEv"                 ; magicseg='TEXT32' len=51
  "__ZThn8_N14OpenJade_DSSSL14SaveFOTBuilder11fractionBarEv"            ; magicseg='TEXT32' len=56
  "__ZN14OpenJade_DSSSL14SaveFOTBuilder11startUnmathEv"                 ; magicseg='TEXT32' len=51
  "__ZThn8_N14OpenJade_DSSSL14SaveFOTBuilder11startUnmathEv"            ; magicseg='TEXT32' len=56
  "__ZN14OpenJade_DSSSL14SaveFOTBuilder9endUnmathEv"                    ; magicseg='TEXT32' len=48
  "__ZThn8_N14OpenJade_DSSSL14SaveFOTBuilder9endUnmathEv"               ; magicseg='TEXT32' len=53
  "__ZN14OpenJade_DSSSL14SaveFOTBuilder16startSuperscriptEv"            ; magicseg='TEXT32' len=56
  "__ZThn8_N14OpenJade_DSSSL14SaveFOTBuilder16startSuperscriptEv"       ; magicseg='TEXT32' len=61
  "__ZN14OpenJade_DSSSL14SaveFOTBuilder14endSuperscriptEv"              ; magicseg='TEXT32' len=54
  "__ZThn8_N14OpenJade_DSSSL14SaveFOTBuilder14endSuperscriptEv"         ; magicseg='TEXT32' len=59
  "__ZN14OpenJade_DSSSL14SaveFOTBuilder14startSubscriptEv"              ; magicseg='TEXT32' len=54
  "__ZThn8_N14OpenJade_DSSSL14SaveFOTBuilder14startSubscriptEv"         ; magicseg='TEXT32' len=59
  "__ZN14OpenJade_DSSSL14SaveFOTBuilder12endSubscriptEv"                ; magicseg='TEXT32' len=52
  "__ZThn8_N14OpenJade_DSSSL14SaveFOTBuilder12endSubscriptEv"           ; magicseg='TEXT32' len=57
  "__ZN14OpenJade_DSSSL14SaveFOTBuilder9endScriptEv"                    ; magicseg='TEXT32' len=48
  "__ZThn8_N14OpenJade_DSSSL14SaveFOTBuilder9endScriptEv"               ; magicseg='TEXT32' len=53
  "__ZN14OpenJade_DSSSL14SaveFOTBuilder7endMarkEv"                      ; magicseg='TEXT32' len=46
  "__ZThn8_N14OpenJade_DSSSL14SaveFOTBuilder7endMarkEv"                 ; magicseg='TEXT32' len=51
  "__ZN14OpenJade_DSSSL14SaveFOTBuilder8endFenceEv"                     ; magicseg='TEXT32' len=47
  "__ZThn8_N14OpenJade_DSSSL14SaveFOTBuilder8endFenceEv"                ; magicseg='TEXT32' len=52
  "__ZN14OpenJade_DSSSL14SaveFOTBuilder10endRadicalEv"                  ; magicseg='TEXT32' len=50
  "__ZThn8_N14OpenJade_DSSSL14SaveFOTBuilder10endRadicalEv"             ; magicseg='TEXT32' len=55
  "__ZN14OpenJade_DSSSL14SaveFOTBuilder23radicalRadicalDefaultedEv"     ; magicseg='TEXT32' len=63
  "__ZThn8_N14OpenJade_DSSSL14SaveFOTBuilder23radicalRadicalDefaultedEv"                    ; magicseg='TEXT32' len=68
  "__ZN14OpenJade_DSSSL14SaveFOTBuilder15endMathOperatorEv"             ; magicseg='TEXT32' len=55
  "__ZThn8_N14OpenJade_DSSSL14SaveFOTBuilder15endMathOperatorEv"        ; magicseg='TEXT32' len=60
  "__ZN14OpenJade_DSSSL14SaveFOTBuilder7endGridEv"                      ; magicseg='TEXT32' len=46
  "__ZThn8_N14OpenJade_DSSSL14SaveFOTBuilder7endGridEv"                 ; magicseg='TEXT32' len=51
  "__ZN14OpenJade_DSSSL14SaveFOTBuilder11endGridCellEv"                 ; magicseg='TEXT32' len=51
  "__ZThn8_N14OpenJade_DSSSL14SaveFOTBuilder11endGridCellEv"            ; magicseg='TEXT32' len=56
  "__ZN14OpenJade_DSSSL14SaveFOTBuilder14setStartIndentERKNS_10FOTBuilder10LengthSpecE"     ; magicseg='TEXT32' len=83
  "__ZThn8_N14OpenJade_DSSSL14SaveFOTBuilder14setStartIndentERKNS_10FOTBuilder10LengthSpecE"                              ; magicseg='TEXT32' len=88
  "__ZN14OpenJade_DSSSL14SaveFOTBuilder12setEndIndentERKNS_10FOTBuilder10LengthSpecE"       ; magicseg='TEXT32' len=81
  "__ZThn8_N14OpenJade_DSSSL14SaveFOTBuilder12setEndIndentERKNS_10FOTBuilder10LengthSpecE"                                ; magicseg='TEXT32' len=86
  "__ZN14OpenJade_DSSSL14SaveFOTBuilder23setFirstLineStartIndentERKNS_10FOTBuilder10LengthSpecE"                          ; magicseg='TEXT32' len=92
  "__ZThn8_N14OpenJade_DSSSL14SaveFOTBuilder23setFirstLineStartIndentERKNS_10FOTBuilder10LengthSpecE"                     ; magicseg='TEXT32' len=97
  "__ZN14OpenJade_DSSSL14SaveFOTBuilder20setLastLineEndIndentERKNS_10FOTBuilder10LengthSpecE"                             ; magicseg='TEXT32' len=89
  "__ZThn8_N14OpenJade_DSSSL14SaveFOTBuilder20setLastLineEndIndentERKNS_10FOTBuilder10LengthSpecE"                        ; magicseg='TEXT32' len=94
  "__ZN14OpenJade_DSSSL14SaveFOTBuilder14setLineSpacingERKNS_10FOTBuilder10LengthSpecE"     ; magicseg='TEXT32' len=83
  "__ZThn8_N14OpenJade_DSSSL14SaveFOTBuilder14setLineSpacingERKNS_10FOTBuilder10LengthSpecE"                              ; magicseg='TEXT32' len=88
  "__ZN14OpenJade_DSSSL14SaveFOTBuilder13setFieldWidthERKNS_10FOTBuilder10LengthSpecE"      ; magicseg='TEXT32' len=82
  "__ZThn8_N14OpenJade_DSSSL14SaveFOTBuilder13setFieldWidthERKNS_10FOTBuilder10LengthSpecE"                               ; magicseg='TEXT32' len=87
  "__ZN14OpenJade_DSSSL14SaveFOTBuilder21setPositionPointShiftERKNS_10FOTBuilder10LengthSpecE"                            ; magicseg='TEXT32' len=90
  "__ZThn8_N14OpenJade_DSSSL14SaveFOTBuilder21setPositionPointShiftERKNS_10FOTBuilder10LengthSpecE"                       ; magicseg='TEXT32' len=95
  "__ZN14OpenJade_DSSSL14SaveFOTBuilder14setStartMarginERKNS_10FOTBuilder10LengthSpecE"     ; magicseg='TEXT32' len=83
  "__ZThn8_N14OpenJade_DSSSL14SaveFOTBuilder14setStartMarginERKNS_10FOTBuilder10LengthSpecE"                              ; magicseg='TEXT32' len=88
  "__ZN14OpenJade_DSSSL14SaveFOTBuilder12setEndMarginERKNS_10FOTBuilder10LengthSpecE"       ; magicseg='TEXT32' len=81
  "__ZThn8_N14OpenJade_DSSSL14SaveFOTBuilder12setEndMarginERKNS_10FOTBuilder10LengthSpecE"                                ; magicseg='TEXT32' len=86
  "__ZN14OpenJade_DSSSL14SaveFOTBuilder14setSidelineSepERKNS_10FOTBuilder10LengthSpecE"     ; magicseg='TEXT32' len=83
  "__ZThn8_N14OpenJade_DSSSL14SaveFOTBuilder14setSidelineSepERKNS_10FOTBuilder10LengthSpecE"                              ; magicseg='TEXT32' len=88
  "__ZN14OpenJade_DSSSL14SaveFOTBuilder17setAsisWrapIndentERKNS_10FOTBuilder10LengthSpecE"                                ; magicseg='TEXT32' len=86
  "__ZThn8_N14OpenJade_DSSSL14SaveFOTBuilder17setAsisWrapIndentERKNS_10FOTBuilder10LengthSpecE"                           ; magicseg='TEXT32' len=91
  "__ZN14OpenJade_DSSSL14SaveFOTBuilder16setLineNumberSepERKNS_10FOTBuilder10LengthSpecE"                                 ; magicseg='TEXT32' len=85
  "__ZThn8_N14OpenJade_DSSSL14SaveFOTBuilder16setLineNumberSepERKNS_10FOTBuilder10LengthSpecE"                            ; magicseg='TEXT32' len=90
  "__ZN14OpenJade_DSSSL14SaveFOTBuilder23setLastLineJustifyLimitERKNS_10FOTBuilder10LengthSpecE"                          ; magicseg='TEXT32' len=92
  "__ZThn8_N14OpenJade_DSSSL14SaveFOTBuilder23setLastLineJustifyLimitERKNS_10FOTBuilder10LengthSpecE"                     ; magicseg='TEXT32' len=97
  "__ZN14OpenJade_DSSSL14SaveFOTBuilder26setJustifyGlyphSpaceMaxAddERKNS_10FOTBuilder10LengthSpecE"                       ; magicseg='TEXT32' len=95
  "__ZThn8_N14OpenJade_DSSSL14SaveFOTBuilder26setJustifyGlyphSpaceMaxAddERKNS_10FOTBuilder10LengthSpecE"                  ; magicseg='TEXT32' len=100
  "__ZN14OpenJade_DSSSL14SaveFOTBuilder29setJustifyGlyphSpaceMaxRemoveERKNS_10FOTBuilder10LengthSpecE"                    ; magicseg='TEXT32' len=98
  "__ZThn8_N14OpenJade_DSSSL14SaveFOTBuilder29setJustifyGlyphSpaceMaxRemoveERKNS_10FOTBuilder10LengthSpecE"               ; magicseg='TEXT32' len=103
  "__ZN14OpenJade_DSSSL14SaveFOTBuilder20setTableCornerRadiusERKNS_10FOTBuilder10LengthSpecE"                             ; magicseg='TEXT32' len=89
  "__ZThn8_N14OpenJade_DSSSL14SaveFOTBuilder20setTableCornerRadiusERKNS_10FOTBuilder10LengthSpecE"                        ; magicseg='TEXT32' len=94
  "__ZN14OpenJade_DSSSL14SaveFOTBuilder18setBoxCornerRadiusERKNS_10FOTBuilder10LengthSpecE"                               ; magicseg='TEXT32' len=87
  "__ZThn8_N14OpenJade_DSSSL14SaveFOTBuilder18setBoxCornerRadiusERKNS_10FOTBuilder10LengthSpecE"                          ; magicseg='TEXT32' len=92
  "__ZN14OpenJade_DSSSL14SaveFOTBuilder16setMarginaliaSepERKNS_10FOTBuilder10LengthSpecE"                                 ; magicseg='TEXT32' len=85
  "__ZThn8_N14OpenJade_DSSSL14SaveFOTBuilder16setMarginaliaSepERKNS_10FOTBuilder10LengthSpecE"                            ; magicseg='TEXT32' len=90
  "__ZN14OpenJade_DSSSL14SaveFOTBuilder20setMinPreLineSpacingERKNS_10FOTBuilder13OptLengthSpecE"                          ; magicseg='TEXT32' len=92
  "__ZThn8_N14OpenJade_DSSSL14SaveFOTBuilder20setMinPreLineSpacingERKNS_10FOTBuilder13OptLengthSpecE"                     ; magicseg='TEXT32' len=97
  "__ZN14OpenJade_DSSSL14SaveFOTBuilder21setMinPostLineSpacingERKNS_10FOTBuilder13OptLengthSpecE"                         ; magicseg='TEXT32' len=93
  "__ZThn8_N14OpenJade_DSSSL14SaveFOTBuilder21setMinPostLineSpacingERKNS_10FOTBuilder13OptLengthSpecE"                    ; magicseg='TEXT32' len=98
  "__ZN14OpenJade_DSSSL14SaveFOTBuilder13setMinLeadingERKNS_10FOTBuilder13OptLengthSpecE"                                 ; magicseg='TEXT32' len=85
  "__ZThn8_N14OpenJade_DSSSL14SaveFOTBuilder13setMinLeadingERKNS_10FOTBuilder13OptLengthSpecE"                            ; magicseg='TEXT32' len=90
  "__ZN14OpenJade_DSSSL14SaveFOTBuilder11setFontSizeEl"                 ; magicseg='TEXT32' len=51
  "__ZThn8_N14OpenJade_DSSSL14SaveFOTBuilder11setFontSizeEl"            ; magicseg='TEXT32' len=56
  "__ZN14OpenJade_DSSSL14SaveFOTBuilder12setPageWidthEl"                ; magicseg='TEXT32' len=52
  "__ZThn8_N14OpenJade_DSSSL14SaveFOTBuilder12setPageWidthEl"           ; magicseg='TEXT32' len=57
  "__ZN14OpenJade_DSSSL14SaveFOTBuilder13setPageHeightEl"               ; magicseg='TEXT32' len=53
  "__ZThn8_N14OpenJade_DSSSL14SaveFOTBuilder13setPageHeightEl"          ; magicseg='TEXT32' len=58
  "__ZN14OpenJade_DSSSL14SaveFOTBuilder13setLeftMarginEl"               ; magicseg='TEXT32' len=53
  "__ZThn8_N14OpenJade_DSSSL14SaveFOTBuilder13setLeftMarginEl"          ; magicseg='TEXT32' len=58
  "__ZN14OpenJade_DSSSL14SaveFOTBuilder14setRightMarginEl"              ; magicseg='TEXT32' len=54
  "__ZThn8_N14OpenJade_DSSSL14SaveFOTBuilder14setRightMarginEl"         ; magicseg='TEXT32' len=59
  "__ZN14OpenJade_DSSSL14SaveFOTBuilder12setTopMarginEl"                ; magicseg='TEXT32' len=52
  "__ZThn8_N14OpenJade_DSSSL14SaveFOTBuilder12setTopMarginEl"           ; magicseg='TEXT32' len=57
  "__ZN14OpenJade_DSSSL14SaveFOTBuilder15setBottomMarginEl"             ; magicseg='TEXT32' len=55
  "__ZThn8_N14OpenJade_DSSSL14SaveFOTBuilder15setBottomMarginEl"        ; magicseg='TEXT32' len=60
  "__ZN14OpenJade_DSSSL14SaveFOTBuilder15setHeaderMarginEl"             ; magicseg='TEXT32' len=55
  "__ZThn8_N14OpenJade_DSSSL14SaveFOTBuilder15setHeaderMarginEl"        ; magicseg='TEXT32' len=60
  "__ZN14OpenJade_DSSSL14SaveFOTBuilder15setFooterMarginEl"             ; magicseg='TEXT32' len=55
  "__ZThn8_N14OpenJade_DSSSL14SaveFOTBuilder15setFooterMarginEl"        ; magicseg='TEXT32' len=60
  "__ZN14OpenJade_DSSSL14SaveFOTBuilder16setLineThicknessEl"            ; magicseg='TEXT32' len=56
  "__ZThn8_N14OpenJade_DSSSL14SaveFOTBuilder16setLineThicknessEl"       ; magicseg='TEXT32' len=61
  "__ZN14OpenJade_DSSSL14SaveFOTBuilder22setCellBeforeRowMarginEl"      ; magicseg='TEXT32' len=62
  "__ZThn8_N14OpenJade_DSSSL14SaveFOTBuilder22setCellBeforeRowMarginEl"                     ; magicseg='TEXT32' len=67
  "__ZN14OpenJade_DSSSL14SaveFOTBuilder21setCellAfterRowMarginEl"       ; magicseg='TEXT32' len=61
  "__ZThn8_N14OpenJade_DSSSL14SaveFOTBuilder21setCellAfterRowMarginEl"                      ; magicseg='TEXT32' len=66
  "__ZN14OpenJade_DSSSL14SaveFOTBuilder25setCellBeforeColumnMarginEl"                       ; magicseg='TEXT32' len=65
  "__ZThn8_N14OpenJade_DSSSL14SaveFOTBuilder25setCellBeforeColumnMarginEl"                  ; magicseg='TEXT32' len=70
  "__ZN14OpenJade_DSSSL14SaveFOTBuilder24setCellAfterColumnMarginEl"    ; magicseg='TEXT32' len=64
  "__ZThn8_N14OpenJade_DSSSL14SaveFOTBuilder24setCellAfterColumnMarginEl"                   ; magicseg='TEXT32' len=69
  "__ZN14OpenJade_DSSSL14SaveFOTBuilder10setLineSepEl"                  ; magicseg='TEXT32' len=50
  "__ZThn8_N14OpenJade_DSSSL14SaveFOTBuilder10setLineSepEl"             ; magicseg='TEXT32' len=55
  "__ZN14OpenJade_DSSSL14SaveFOTBuilder16setBoxSizeBeforeEl"            ; magicseg='TEXT32' len=56
  "__ZThn8_N14OpenJade_DSSSL14SaveFOTBuilder16setBoxSizeBeforeEl"       ; magicseg='TEXT32' len=61
  "__ZN14OpenJade_DSSSL14SaveFOTBuilder15setBoxSizeAfterEl"             ; magicseg='TEXT32' len=55
  "__ZThn8_N14OpenJade_DSSSL14SaveFOTBuilder15setBoxSizeAfterEl"        ; magicseg='TEXT32' len=60
  "__ZN14OpenJade_DSSSL14SaveFOTBuilder8setLayerEl"                     ; magicseg='TEXT32' len=47
  "__ZThn8_N14OpenJade_DSSSL14SaveFOTBuilder8setLayerEl"                ; magicseg='TEXT32' len=52
  "__ZN14OpenJade_DSSSL14SaveFOTBuilder18setBackgroundLayerEl"          ; magicseg='TEXT32' len=58
  "__ZThn8_N14OpenJade_DSSSL14SaveFOTBuilder18setBackgroundLayerEl"     ; magicseg='TEXT32' len=63
  "__ZN14OpenJade_DSSSL14SaveFOTBuilder17setBorderPriorityEl"           ; magicseg='TEXT32' len=57
  "__ZThn8_N14OpenJade_DSSSL14SaveFOTBuilder17setBorderPriorityEl"      ; magicseg='TEXT32' len=62
  "__ZN14OpenJade_DSSSL14SaveFOTBuilder13setLineRepeatEl"               ; magicseg='TEXT32' len=53
  "__ZThn8_N14OpenJade_DSSSL14SaveFOTBuilder13setLineRepeatEl"          ; magicseg='TEXT32' len=58
  "__ZN14OpenJade_DSSSL14SaveFOTBuilder7setSpanEl"                      ; magicseg='TEXT32' len=46
  "__ZThn8_N14OpenJade_DSSSL14SaveFOTBuilder7setSpanEl"                 ; magicseg='TEXT32' len=51
  "__ZN14OpenJade_DSSSL14SaveFOTBuilder18setMinLeaderRepeatEl"          ; magicseg='TEXT32' len=58
  "__ZThn8_N14OpenJade_DSSSL14SaveFOTBuilder18setMinLeaderRepeatEl"     ; magicseg='TEXT32' len=63
  "__ZN14OpenJade_DSSSL14SaveFOTBuilder29setHyphenationRemainCharCountEl"                   ; magicseg='TEXT32' len=69
  "__ZThn8_N14OpenJade_DSSSL14SaveFOTBuilder29setHyphenationRemainCharCountEl"              ; magicseg='TEXT32' len=74
  "__ZN14OpenJade_DSSSL14SaveFOTBuilder27setHyphenationPushCharCountEl"                     ; magicseg='TEXT32' len=67
  "__ZThn8_N14OpenJade_DSSSL14SaveFOTBuilder27setHyphenationPushCharCountEl"                ; magicseg='TEXT32' len=72
  "__ZN14OpenJade_DSSSL14SaveFOTBuilder13setWidowCountEl"               ; magicseg='TEXT32' len=53
  "__ZThn8_N14OpenJade_DSSSL14SaveFOTBuilder13setWidowCountEl"          ; magicseg='TEXT32' len=58
  "__ZN14OpenJade_DSSSL14SaveFOTBuilder14setOrphanCountEl"              ; magicseg='TEXT32' len=54
  "__ZThn8_N14OpenJade_DSSSL14SaveFOTBuilder14setOrphanCountEl"         ; magicseg='TEXT32' len=59
  "__ZN14OpenJade_DSSSL14SaveFOTBuilder13setExpandTabsEl"               ; magicseg='TEXT32' len=53
  "__ZThn8_N14OpenJade_DSSSL14SaveFOTBuilder13setExpandTabsEl"          ; magicseg='TEXT32' len=58
  "__ZN14OpenJade_DSSSL14SaveFOTBuilder25setHyphenationLadderCountEl"                       ; magicseg='TEXT32' len=65
  "__ZThn8_N14OpenJade_DSSSL14SaveFOTBuilder25setHyphenationLadderCountEl"                  ; magicseg='TEXT32' len=70
  "__ZN14OpenJade_DSSSL14SaveFOTBuilder22setInlineNoteLineCountEl"      ; magicseg='TEXT32' len=62
  "__ZThn8_N14OpenJade_DSSSL14SaveFOTBuilder22setInlineNoteLineCountEl"                     ; magicseg='TEXT32' len=67
  "__ZN14OpenJade_DSSSL14SaveFOTBuilder16setBorderPresentEb"            ; magicseg='TEXT32' len=56
  "__ZThn8_N14OpenJade_DSSSL14SaveFOTBuilder16setBorderPresentEb"       ; magicseg='TEXT32' len=61
  "__ZN14OpenJade_DSSSL14SaveFOTBuilder20setInhibitLineBreaksEb"        ; magicseg='TEXT32' len=60
  "__ZThn8_N14OpenJade_DSSSL14SaveFOTBuilder20setInhibitLineBreaksEb"                       ; magicseg='TEXT32' len=65
  "__ZN14OpenJade_DSSSL14SaveFOTBuilder12setHyphenateEb"                ; magicseg='TEXT32' len=52
  "__ZThn8_N14OpenJade_DSSSL14SaveFOTBuilder12setHyphenateEb"           ; magicseg='TEXT32' len=57
  "__ZN14OpenJade_DSSSL14SaveFOTBuilder7setKernEb"                      ; magicseg='TEXT32' len=46
  "__ZThn8_N14OpenJade_DSSSL14SaveFOTBuilder7setKernEb"                 ; magicseg='TEXT32' len=51
  "__ZN14OpenJade_DSSSL14SaveFOTBuilder11setLigatureEb"                 ; magicseg='TEXT32' len=51
  "__ZThn8_N14OpenJade_DSSSL14SaveFOTBuilder11setLigatureEb"            ; magicseg='TEXT32' len=56
  "__ZN14OpenJade_DSSSL14SaveFOTBuilder14setScoreSpacesEb"              ; magicseg='TEXT32' len=54
  "__ZThn8_N14OpenJade_DSSSL14SaveFOTBuilder14setScoreSpacesEb"         ; magicseg='TEXT32' len=59
  "__ZN14OpenJade_DSSSL14SaveFOTBuilder21setFloatOutMarginaliaEb"       ; magicseg='TEXT32' len=61
  "__ZThn8_N14OpenJade_DSSSL14SaveFOTBuilder21setFloatOutMarginaliaEb"                      ; magicseg='TEXT32' len=66
  "__ZN14OpenJade_DSSSL14SaveFOTBuilder20setFloatOutSidelinesEb"        ; magicseg='TEXT32' len=60
  "__ZThn8_N14OpenJade_DSSSL14SaveFOTBuilder20setFloatOutSidelinesEb"                       ; magicseg='TEXT32' len=65
  "__ZN14OpenJade_DSSSL14SaveFOTBuilder22setFloatOutLineNumbersEb"      ; magicseg='TEXT32' len=62
  "__ZThn8_N14OpenJade_DSSSL14SaveFOTBuilder22setFloatOutLineNumbersEb"                     ; magicseg='TEXT32' len=67
  "__ZN14OpenJade_DSSSL14SaveFOTBuilder17setCellBackgroundEb"           ; magicseg='TEXT32' len=57
  "__ZThn8_N14OpenJade_DSSSL14SaveFOTBuilder17setCellBackgroundEb"      ; magicseg='TEXT32' len=62
  "__ZN14OpenJade_DSSSL14SaveFOTBuilder11setSpanWeakEb"                 ; magicseg='TEXT32' len=51
  "__ZThn8_N14OpenJade_DSSSL14SaveFOTBuilder11setSpanWeakEb"            ; magicseg='TEXT32' len=56
  "__ZN14OpenJade_DSSSL14SaveFOTBuilder18setIgnoreRecordEndEb"          ; magicseg='TEXT32' len=58
  "__ZThn8_N14OpenJade_DSSSL14SaveFOTBuilder18setIgnoreRecordEndEb"     ; magicseg='TEXT32' len=63
  "__ZN14OpenJade_DSSSL14SaveFOTBuilder16setNumberedLinesEb"            ; magicseg='TEXT32' len=56
  "__ZThn8_N14OpenJade_DSSSL14SaveFOTBuilder16setNumberedLinesEb"       ; magicseg='TEXT32' len=61
  "__ZN14OpenJade_DSSSL14SaveFOTBuilder15setHangingPunctEb"             ; magicseg='TEXT32' len=55
  "__ZThn8_N14OpenJade_DSSSL14SaveFOTBuilder15setHangingPunctEb"        ; magicseg='TEXT32' len=60
  "__ZN14OpenJade_DSSSL14SaveFOTBuilder13setBoxOpenEndEb"               ; magicseg='TEXT32' len=53
  "__ZThn8_N14OpenJade_DSSSL14SaveFOTBuilder13setBoxOpenEndEb"          ; magicseg='TEXT32' len=58
  "__ZN14OpenJade_DSSSL14SaveFOTBuilder17setTruncateLeaderEb"           ; magicseg='TEXT32' len=57
  "__ZThn8_N14OpenJade_DSSSL14SaveFOTBuilder17setTruncateLeaderEb"      ; magicseg='TEXT32' len=62
  "__ZN14OpenJade_DSSSL14SaveFOTBuilder14setAlignLeaderEb"              ; magicseg='TEXT32' len=54
  "__ZThn8_N14OpenJade_DSSSL14SaveFOTBuilder14setAlignLeaderEb"         ; magicseg='TEXT32' len=59
  "__ZN14OpenJade_DSSSL14SaveFOTBuilder28setTablePartOmitMiddleHeaderEb"                    ; magicseg='TEXT32' len=68
  "__ZThn8_N14OpenJade_DSSSL14SaveFOTBuilder28setTablePartOmitMiddleHeaderEb"               ; magicseg='TEXT32' len=73
  "__ZN14OpenJade_DSSSL14SaveFOTBuilder28setTablePartOmitMiddleFooterEb"                    ; magicseg='TEXT32' len=68
  "__ZThn8_N14OpenJade_DSSSL14SaveFOTBuilder28setTablePartOmitMiddleFooterEb"               ; magicseg='TEXT32' len=73
  "__ZN14OpenJade_DSSSL14SaveFOTBuilder20setBorderOmitAtBreakEb"        ; magicseg='TEXT32' len=60
  "__ZThn8_N14OpenJade_DSSSL14SaveFOTBuilder20setBorderOmitAtBreakEb"                       ; magicseg='TEXT32' len=65
  "__ZN14OpenJade_DSSSL14SaveFOTBuilder28setPrincipalModeSimultaneousEb"                    ; magicseg='TEXT32' len=68
  "__ZThn8_N14OpenJade_DSSSL14SaveFOTBuilder28setPrincipalModeSimultaneousEb"               ; magicseg='TEXT32' len=73
  "__ZN14OpenJade_DSSSL14SaveFOTBuilder29setMarginaliaKeepWithPreviousEb"                   ; magicseg='TEXT32' len=69
  "__ZThn8_N14OpenJade_DSSSL14SaveFOTBuilder29setMarginaliaKeepWithPreviousEb"              ; magicseg='TEXT32' len=74
  "__ZN14OpenJade_DSSSL14SaveFOTBuilder22setGridEquidistantRowsEb"      ; magicseg='TEXT32' len=62
  "__ZThn8_N14OpenJade_DSSSL14SaveFOTBuilder22setGridEquidistantRowsEb"                     ; magicseg='TEXT32' len=67
  "__ZN14OpenJade_DSSSL14SaveFOTBuilder25setGridEquidistantColumnsEb"                       ; magicseg='TEXT32' len=65
  "__ZThn8_N14OpenJade_DSSSL14SaveFOTBuilder25setGridEquidistantColumnsEb"                  ; magicseg='TEXT32' len=70
  "__ZN14OpenJade_DSSSL14SaveFOTBuilder16setJustifySpreadEb"            ; magicseg='TEXT32' len=56
  "__ZThn8_N14OpenJade_DSSSL14SaveFOTBuilder16setJustifySpreadEb"       ; magicseg='TEXT32' len=61
  "__ZN14OpenJade_DSSSL14SaveFOTBuilder25setAnchorKeepWithPreviousEb"                       ; magicseg='TEXT32' len=65
  "__ZThn8_N14OpenJade_DSSSL14SaveFOTBuilder25setAnchorKeepWithPreviousEb"                  ; magicseg='TEXT32' len=70
  "__ZN14OpenJade_DSSSL14SaveFOTBuilder13setFontWeightENS_10FOTBuilder6SymbolE"             ; magicseg='TEXT32' len=75
  "__ZThn8_N14OpenJade_DSSSL14SaveFOTBuilder13setFontWeightENS_10FOTBuilder6SymbolE"        ; magicseg='TEXT32' len=80
  "__ZN14OpenJade_DSSSL14SaveFOTBuilder14setFontPostureENS_10FOTBuilder6SymbolE"            ; magicseg='TEXT32' len=76
  "__ZThn8_N14OpenJade_DSSSL14SaveFOTBuilder14setFontPostureENS_10FOTBuilder6SymbolE"       ; magicseg='TEXT32' len=81
  "__ZN14OpenJade_DSSSL14SaveFOTBuilder8setLinesENS_10FOTBuilder6SymbolE"                   ; magicseg='TEXT32' len=69
  "__ZThn8_N14OpenJade_DSSSL14SaveFOTBuilder8setLinesENS_10FOTBuilder6SymbolE"              ; magicseg='TEXT32' len=74
  "__ZN14OpenJade_DSSSL14SaveFOTBuilder11setQuaddingENS_10FOTBuilder6SymbolE"               ; magicseg='TEXT32' len=73
  "__ZThn8_N14OpenJade_DSSSL14SaveFOTBuilder11setQuaddingENS_10FOTBuilder6SymbolE"          ; magicseg='TEXT32' len=78
  "__ZN14OpenJade_DSSSL14SaveFOTBuilder19setDisplayAlignmentENS_10FOTBuilder6SymbolE"       ; magicseg='TEXT32' len=81
  "__ZThn8_N14OpenJade_DSSSL14SaveFOTBuilder19setDisplayAlignmentENS_10FOTBuilder6SymbolE"                                ; magicseg='TEXT32' len=86
  "__ZN14OpenJade_DSSSL14SaveFOTBuilder13setFieldAlignENS_10FOTBuilder6SymbolE"             ; magicseg='TEXT32' len=75
  "__ZThn8_N14OpenJade_DSSSL14SaveFOTBuilder13setFieldAlignENS_10FOTBuilder6SymbolE"        ; magicseg='TEXT32' len=80
  "__ZN14OpenJade_DSSSL14SaveFOTBuilder11setLineJoinENS_10FOTBuilder6SymbolE"               ; magicseg='TEXT32' len=73
  "__ZThn8_N14OpenJade_DSSSL14SaveFOTBuilder11setLineJoinENS_10FOTBuilder6SymbolE"          ; magicseg='TEXT32' len=78
  "__ZN14OpenJade_DSSSL14SaveFOTBuilder10setLineCapENS_10FOTBuilder6SymbolE"                ; magicseg='TEXT32' len=72
  "__ZThn8_N14OpenJade_DSSSL14SaveFOTBuilder10setLineCapENS_10FOTBuilder6SymbolE"           ; magicseg='TEXT32' len=77
  "__ZN14OpenJade_DSSSL14SaveFOTBuilder17setLineNumberSideENS_10FOTBuilder6SymbolE"         ; magicseg='TEXT32' len=79
  "__ZThn8_N14OpenJade_DSSSL14SaveFOTBuilder17setLineNumberSideENS_10FOTBuilder6SymbolE"    ; magicseg='TEXT32' len=84
  "__ZN14OpenJade_DSSSL14SaveFOTBuilder11setKernModeENS_10FOTBuilder6SymbolE"               ; magicseg='TEXT32' len=73
  "__ZThn8_N14OpenJade_DSSSL14SaveFOTBuilder11setKernModeENS_10FOTBuilder6SymbolE"          ; magicseg='TEXT32' len=78
  "__ZN14OpenJade_DSSSL14SaveFOTBuilder27setInputWhitespaceTreatmentENS_10FOTBuilder6SymbolE"                             ; magicseg='TEXT32' len=89
  "__ZThn8_N14OpenJade_DSSSL14SaveFOTBuilder27setInputWhitespaceTreatmentENS_10FOTBuilder6SymbolE"                        ; magicseg='TEXT32' len=94
  "__ZN14OpenJade_DSSSL14SaveFOTBuilder19setFillingDirectionENS_10FOTBuilder6SymbolE"       ; magicseg='TEXT32' len=81
  "__ZThn8_N14OpenJade_DSSSL14SaveFOTBuilder19setFillingDirectionENS_10FOTBuilder6SymbolE"                                ; magicseg='TEXT32' len=86
  "__ZN14OpenJade_DSSSL14SaveFOTBuilder14setWritingModeENS_10FOTBuilder6SymbolE"            ; magicseg='TEXT32' len=76
  "__ZThn8_N14OpenJade_DSSSL14SaveFOTBuilder14setWritingModeENS_10FOTBuilder6SymbolE"       ; magicseg='TEXT32' len=81
  "__ZN14OpenJade_DSSSL14SaveFOTBuilder19setLastLineQuaddingENS_10FOTBuilder6SymbolE"       ; magicseg='TEXT32' len=81
  "__ZThn8_N14OpenJade_DSSSL14SaveFOTBuilder19setLastLineQuaddingENS_10FOTBuilder6SymbolE"                                ; magicseg='TEXT32' len=86
  "__ZN14OpenJade_DSSSL14SaveFOTBuilder18setMathDisplayModeENS_10FOTBuilder6SymbolE"        ; magicseg='TEXT32' len=80
  "__ZThn8_N14OpenJade_DSSSL14SaveFOTBuilder18setMathDisplayModeENS_10FOTBuilder6SymbolE"                                 ; magicseg='TEXT32' len=85
  "__ZN14OpenJade_DSSSL14SaveFOTBuilder17setScriptPreAlignENS_10FOTBuilder6SymbolE"         ; magicseg='TEXT32' len=79
  "__ZThn8_N14OpenJade_DSSSL14SaveFOTBuilder17setScriptPreAlignENS_10FOTBuilder6SymbolE"    ; magicseg='TEXT32' len=84
  "__ZN14OpenJade_DSSSL14SaveFOTBuilder18setScriptPostAlignENS_10FOTBuilder6SymbolE"        ; magicseg='TEXT32' len=80
  "__ZThn8_N14OpenJade_DSSSL14SaveFOTBuilder18setScriptPostAlignENS_10FOTBuilder6SymbolE"                                 ; magicseg='TEXT32' len=85
  "__ZN14OpenJade_DSSSL14SaveFOTBuilder20setScriptMidSupAlignENS_10FOTBuilder6SymbolE"      ; magicseg='TEXT32' len=82
  "__ZThn8_N14OpenJade_DSSSL14SaveFOTBuilder20setScriptMidSupAlignENS_10FOTBuilder6SymbolE"                               ; magicseg='TEXT32' len=87
  "__ZN14OpenJade_DSSSL14SaveFOTBuilder20setScriptMidSubAlignENS_10FOTBuilder6SymbolE"      ; magicseg='TEXT32' len=82
  "__ZThn8_N14OpenJade_DSSSL14SaveFOTBuilder20setScriptMidSubAlignENS_10FOTBuilder6SymbolE"                               ; magicseg='TEXT32' len=87
  "__ZN14OpenJade_DSSSL14SaveFOTBuilder17setNumeratorAlignENS_10FOTBuilder6SymbolE"         ; magicseg='TEXT32' len=79
  "__ZThn8_N14OpenJade_DSSSL14SaveFOTBuilder17setNumeratorAlignENS_10FOTBuilder6SymbolE"    ; magicseg='TEXT32' len=84
  "__ZN14OpenJade_DSSSL14SaveFOTBuilder19setDenominatorAlignENS_10FOTBuilder6SymbolE"       ; magicseg='TEXT32' len=81
  "__ZThn8_N14OpenJade_DSSSL14SaveFOTBuilder19setDenominatorAlignENS_10FOTBuilder6SymbolE"                                ; magicseg='TEXT32' len=86
  "__ZN14OpenJade_DSSSL14SaveFOTBuilder23setGridPositionCellTypeENS_10FOTBuilder6SymbolE"                                 ; magicseg='TEXT32' len=85
  "__ZThn8_N14OpenJade_DSSSL14SaveFOTBuilder23setGridPositionCellTypeENS_10FOTBuilder6SymbolE"                            ; magicseg='TEXT32' len=90
  "__ZN14OpenJade_DSSSL14SaveFOTBuilder22setGridColumnAlignmentENS_10FOTBuilder6SymbolE"    ; magicseg='TEXT32' len=84
  "__ZThn8_N14OpenJade_DSSSL14SaveFOTBuilder22setGridColumnAlignmentENS_10FOTBuilder6SymbolE"                             ; magicseg='TEXT32' len=89
  "__ZN14OpenJade_DSSSL14SaveFOTBuilder19setGridRowAlignmentENS_10FOTBuilder6SymbolE"       ; magicseg='TEXT32' len=81
  "__ZThn8_N14OpenJade_DSSSL14SaveFOTBuilder19setGridRowAlignmentENS_10FOTBuilder6SymbolE"                                ; magicseg='TEXT32' len=86
  "__ZN14OpenJade_DSSSL14SaveFOTBuilder10setBoxTypeENS_10FOTBuilder6SymbolE"                ; magicseg='TEXT32' len=72
  "__ZThn8_N14OpenJade_DSSSL14SaveFOTBuilder10setBoxTypeENS_10FOTBuilder6SymbolE"           ; magicseg='TEXT32' len=77
  "__ZN14OpenJade_DSSSL14SaveFOTBuilder21setGlyphAlignmentModeENS_10FOTBuilder6SymbolE"     ; magicseg='TEXT32' len=83
  "__ZThn8_N14OpenJade_DSSSL14SaveFOTBuilder21setGlyphAlignmentModeENS_10FOTBuilder6SymbolE"                              ; magicseg='TEXT32' len=88
  "__ZN14OpenJade_DSSSL14SaveFOTBuilder21setBoxBorderAlignmentENS_10FOTBuilder6SymbolE"     ; magicseg='TEXT32' len=83
  "__ZThn8_N14OpenJade_DSSSL14SaveFOTBuilder21setBoxBorderAlignmentENS_10FOTBuilder6SymbolE"                              ; magicseg='TEXT32' len=88
  "__ZN14OpenJade_DSSSL14SaveFOTBuilder19setCellRowAlignmentENS_10FOTBuilder6SymbolE"       ; magicseg='TEXT32' len=81
  "__ZThn8_N14OpenJade_DSSSL14SaveFOTBuilder19setCellRowAlignmentENS_10FOTBuilder6SymbolE"                                ; magicseg='TEXT32' len=86
  "__ZN14OpenJade_DSSSL14SaveFOTBuilder18setBorderAlignmentENS_10FOTBuilder6SymbolE"        ; magicseg='TEXT32' len=80
  "__ZThn8_N14OpenJade_DSSSL14SaveFOTBuilder18setBorderAlignmentENS_10FOTBuilder6SymbolE"                                 ; magicseg='TEXT32' len=85
  "__ZN14OpenJade_DSSSL14SaveFOTBuilder15setSidelineSideENS_10FOTBuilder6SymbolE"           ; magicseg='TEXT32' len=77
  "__ZThn8_N14OpenJade_DSSSL14SaveFOTBuilder15setSidelineSideENS_10FOTBuilder6SymbolE"      ; magicseg='TEXT32' len=82
  "__ZN14OpenJade_DSSSL14SaveFOTBuilder18setHyphenationKeepENS_10FOTBuilder6SymbolE"        ; magicseg='TEXT32' len=80
  "__ZThn8_N14OpenJade_DSSSL14SaveFOTBuilder18setHyphenationKeepENS_10FOTBuilder6SymbolE"                                 ; magicseg='TEXT32' len=85
  "__ZN14OpenJade_DSSSL14SaveFOTBuilder16setFontStructureENS_10FOTBuilder6SymbolE"          ; magicseg='TEXT32' len=78
  "__ZThn8_N14OpenJade_DSSSL14SaveFOTBuilder16setFontStructureENS_10FOTBuilder6SymbolE"     ; magicseg='TEXT32' len=83
  "__ZN14OpenJade_DSSSL14SaveFOTBuilder25setFontProportionateWidthENS_10FOTBuilder6SymbolE"                               ; magicseg='TEXT32' len=87
  "__ZThn8_N14OpenJade_DSSSL14SaveFOTBuilder25setFontProportionateWidthENS_10FOTBuilder6SymbolE"                          ; magicseg='TEXT32' len=92
  "__ZN14OpenJade_DSSSL14SaveFOTBuilder14setCellCrossedENS_10FOTBuilder6SymbolE"            ; magicseg='TEXT32' len=76
  "__ZThn8_N14OpenJade_DSSSL14SaveFOTBuilder14setCellCrossedENS_10FOTBuilder6SymbolE"       ; magicseg='TEXT32' len=81
  "__ZN14OpenJade_DSSSL14SaveFOTBuilder17setMarginaliaSideENS_10FOTBuilder6SymbolE"         ; magicseg='TEXT32' len=79
  "__ZThn8_N14OpenJade_DSSSL14SaveFOTBuilder17setMarginaliaSideENS_10FOTBuilder6SymbolE"    ; magicseg='TEXT32' len=84
  "__ZN14OpenJade_DSSSL14SaveFOTBuilder15setPageCategoryENS_10FOTBuilder6SymbolE"           ; magicseg='TEXT32' len=77
  "__ZThn8_N14OpenJade_DSSSL14SaveFOTBuilder15setPageCategoryENS_10FOTBuilder6SymbolE"      ; magicseg='TEXT32' len=82
  "__ZN14OpenJade_DSSSL14SaveFOTBuilder16setForceLastPageENS_10FOTBuilder6SymbolE"          ; magicseg='TEXT32' len=78
  "__ZThn8_N14OpenJade_DSSSL14SaveFOTBuilder16setForceLastPageENS_10FOTBuilder6SymbolE"     ; magicseg='TEXT32' len=83
  "__ZN14OpenJade_DSSSL14SaveFOTBuilder17setForceFirstPageENS_10FOTBuilder6SymbolE"         ; magicseg='TEXT32' len=79
  "__ZThn8_N14OpenJade_DSSSL14SaveFOTBuilder17setForceFirstPageENS_10FOTBuilder6SymbolE"    ; magicseg='TEXT32' len=84
  "__ZN14OpenJade_DSSSL14SaveFOTBuilder16setFirstPageTypeENS_10FOTBuilder6SymbolE"          ; magicseg='TEXT32' len=78
  "__ZThn8_N14OpenJade_DSSSL14SaveFOTBuilder16setFirstPageTypeENS_10FOTBuilder6SymbolE"     ; magicseg='TEXT32' len=83
  "__ZN14OpenJade_DSSSL14SaveFOTBuilder14setBindingEdgeENS_10FOTBuilder6SymbolE"            ; magicseg='TEXT32' len=76
  "__ZThn8_N14OpenJade_DSSSL14SaveFOTBuilder14setBindingEdgeENS_10FOTBuilder6SymbolE"       ; magicseg='TEXT32' len=81
  "__ZN14OpenJade_DSSSL14SaveFOTBuilder20setContentsAlignmentENS_10FOTBuilder6SymbolE"      ; magicseg='TEXT32' len=82
  "__ZThn8_N14OpenJade_DSSSL14SaveFOTBuilder20setContentsAlignmentENS_10FOTBuilder6SymbolE"                               ; magicseg='TEXT32' len=87
  "__ZN14OpenJade_DSSSL14SaveFOTBuilder17setOverflowActionENS_10FOTBuilder6SymbolE"         ; magicseg='TEXT32' len=79
  "__ZThn8_N14OpenJade_DSSSL14SaveFOTBuilder17setOverflowActionENS_10FOTBuilder6SymbolE"    ; magicseg='TEXT32' len=84
  "__ZN14OpenJade_DSSSL14SaveFOTBuilder27setAnnotationGlyphPlacementENS_10FOTBuilder6SymbolE"                             ; magicseg='TEXT32' len=89
  "__ZThn8_N14OpenJade_DSSSL14SaveFOTBuilder27setAnnotationGlyphPlacementENS_10FOTBuilder6SymbolE"                        ; magicseg='TEXT32' len=94
  "__ZN14OpenJade_DSSSL14SaveFOTBuilder19setMarkDistributionENS_10FOTBuilder6SymbolE"       ; magicseg='TEXT32' len=81
  "__ZThn8_N14OpenJade_DSSSL14SaveFOTBuilder19setMarkDistributionENS_10FOTBuilder6SymbolE"                                ; magicseg='TEXT32' len=86
  "__ZN14OpenJade_DSSSL14SaveFOTBuilder27setSideBySideOverlapControlENS_10FOTBuilder6SymbolE"                             ; magicseg='TEXT32' len=89
  "__ZThn8_N14OpenJade_DSSSL14SaveFOTBuilder27setSideBySideOverlapControlENS_10FOTBuilder6SymbolE"                        ; magicseg='TEXT32' len=94
  "__ZN14OpenJade_DSSSL14SaveFOTBuilder21setSideBySidePreAlignENS_10FOTBuilder6SymbolE"     ; magicseg='TEXT32' len=83
  "__ZThn8_N14OpenJade_DSSSL14SaveFOTBuilder21setSideBySidePreAlignENS_10FOTBuilder6SymbolE"                              ; magicseg='TEXT32' len=88
  "__ZN14OpenJade_DSSSL14SaveFOTBuilder22setSideBySidePostAlignENS_10FOTBuilder6SymbolE"    ; magicseg='TEXT32' len=84
  "__ZThn8_N14OpenJade_DSSSL14SaveFOTBuilder22setSideBySidePostAlignENS_10FOTBuilder6SymbolE"                             ; magicseg='TEXT32' len=89
  "__ZN14OpenJade_DSSSL14SaveFOTBuilder17setBackgroundTileEPKc"         ; magicseg='TEXT32' len=59
  "__ZThn8_N14OpenJade_DSSSL14SaveFOTBuilder17setBackgroundTileEPKc"    ; magicseg='TEXT32' len=64
  "__ZN14OpenJade_DSSSL14SaveFOTBuilder21setLineBreakingMethodEPKc"     ; magicseg='TEXT32' len=63
  "__ZThn8_N14OpenJade_DSSSL14SaveFOTBuilder21setLineBreakingMethodEPKc"                    ; magicseg='TEXT32' len=68
  "__ZN14OpenJade_DSSSL14SaveFOTBuilder24setLineCompositionMethodEPKc"                      ; magicseg='TEXT32' len=66
  "__ZThn8_N14OpenJade_DSSSL14SaveFOTBuilder24setLineCompositionMethodEPKc"                 ; magicseg='TEXT32' len=71
  "__ZN14OpenJade_DSSSL14SaveFOTBuilder21setImplicitBidiMethodEPKc"     ; magicseg='TEXT32' len=63
  "__ZThn8_N14OpenJade_DSSSL14SaveFOTBuilder21setImplicitBidiMethodEPKc"                    ; magicseg='TEXT32' len=68
  "__ZN14OpenJade_DSSSL14SaveFOTBuilder19setGlyphSubstMethodEPKc"       ; magicseg='TEXT32' len=61
  "__ZThn8_N14OpenJade_DSSSL14SaveFOTBuilder19setGlyphSubstMethodEPKc"                      ; magicseg='TEXT32' len=66
  "__ZN14OpenJade_DSSSL14SaveFOTBuilder21setGlyphReorderMethodEPKc"     ; magicseg='TEXT32' len=63
  "__ZThn8_N14OpenJade_DSSSL14SaveFOTBuilder21setGlyphReorderMethodEPKc"                    ; magicseg='TEXT32' len=68
  "__ZN14OpenJade_DSSSL14SaveFOTBuilder20setHyphenationMethodEPKc"      ; magicseg='TEXT32' len=62
  "__ZThn8_N14OpenJade_DSSSL14SaveFOTBuilder20setHyphenationMethodEPKc"                     ; magicseg='TEXT32' len=67
  "__ZN14OpenJade_DSSSL14SaveFOTBuilder23setTableAutoWidthMethodEPKc"                       ; magicseg='TEXT32' len=65
  "__ZThn8_N14OpenJade_DSSSL14SaveFOTBuilder23setTableAutoWidthMethodEPKc"                  ; magicseg='TEXT32' len=70
  "__ZN14OpenJade_DSSSL14SaveFOTBuilder11setFontNameEPKc"               ; magicseg='TEXT32' len=53
  "__ZThn8_N14OpenJade_DSSSL14SaveFOTBuilder11setFontNameEPKc"          ; magicseg='TEXT32' len=58
  "__ZN14OpenJade_DSSSL14SaveFOTBuilder12setMarkStyleEPKc"              ; magicseg='TEXT32' len=54
  "__ZThn8_N14OpenJade_DSSSL14SaveFOTBuilder12setMarkStyleEPKc"         ; magicseg='TEXT32' len=59
  "__ZN14OpenJade_DSSSL14SaveFOTBuilder18setInlineNoteStyleEPKc"        ; magicseg='TEXT32' len=60
  "__ZThn8_N14OpenJade_DSSSL14SaveFOTBuilder18setInlineNoteStyleEPKc"                       ; magicseg='TEXT32' len=65
  "__ZN14OpenJade_DSSSL14SaveFOTBuilder23setAnnotationGlyphStyleEPKc"                       ; magicseg='TEXT32' len=65
  "__ZThn8_N14OpenJade_DSSSL14SaveFOTBuilder23setAnnotationGlyphStyleEPKc"                  ; magicseg='TEXT32' len=70
  "__ZN14OpenJade_DSSSL14SaveFOTBuilder11setLanguageEj"                 ; magicseg='TEXT32' len=51
  "__ZThn8_N14OpenJade_DSSSL14SaveFOTBuilder11setLanguageEj"            ; magicseg='TEXT32' len=56
  "__ZN14OpenJade_DSSSL14SaveFOTBuilder10setCountryEj"                  ; magicseg='TEXT32' len=50
  "__ZThn8_N14OpenJade_DSSSL14SaveFOTBuilder10setCountryEj"             ; magicseg='TEXT32' len=55
  "__ZN14OpenJade_DSSSL14SaveFOTBuilder17setFontFamilyNameERKN6OpenSP6StringIjEE"           ; magicseg='TEXT32' len=77
  "__ZN14OpenJade_DSSSL14SaveFOTBuilder4CallD2Ev"                       ; magicseg='TEXT32' len=45
  "__ZThn8_N14OpenJade_DSSSL14SaveFOTBuilder17setFontFamilyNameERKN6OpenSP6StringIjEE"      ; magicseg='TEXT32' len=82
  "__ZN14OpenJade_DSSSL14SaveFOTBuilder21formattingInstructionERKN6OpenSP6StringIjEE"       ; magicseg='TEXT32' len=81
  "__ZThn8_N14OpenJade_DSSSL14SaveFOTBuilder21formattingInstructionERKN6OpenSP6StringIjEE"                                ; magicseg='TEXT32' len=86
  "__ZN14OpenJade_DSSSL14SaveFOTBuilder24setEscapementSpaceBeforeERKNS_10FOTBuilder11InlineSpaceE"                        ; magicseg='TEXT32' len=94
  "__ZThn8_N14OpenJade_DSSSL14SaveFOTBuilder24setEscapementSpaceBeforeERKNS_10FOTBuilder11InlineSpaceE"                   ; magicseg='TEXT32' len=99
  "__ZN14OpenJade_DSSSL14SaveFOTBuilder23setEscapementSpaceAfterERKNS_10FOTBuilder11InlineSpaceE"                         ; magicseg='TEXT32' len=93
  "__ZThn8_N14OpenJade_DSSSL14SaveFOTBuilder23setEscapementSpaceAfterERKNS_10FOTBuilder11InlineSpaceE"                    ; magicseg='TEXT32' len=98
  "__ZN14OpenJade_DSSSL14SaveFOTBuilder4CallD1Ev"                       ; magicseg='TEXT32' len=45
  "__ZN14OpenJade_DSSSL14SaveFOTBuilder4CallD0Ev"                       ; magicseg='TEXT32' len=45
  "__ZN14OpenJade_DSSSL14SaveFOTBuilder9NoArgCall4emitERNS_10FOTBuilderE"                   ; magicseg='TEXT32' len=69
  "__ZN14OpenJade_DSSSL14SaveFOTBuilder11LongArgCall4emitERNS_10FOTBuilderE"                ; magicseg='TEXT32' len=72
  "__ZN14OpenJade_DSSSL14SaveFOTBuilder20ExtensionLongArgCall4emitERNS_10FOTBuilderE"       ; magicseg='TEXT32' len=81
  "__ZN14OpenJade_DSSSL14SaveFOTBuilder11BoolArgCall4emitERNS_10FOTBuilderE"                ; magicseg='TEXT32' len=72
  "__ZN14OpenJade_DSSSL14SaveFOTBuilder20ExtensionBoolArgCall4emitERNS_10FOTBuilderE"       ; magicseg='TEXT32' len=81
  "__ZN14OpenJade_DSSSL14SaveFOTBuilder13SymbolArgCall4emitERNS_10FOTBuilderE"              ; magicseg='TEXT32' len=74
  "__ZN14OpenJade_DSSSL14SaveFOTBuilder15PublicIdArgCall4emitERNS_10FOTBuilderE"            ; magicseg='TEXT32' len=76
  "__ZN14OpenJade_DSSSL14SaveFOTBuilder15UnsignedArgCall4emitERNS_10FOTBuilderE"            ; magicseg='TEXT32' len=76
  "__ZN14OpenJade_DSSSL14SaveFOTBuilder18InlineSpaceArgCall4emitERNS_10FOTBuilderE"         ; magicseg='TEXT32' len=79
  "__ZN14OpenJade_DSSSL14SaveFOTBuilder13StringArgCall4emitERNS_10FOTBuilderE"              ; magicseg='TEXT32' len=74
  "__ZN14OpenJade_DSSSL14SaveFOTBuilder22ExtensionStringArgCall4emitERNS_10FOTBuilderE"     ; magicseg='TEXT32' len=83
  "__ZN14OpenJade_DSSSL14SaveFOTBuilder11CharArgCall4emitERNS_10FOTBuilderE"                ; magicseg='TEXT32' len=72
  "__ZN14OpenJade_DSSSL14SaveFOTBuilder17LengthSpecArgCall4emitERNS_10FOTBuilderE"          ; magicseg='TEXT32' len=78
  "__ZN14OpenJade_DSSSL14SaveFOTBuilder20OptLengthSpecArgCall4emitERNS_10FOTBuilderE"       ; magicseg='TEXT32' len=81
  "__ZN14OpenJade_DSSSL14SaveFOTBuilder14NodePtrArgCall4emitERNS_10FOTBuilderE"             ; magicseg='TEXT32' len=75
  "__ZN14OpenJade_DSSSL14SaveFOTBuilder21DeviceRGBColorArgCall4emitERNS_10FOTBuilderE"      ; magicseg='TEXT32' len=82
  "__ZN14OpenJade_DSSSL14SaveFOTBuilder18charactersFromNodeERKN14OpenJade_Grove7NodePtrEPKjj"                             ; magicseg='TEXT32' len=89
  "__ZN14OpenJade_DSSSL14SaveFOTBuilder22CharactersFromNodeCallC1ERKN14OpenJade_Grove7NodePtrEPKjj"                       ; magicseg='TEXT32' len=95
  "__ZThn8_N14OpenJade_DSSSL14SaveFOTBuilder18charactersFromNodeERKN14OpenJade_Grove7NodePtrEPKjj"                        ; magicseg='TEXT32' len=94
  "__ZN14OpenJade_DSSSL14SaveFOTBuilder22CharactersFromNodeCallC2ERKN14OpenJade_Grove7NodePtrEPKjj"                       ; magicseg='TEXT32' len=95
  "__ZN14OpenJade_DSSSL14SaveFOTBuilder22CharactersFromNodeCall4emitERNS_10FOTBuilderE"     ; magicseg='TEXT32' len=83
  "__ZN14OpenJade_DSSSL14SaveFOTBuilder10charactersEPKjj"               ; magicseg='TEXT32' len=53
  "__ZN14OpenJade_DSSSL14SaveFOTBuilder14CharactersCallC1EPKjj"         ; magicseg='TEXT32' len=59
  "__ZThn8_N14OpenJade_DSSSL14SaveFOTBuilder10charactersEPKjj"          ; magicseg='TEXT32' len=58
  "__ZN14OpenJade_DSSSL14SaveFOTBuilder13CharacterCall4emitERNS_10FOTBuilderE"              ; magicseg='TEXT32' len=74
  "__ZN14OpenJade_DSSSL14SaveFOTBuilder9characterERKNS_10FOTBuilder12CharacterNICE"         ; magicseg='TEXT32' len=79
  "__ZThn8_N14OpenJade_DSSSL14SaveFOTBuilder9characterERKNS_10FOTBuilder12CharacterNICE"    ; magicseg='TEXT32' len=84
  "__ZN14OpenJade_DSSSL14SaveFOTBuilder13StartNodeCallC2ERKN14OpenJade_Grove7NodePtrERKN6OpenSP6StringIjEE"               ; magicseg='TEXT32' len=103
  "__ZN14OpenJade_DSSSL14SaveFOTBuilder13StartNodeCallC1ERKN14OpenJade_Grove7NodePtrERKN6OpenSP6StringIjEE"               ; magicseg='TEXT32' len=103
  "__ZN14OpenJade_DSSSL14SaveFOTBuilder13StartNodeCall4emitERNS_10FOTBuilderE"              ; magicseg='TEXT32' len=74
  "__ZN14OpenJade_DSSSL14SaveFOTBuilder9startNodeERKN14OpenJade_Grove7NodePtrERKN6OpenSP6StringIjEE"                      ; magicseg='TEXT32' len=96
  "__ZThn8_N14OpenJade_DSSSL14SaveFOTBuilder9startNodeERKN14OpenJade_Grove7NodePtrERKN6OpenSP6StringIjEE"                 ; magicseg='TEXT32' len=101
  "__ZN14OpenJade_DSSSL14SaveFOTBuilder21currentNodePageNumberERKN14OpenJade_Grove7NodePtrE"                              ; magicseg='TEXT32' len=88
  "__ZThn8_N14OpenJade_DSSSL14SaveFOTBuilder21currentNodePageNumberERKN14OpenJade_Grove7NodePtrE"                         ; magicseg='TEXT32' len=93
  "__ZN14OpenJade_DSSSL14SaveFOTBuilder8setColorERKNS_10FOTBuilder14DeviceRGBColorE"        ; magicseg='TEXT32' len=80
  "__ZThn8_N14OpenJade_DSSSL14SaveFOTBuilder8setColorERKNS_10FOTBuilder14DeviceRGBColorE"                                 ; magicseg='TEXT32' len=85
  "__ZN14OpenJade_DSSSL14SaveFOTBuilder18setBackgroundColorERKNS_10FOTBuilder14DeviceRGBColorE"                           ; magicseg='TEXT32' len=91
  "__ZThn8_N14OpenJade_DSSSL14SaveFOTBuilder18setBackgroundColorERKNS_10FOTBuilder14DeviceRGBColorE"                      ; magicseg='TEXT32' len=96
  "__ZN14OpenJade_DSSSL14SaveFOTBuilder18setBackgroundColorEv"          ; magicseg='TEXT32' len=58
  "__ZThn8_N14OpenJade_DSSSL14SaveFOTBuilder18setBackgroundColorEv"     ; magicseg='TEXT32' len=63
  "__ZN14OpenJade_DSSSL14SaveFOTBuilder14startParagraphERKNS_10FOTBuilder10DisplayNICE"     ; magicseg='TEXT32' len=83
  "__ZN14OpenJade_DSSSL14SaveFOTBuilder18StartParagraphCallC1ERKNS_10FOTBuilder10DisplayNICE"                             ; magicseg='TEXT32' len=89
  "__ZThn8_N14OpenJade_DSSSL14SaveFOTBuilder14startParagraphERKNS_10FOTBuilder10DisplayNICE"                              ; magicseg='TEXT32' len=88
  "__ZN14OpenJade_DSSSL14SaveFOTBuilder14paragraphBreakERKNS_10FOTBuilder10DisplayNICE"     ; magicseg='TEXT32' len=83
  "__ZN14OpenJade_DSSSL14SaveFOTBuilder18ParagraphBreakCallC1ERKNS_10FOTBuilder10DisplayNICE"                             ; magicseg='TEXT32' len=89
  "__ZThn8_N14OpenJade_DSSSL14SaveFOTBuilder14paragraphBreakERKNS_10FOTBuilder10DisplayNICE"                              ; magicseg='TEXT32' len=88
  "__ZN14OpenJade_DSSSL14SaveFOTBuilder17startDisplayGroupERKNS_10FOTBuilder15DisplayGroupNICE"                           ; magicseg='TEXT32' len=91
  "__ZN14OpenJade_DSSSL14SaveFOTBuilder21StartDisplayGroupCallC1ERKNS_10FOTBuilder15DisplayGroupNICE"                     ; magicseg='TEXT32' len=97
  "__ZThn8_N14OpenJade_DSSSL14SaveFOTBuilder17startDisplayGroupERKNS_10FOTBuilder15DisplayGroupNICE"                      ; magicseg='TEXT32' len=96
  "__ZN14OpenJade_DSSSL14SaveFOTBuilder15externalGraphicERKNS_10FOTBuilder18ExternalGraphicNICE"                          ; magicseg='TEXT32' len=92
  "__ZN14OpenJade_DSSSL10FOTBuilder18ExternalGraphicNICC1ERKS1_"        ; magicseg='TEXT32' len=60
  "__ZThn8_N14OpenJade_DSSSL14SaveFOTBuilder15externalGraphicERKNS_10FOTBuilder18ExternalGraphicNICE"                     ; magicseg='TEXT32' len=97
  "__ZN14OpenJade_DSSSL14SaveFOTBuilder4ruleERKNS_10FOTBuilder7RuleNICE"                    ; magicseg='TEXT32' len=68
  "__ZThn8_N14OpenJade_DSSSL14SaveFOTBuilder4ruleERKNS_10FOTBuilder7RuleNICE"               ; magicseg='TEXT32' len=73
  "__ZN14OpenJade_DSSSL14SaveFOTBuilder11startLeaderERKNS_10FOTBuilder9LeaderNICE"          ; magicseg='TEXT32' len=78
  "__ZThn8_N14OpenJade_DSSSL14SaveFOTBuilder11startLeaderERKNS_10FOTBuilder9LeaderNICE"     ; magicseg='TEXT32' len=83
  "__ZN14OpenJade_DSSSL14SaveFOTBuilder9startLinkERKNS_10FOTBuilder7AddressE"               ; magicseg='TEXT32' len=73
  "__ZN14OpenJade_DSSSL10FOTBuilder7AddressC1ERKS1_"                    ; magicseg='TEXT32' len=48
  "__ZThn8_N14OpenJade_DSSSL14SaveFOTBuilder9startLinkERKNS_10FOTBuilder7AddressE"          ; magicseg='TEXT32' len=78
  "__ZN14OpenJade_DSSSL14SaveFOTBuilder10startScoreENS_10FOTBuilder6SymbolE"                ; magicseg='TEXT32' len=72
  "__ZThn8_N14OpenJade_DSSSL14SaveFOTBuilder10startScoreENS_10FOTBuilder6SymbolE"           ; magicseg='TEXT32' len=77
  "__ZN14OpenJade_DSSSL14SaveFOTBuilder10startScoreEj"                  ; magicseg='TEXT32' len=50
  "__ZThn8_N14OpenJade_DSSSL14SaveFOTBuilder10startScoreEj"             ; magicseg='TEXT32' len=55
  "__ZN14OpenJade_DSSSL14SaveFOTBuilder10startScoreERKNS_10FOTBuilder10LengthSpecE"         ; magicseg='TEXT32' len=79
  "__ZThn8_N14OpenJade_DSSSL14SaveFOTBuilder10startScoreERKNS_10FOTBuilder10LengthSpecE"    ; magicseg='TEXT32' len=84
  "__ZN14OpenJade_DSSSL14SaveFOTBuilder14startLineFieldERKNS_10FOTBuilder9InlineNICE"       ; magicseg='TEXT32' len=81
  "__ZThn8_N14OpenJade_DSSSL14SaveFOTBuilder14startLineFieldERKNS_10FOTBuilder9InlineNICE"                                ; magicseg='TEXT32' len=86
  "__ZN14OpenJade_DSSSL14SaveFOTBuilder8startBoxERKNS_10FOTBuilder6BoxNICE"                 ; magicseg='TEXT32' len=71
  "__ZThn8_N14OpenJade_DSSSL14SaveFOTBuilder8startBoxERKNS_10FOTBuilder6BoxNICE"            ; magicseg='TEXT32' len=76
  "__ZN14OpenJade_DSSSL14SaveFOTBuilder23startSimplePageSequenceEPPNS_10FOTBuilderE"        ; magicseg='TEXT32' len=80
  "__ZN14OpenJade_DSSSL27StartSimplePageSequenceCallC1EPPNS_10FOTBuilderE"                  ; magicseg='TEXT32' len=70
  "__ZThn8_N14OpenJade_DSSSL14SaveFOTBuilder23startSimplePageSequenceEPPNS_10FOTBuilderE"                                 ; magicseg='TEXT32' len=85
  "__ZN14OpenJade_DSSSL14SaveFOTBuilder22startColumnSetSequenceERKNS_10FOTBuilder10DisplayNICE"                           ; magicseg='TEXT32' len=91
  "__ZN14OpenJade_DSSSL26StartColumnSetSequenceCallC1ERKNS_10FOTBuilder10DisplayNICE"       ; magicseg='TEXT32' len=81
  "__ZThn8_N14OpenJade_DSSSL14SaveFOTBuilder22startColumnSetSequenceERKNS_10FOTBuilder10DisplayNICE"                      ; magicseg='TEXT32' len=96
  "__ZN14OpenJade_DSSSL14SaveFOTBuilder17startEmbeddedTextERKNS_10FOTBuilder15EmbeddedTextNICE"                           ; magicseg='TEXT32' len=91
  "__ZN14OpenJade_DSSSL21StartEmbeddedTextCallC1ERKNS_10FOTBuilder15EmbeddedTextNICE"       ; magicseg='TEXT32' len=81
  "__ZThn8_N14OpenJade_DSSSL14SaveFOTBuilder17startEmbeddedTextERKNS_10FOTBuilder15EmbeddedTextNICE"                      ; magicseg='TEXT32' len=96
  "__ZN14OpenJade_DSSSL14SaveFOTBuilder6anchorERKNS_10FOTBuilder9AnchorNICE"                ; magicseg='TEXT32' len=72
  "__ZThn8_N14OpenJade_DSSSL14SaveFOTBuilder6anchorERKNS_10FOTBuilder9AnchorNICE"           ; magicseg='TEXT32' len=77
  "__ZN14OpenJade_DSSSL14SaveFOTBuilder26startIncludedContainerAreaERKNS_10FOTBuilder24IncludedContainerAreaNICE"         ; magicseg='TEXT32' len=109
  "__ZN14OpenJade_DSSSL30StartIncludedContainerAreaCallC1ERKNS_10FOTBuilder24IncludedContainerAreaNICE"                   ; magicseg='TEXT32' len=99
  "__ZThn8_N14OpenJade_DSSSL14SaveFOTBuilder26startIncludedContainerAreaERKNS_10FOTBuilder24IncludedContainerAreaNICE"    ; magicseg='TEXT32' len=114
  "__ZN14OpenJade_DSSSL14SaveFOTBuilder18startAlignedColumnERKNS_10FOTBuilder10DisplayNICE"                               ; magicseg='TEXT32' len=87
  "__ZN14OpenJade_DSSSL22StartAlignedColumnCallC1ERKNS_10FOTBuilder10DisplayNICE"           ; magicseg='TEXT32' len=77
  "__ZThn8_N14OpenJade_DSSSL14SaveFOTBuilder18startAlignedColumnERKNS_10FOTBuilder10DisplayNICE"                          ; magicseg='TEXT32' len=92
  "__ZN14OpenJade_DSSSL14SaveFOTBuilder24startMultiLineInlineNoteERKNS_10FOTBuilder22MultiLineInlineNoteNICEPPS1_"        ; magicseg='TEXT32' len=110
  "__ZN14OpenJade_DSSSL28StartMultiLineInlineNoteCallC1ERKNS_10FOTBuilder22MultiLineInlineNoteNICEPPS1_"                  ; magicseg='TEXT32' len=100
  "__ZThn8_N14OpenJade_DSSSL14SaveFOTBuilder24startMultiLineInlineNoteERKNS_10FOTBuilder22MultiLineInlineNoteNICEPPS1_"                                        ; magicseg='TEXT32' len=115
  "__ZN14OpenJade_DSSSL14SaveFOTBuilder20startEmphasizingMarkERKNS_10FOTBuilder18EmphasizingMarkNICEPPS1_"                ; magicseg='TEXT32' len=102
  "__ZN14OpenJade_DSSSL24StartEmphasizingMarkCallC1ERKNS_10FOTBuilder18EmphasizingMarkNICEPPS1_"                          ; magicseg='TEXT32' len=92
  "__ZThn8_N14OpenJade_DSSSL14SaveFOTBuilder20startEmphasizingMarkERKNS_10FOTBuilder18EmphasizingMarkNICEPPS1_"           ; magicseg='TEXT32' len=107
  "__ZN14OpenJade_DSSSL14SaveFOTBuilder20startGlyphAnnotationERKNS_10FOTBuilder18GlyphAnnotationNICE"                     ; magicseg='TEXT32' len=97
  "__ZN14OpenJade_DSSSL24StartGlyphAnnotationCallC1ERKNS_10FOTBuilder18GlyphAnnotationNICE"                               ; magicseg='TEXT32' len=87
  "__ZThn8_N14OpenJade_DSSSL14SaveFOTBuilder20startGlyphAnnotationERKNS_10FOTBuilder18GlyphAnnotationNICE"                ; magicseg='TEXT32' len=102
  "__ZN14OpenJade_DSSSL14SaveFOTBuilder15startSideBySideERKNS_10FOTBuilder10DisplayNICE"    ; magicseg='TEXT32' len=84
  "__ZN14OpenJade_DSSSL19StartSideBySideCallC1ERKNS_10FOTBuilder10DisplayNICE"              ; magicseg='TEXT32' len=74
  "__ZThn8_N14OpenJade_DSSSL14SaveFOTBuilder15startSideBySideERKNS_10FOTBuilder10DisplayNICE"                             ; magicseg='TEXT32' len=89
  "__ZN14OpenJade_DSSSL14SaveFOTBuilder10startTableERKNS_10FOTBuilder8TableNICE"            ; magicseg='TEXT32' len=76
  "__ZThn8_N14OpenJade_DSSSL14SaveFOTBuilder10startTableERKNS_10FOTBuilder8TableNICE"       ; magicseg='TEXT32' len=81
  "__ZN14OpenJade_DSSSL14SaveFOTBuilder14startTablePartERKNS_10FOTBuilder10DisplayNICERPS1_S6_"                           ; magicseg='TEXT32' len=91
  "__ZN14OpenJade_DSSSL18StartTablePartCallC1ERKNS_10FOTBuilder10DisplayNICERPS1_S6_"       ; magicseg='TEXT32' len=81
  "__ZThn8_N14OpenJade_DSSSL14SaveFOTBuilder14startTablePartERKNS_10FOTBuilder10DisplayNICERPS1_S6_"                      ; magicseg='TEXT32' len=96
  "__ZN14OpenJade_DSSSL14SaveFOTBuilder11tableColumnERKNS_10FOTBuilder14TableColumnNICE"    ; magicseg='TEXT32' len=84
  "__ZThn8_N14OpenJade_DSSSL14SaveFOTBuilder11tableColumnERKNS_10FOTBuilder14TableColumnNICE"                             ; magicseg='TEXT32' len=89
  "__ZN14OpenJade_DSSSL14SaveFOTBuilder14startTableCellERKNS_10FOTBuilder12TableCellNICE"                                 ; magicseg='TEXT32' len=85
  "__ZThn8_N14OpenJade_DSSSL14SaveFOTBuilder14startTableCellERKNS_10FOTBuilder12TableCellNICE"                            ; magicseg='TEXT32' len=90
  "__ZN14OpenJade_DSSSL14SaveFOTBuilder13startFractionERPNS_10FOTBuilderES3_"               ; magicseg='TEXT32' len=73
  "__ZN14OpenJade_DSSSL17StartFractionCallC1ERPNS_10FOTBuilderES3_"     ; magicseg='TEXT32' len=63
  "__ZThn8_N14OpenJade_DSSSL14SaveFOTBuilder13startFractionERPNS_10FOTBuilderES3_"          ; magicseg='TEXT32' len=78
  "__ZN14OpenJade_DSSSL14SaveFOTBuilder11startScriptERPNS_10FOTBuilderES3_S3_S3_S3_S3_"     ; magicseg='TEXT32' len=83
  "__ZN14OpenJade_DSSSL15StartScriptCallC1ERPNS_10FOTBuilderES3_S3_S3_S3_S3_"               ; magicseg='TEXT32' len=73
  "__ZThn8_N14OpenJade_DSSSL14SaveFOTBuilder11startScriptERPNS_10FOTBuilderES3_S3_S3_S3_S3_"                              ; magicseg='TEXT32' len=88
  "__ZN14OpenJade_DSSSL14SaveFOTBuilder9startMarkERPNS_10FOTBuilderES3_"                    ; magicseg='TEXT32' len=68
  "__ZN14OpenJade_DSSSL13StartMarkCallC1ERPNS_10FOTBuilderES3_"         ; magicseg='TEXT32' len=59
  "__ZThn8_N14OpenJade_DSSSL14SaveFOTBuilder9startMarkERPNS_10FOTBuilderES3_"               ; magicseg='TEXT32' len=73
  "__ZN14OpenJade_DSSSL14SaveFOTBuilder10startFenceERPNS_10FOTBuilderES3_"                  ; magicseg='TEXT32' len=70
  "__ZN14OpenJade_DSSSL14StartFenceCallC1ERPNS_10FOTBuilderES3_"        ; magicseg='TEXT32' len=60
  "__ZThn8_N14OpenJade_DSSSL14SaveFOTBuilder10startFenceERPNS_10FOTBuilderES3_"             ; magicseg='TEXT32' len=75
  "__ZN14OpenJade_DSSSL14SaveFOTBuilder12startRadicalERPNS_10FOTBuilderE"                   ; magicseg='TEXT32' len=69
  "__ZN14OpenJade_DSSSL16StartRadicalCallC1ERPNS_10FOTBuilderE"         ; magicseg='TEXT32' len=59
  "__ZThn8_N14OpenJade_DSSSL14SaveFOTBuilder12startRadicalERPNS_10FOTBuilderE"              ; magicseg='TEXT32' len=74
  "__ZN14OpenJade_DSSSL14SaveFOTBuilder14radicalRadicalERKNS_10FOTBuilder12CharacterNICE"                                 ; magicseg='TEXT32' len=85
  "__ZThn8_N14OpenJade_DSSSL14SaveFOTBuilder14radicalRadicalERKNS_10FOTBuilder12CharacterNICE"                            ; magicseg='TEXT32' len=90
  "__ZN14OpenJade_DSSSL14SaveFOTBuilder17startMathOperatorERPNS_10FOTBuilderES3_S3_"        ; magicseg='TEXT32' len=80
  "__ZN14OpenJade_DSSSL21StartMathOperatorCallC1ERPNS_10FOTBuilderES3_S3_"                  ; magicseg='TEXT32' len=70
  "__ZThn8_N14OpenJade_DSSSL14SaveFOTBuilder17startMathOperatorERPNS_10FOTBuilderES3_S3_"                                 ; magicseg='TEXT32' len=85
  "__ZN14OpenJade_DSSSL14SaveFOTBuilder9startGridERKNS_10FOTBuilder7GridNICE"               ; magicseg='TEXT32' len=73
  "__ZThn8_N14OpenJade_DSSSL14SaveFOTBuilder9startGridERKNS_10FOTBuilder7GridNICE"          ; magicseg='TEXT32' len=78
  "__ZN14OpenJade_DSSSL14SaveFOTBuilder13startGridCellERKNS_10FOTBuilder11GridCellNICE"     ; magicseg='TEXT32' len=83
  "__ZThn8_N14OpenJade_DSSSL14SaveFOTBuilder13startGridCellERKNS_10FOTBuilder11GridCellNICE"                              ; magicseg='TEXT32' len=88
  "__ZN14OpenJade_DSSSL14SaveFOTBuilder14startMultiModeEPKNS_10FOTBuilder9MultiModeERKN6OpenSP6VectorIS2_EERNS6_IPS1_EE"                                       ; magicseg='TEXT32' len=116
  "__ZN14OpenJade_DSSSL18StartMultiModeCallC1EPKNS_10FOTBuilder9MultiModeERKN6OpenSP6VectorIS2_EERNS6_IPS1_EE"            ; magicseg='TEXT32' len=106
  "__ZThn8_N14OpenJade_DSSSL14SaveFOTBuilder14startMultiModeEPKNS_10FOTBuilder9MultiModeERKN6OpenSP6VectorIS2_EERNS6_IPS1_EE"                                  ; magicseg='TEXT32' len=121
  "__ZN14OpenJade_DSSSL14SaveFOTBuilder18setGlyphSubstTableERKN6OpenSP6VectorINS1_8ConstPtrINS_10FOTBuilder15GlyphSubstTableEEEEE"                             ; magicseg='TEXT32' len=126
  "__ZN6OpenSP6VectorINS_8ConstPtrIN14OpenJade_DSSSL10FOTBuilder15GlyphSubstTableEEEEC1ERKS6_"                            ; magicseg='TEXT32' len=90
  "__ZThn8_N14OpenJade_DSSSL14SaveFOTBuilder18setGlyphSubstTableERKN6OpenSP6VectorINS1_8ConstPtrINS_10FOTBuilder15GlyphSubstTableEEEEE"                        ; magicseg='TEXT32' len=131
  "__ZN14OpenJade_DSSSL14SaveFOTBuilder12extensionSetEMNS_10FOTBuilderEFvbEb"               ; magicseg='TEXT32' len=73
  "__ZThn8_N14OpenJade_DSSSL14SaveFOTBuilder12extensionSetEMNS_10FOTBuilderEFvbEb"          ; magicseg='TEXT32' len=78
  "__ZN14OpenJade_DSSSL14SaveFOTBuilder12extensionSetEMNS_10FOTBuilderEFvRKN6OpenSP6StringIjEEES6_"                       ; magicseg='TEXT32' len=95
  "__ZThn8_N14OpenJade_DSSSL14SaveFOTBuilder12extensionSetEMNS_10FOTBuilderEFvRKN6OpenSP6StringIjEEES6_"                  ; magicseg='TEXT32' len=100
  "__ZN14OpenJade_DSSSL14SaveFOTBuilder12extensionSetEMNS_10FOTBuilderEFvlEl"               ; magicseg='TEXT32' len=73
  "__ZThn8_N14OpenJade_DSSSL14SaveFOTBuilder12extensionSetEMNS_10FOTBuilderEFvlEl"          ; magicseg='TEXT32' len=78
  "__ZN14OpenJade_DSSSL14SaveFOTBuilder14startExtensionERKNS_10FOTBuilder24CompoundExtensionFlowObjERKN14OpenJade_Grove7NodePtrERN6OpenSP6VectorIPS1_EE"       ; magicseg='TEXT32' len=148
  "__ZN14OpenJade_DSSSL18StartExtensionCallC1ERKNS_10FOTBuilder24CompoundExtensionFlowObjERKN14OpenJade_Grove7NodePtrERN6OpenSP6VectorIPS1_EE"                 ; magicseg='TEXT32' len=138
  "__ZThn8_N14OpenJade_DSSSL14SaveFOTBuilder14startExtensionERKNS_10FOTBuilder24CompoundExtensionFlowObjERKN14OpenJade_Grove7NodePtrERN6OpenSP6VectorIPS1_EE"                                         ; magicseg='TEXT32' len=153
  "__ZN14OpenJade_DSSSL14SaveFOTBuilder12endExtensionERKNS_10FOTBuilder24CompoundExtensionFlowObjE"                       ; magicseg='TEXT32' len=95
  "__ZThn8_N14OpenJade_DSSSL14SaveFOTBuilder12endExtensionERKNS_10FOTBuilder24CompoundExtensionFlowObjE"                  ; magicseg='TEXT32' len=100
  "__ZN14OpenJade_DSSSL14SaveFOTBuilder9extensionERKNS_10FOTBuilder16ExtensionFlowObjERKN14OpenJade_Grove7NodePtrE"       ; magicseg='TEXT32' len=111
  "__ZN6OpenSP5OwnerIN14OpenJade_DSSSL10FOTBuilder16ExtensionFlowObjEED1Ev"                 ; magicseg='TEXT32' len=71
  "__ZThn8_N14OpenJade_DSSSL14SaveFOTBuilder9extensionERKNS_10FOTBuilder16ExtensionFlowObjERKN14OpenJade_Grove7NodePtrE"                                       ; magicseg='TEXT32' len=116
  "__ZN14OpenJade_DSSSL14SaveFOTBuilder14CharactersCallC2EPKjj"         ; magicseg='TEXT32' len=59
  "__ZN14OpenJade_DSSSL14SaveFOTBuilder14CharactersCall4emitERNS_10FOTBuilderE"             ; magicseg='TEXT32' len=75
  "__ZN14OpenJade_DSSSL27StartSimplePageSequenceCallC2EPPNS_10FOTBuilderE"                  ; magicseg='TEXT32' len=70
  "__ZN14OpenJade_DSSSL27StartSimplePageSequenceCall4emitERNS_10FOTBuilderE"                ; magicseg='TEXT32' len=72
  "__ZN14OpenJade_DSSSL26StartColumnSetSequenceCallC2ERKNS_10FOTBuilder10DisplayNICE"       ; magicseg='TEXT32' len=81
  "__ZN14OpenJade_DSSSL26StartColumnSetSequenceCall4emitERNS_10FOTBuilderE"                 ; magicseg='TEXT32' len=71
  "__ZN14OpenJade_DSSSL21StartEmbeddedTextCallC2ERKNS_10FOTBuilder15EmbeddedTextNICE"       ; magicseg='TEXT32' len=81
  "__ZN14OpenJade_DSSSL21StartEmbeddedTextCall4emitERNS_10FOTBuilderE"                      ; magicseg='TEXT32' len=66
  "__ZN14OpenJade_DSSSL30StartIncludedContainerAreaCallC2ERKNS_10FOTBuilder24IncludedContainerAreaNICE"                   ; magicseg='TEXT32' len=99
  "__ZN14OpenJade_DSSSL30StartIncludedContainerAreaCall4emitERNS_10FOTBuilderE"             ; magicseg='TEXT32' len=75
  "__ZN14OpenJade_DSSSL22StartAlignedColumnCallC2ERKNS_10FOTBuilder10DisplayNICE"           ; magicseg='TEXT32' len=77
  "__ZN14OpenJade_DSSSL22StartAlignedColumnCall4emitERNS_10FOTBuilderE"                     ; magicseg='TEXT32' len=67
  "__ZN14OpenJade_DSSSL28StartMultiLineInlineNoteCallC2ERKNS_10FOTBuilder22MultiLineInlineNoteNICEPPS1_"                  ; magicseg='TEXT32' len=100
  "__ZN14OpenJade_DSSSL28StartMultiLineInlineNoteCall4emitERNS_10FOTBuilderE"               ; magicseg='TEXT32' len=73
  "__ZN14OpenJade_DSSSL24StartEmphasizingMarkCallC2ERKNS_10FOTBuilder18EmphasizingMarkNICEPPS1_"                          ; magicseg='TEXT32' len=92
  "__ZN14OpenJade_DSSSL24StartEmphasizingMarkCall4emitERNS_10FOTBuilderE"                   ; magicseg='TEXT32' len=69
  "__ZN14OpenJade_DSSSL24StartGlyphAnnotationCallC2ERKNS_10FOTBuilder18GlyphAnnotationNICE"                               ; magicseg='TEXT32' len=87
  "__ZN14OpenJade_DSSSL24StartGlyphAnnotationCall4emitERNS_10FOTBuilderE"                   ; magicseg='TEXT32' len=69
  "__ZN14OpenJade_DSSSL19StartSideBySideCallC2ERKNS_10FOTBuilder10DisplayNICE"              ; magicseg='TEXT32' len=74
  "__ZN14OpenJade_DSSSL19StartSideBySideCall4emitERNS_10FOTBuilderE"    ; magicseg='TEXT32' len=64
  "__ZN14OpenJade_DSSSL17StartFractionCallC2ERPNS_10FOTBuilderES3_"     ; magicseg='TEXT32' len=63
  "__ZN14OpenJade_DSSSL17StartFractionCall4emitERNS_10FOTBuilderE"      ; magicseg='TEXT32' len=62
  "__ZN14OpenJade_DSSSL15StartScriptCallC2ERPNS_10FOTBuilderES3_S3_S3_S3_S3_"               ; magicseg='TEXT32' len=73
  "__ZN14OpenJade_DSSSL15StartScriptCall4emitERNS_10FOTBuilderE"        ; magicseg='TEXT32' len=60
  "__ZN14OpenJade_DSSSL13StartMarkCallC2ERPNS_10FOTBuilderES3_"         ; magicseg='TEXT32' len=59
  "__ZN14OpenJade_DSSSL13StartMarkCall4emitERNS_10FOTBuilderE"          ; magicseg='TEXT32' len=58
  "__ZN14OpenJade_DSSSL14StartFenceCallC2ERPNS_10FOTBuilderES3_"        ; magicseg='TEXT32' len=60
  "__ZN14OpenJade_DSSSL14StartFenceCall4emitERNS_10FOTBuilderE"         ; magicseg='TEXT32' len=59
  "__ZN14OpenJade_DSSSL16StartRadicalCallC2ERPNS_10FOTBuilderE"         ; magicseg='TEXT32' len=59
  "__ZN14OpenJade_DSSSL16StartRadicalCall4emitERNS_10FOTBuilderE"       ; magicseg='TEXT32' len=61
  "__ZN14OpenJade_DSSSL21StartMathOperatorCallC2ERPNS_10FOTBuilderES3_S3_"                  ; magicseg='TEXT32' len=70
  "__ZN14OpenJade_DSSSL21StartMathOperatorCall4emitERNS_10FOTBuilderE"                      ; magicseg='TEXT32' len=66
  "__ZN14OpenJade_DSSSL18StartMultiModeCallC2EPKNS_10FOTBuilder9MultiModeERKN6OpenSP6VectorIS2_EERNS6_IPS1_EE"            ; magicseg='TEXT32' len=106
  "__ZN6OpenSP6VectorIN14OpenJade_DSSSL10FOTBuilder9MultiModeEEC1ERKS4_"                    ; magicseg='TEXT32' len=68
  "__ZN6OpenSP6VectorIN14OpenJade_DSSSL10FOTBuilder9MultiModeEED1Ev"    ; magicseg='TEXT32' len=64
  "__ZN14OpenJade_DSSSL18StartMultiModeCall4emitERNS_10FOTBuilderE"     ; magicseg='TEXT32' len=63
  "__ZN6OpenSP6VectorIPN14OpenJade_DSSSL10FOTBuilderEE6appendEj"        ; magicseg='TEXT32' len=60
  "__ZN6OpenSP5OwnerIN14OpenJade_DSSSL14SaveFOTBuilderEED1Ev"           ; magicseg='TEXT32' len=57
  "__ZN6OpenSP6VectorIPN14OpenJade_DSSSL10FOTBuilderEED1Ev"             ; magicseg='TEXT32' len=55
  "__ZN14OpenJade_DSSSL14SaveFOTBuilder14StartTableCall4emitERNS_10FOTBuilderE"             ; magicseg='TEXT32' len=75
  "__ZN14OpenJade_DSSSL14SaveFOTBuilder15TableColumnCall4emitERNS_10FOTBuilderE"            ; magicseg='TEXT32' len=76
  "__ZN14OpenJade_DSSSL14SaveFOTBuilder18StartTableCellCall4emitERNS_10FOTBuilderE"         ; magicseg='TEXT32' len=79
  "__ZN14OpenJade_DSSSL18StartTablePartCallC2ERKNS_10FOTBuilder10DisplayNICERPS1_S6_"       ; magicseg='TEXT32' len=81
  "__ZN14OpenJade_DSSSL18StartTablePartCall4emitERNS_10FOTBuilderE"     ; magicseg='TEXT32' len=63
  "__ZN14OpenJade_DSSSL14SaveFOTBuilder18StartParagraphCallC2ERKNS_10FOTBuilder10DisplayNICE"                             ; magicseg='TEXT32' len=89
  "__ZN14OpenJade_DSSSL14SaveFOTBuilder18StartParagraphCall4emitERNS_10FOTBuilderE"         ; magicseg='TEXT32' len=79
  "__ZN14OpenJade_DSSSL14SaveFOTBuilder18ParagraphBreakCallC2ERKNS_10FOTBuilder10DisplayNICE"                             ; magicseg='TEXT32' len=89
  "__ZN14OpenJade_DSSSL14SaveFOTBuilder18ParagraphBreakCall4emitERNS_10FOTBuilderE"         ; magicseg='TEXT32' len=79
  "__ZN14OpenJade_DSSSL14SaveFOTBuilder21StartDisplayGroupCallC2ERKNS_10FOTBuilder15DisplayGroupNICE"                     ; magicseg='TEXT32' len=97
  "__ZN14OpenJade_DSSSL14SaveFOTBuilder21StartDisplayGroupCall4emitERNS_10FOTBuilderE"      ; magicseg='TEXT32' len=82
  "__ZN14OpenJade_DSSSL14SaveFOTBuilder19ExternalGraphicCall4emitERNS_10FOTBuilderE"        ; magicseg='TEXT32' len=80
  "__ZN14OpenJade_DSSSL14SaveFOTBuilder10AnchorCall4emitERNS_10FOTBuilderE"                 ; magicseg='TEXT32' len=71
  "__ZN14OpenJade_DSSSL14SaveFOTBuilder8RuleCall4emitERNS_10FOTBuilderE"                    ; magicseg='TEXT32' len=68
  "__ZN14OpenJade_DSSSL14SaveFOTBuilder15StartLeaderCall4emitERNS_10FOTBuilderE"            ; magicseg='TEXT32' len=76
  "__ZN14OpenJade_DSSSL14SaveFOTBuilder12StartBoxCall4emitERNS_10FOTBuilderE"               ; magicseg='TEXT32' len=73
  "__ZN14OpenJade_DSSSL14SaveFOTBuilder18StartLineFieldCall4emitERNS_10FOTBuilderE"         ; magicseg='TEXT32' len=79
  "__ZN14OpenJade_DSSSL14SaveFOTBuilder13StartLinkCall4emitERNS_10FOTBuilderE"              ; magicseg='TEXT32' len=74
  "__ZN14OpenJade_DSSSL14SaveFOTBuilder22SetGlyphSubstTableCall4emitERNS_10FOTBuilderE"     ; magicseg='TEXT32' len=83
  "__ZN14OpenJade_DSSSL14SaveFOTBuilder13StartGridCall4emitERNS_10FOTBuilderE"              ; magicseg='TEXT32' len=74
  "__ZN14OpenJade_DSSSL14SaveFOTBuilder17StartGridCellCall4emitERNS_10FOTBuilderE"          ; magicseg='TEXT32' len=78
  "__ZN14OpenJade_DSSSL14SaveFOTBuilder18RadicalRadicalCall4emitERNS_10FOTBuilderE"         ; magicseg='TEXT32' len=79
  "__ZN14OpenJade_DSSSL14SaveFOTBuilder13ExtensionCall4emitERNS_10FOTBuilderE"              ; magicseg='TEXT32' len=74
  "__ZN14OpenJade_DSSSL14SaveFOTBuilder16EndExtensionCall4emitERNS_10FOTBuilderE"           ; magicseg='TEXT32' len=77
  "__ZN14OpenJade_DSSSL18StartExtensionCallC2ERKNS_10FOTBuilder24CompoundExtensionFlowObjERKN14OpenJade_Grove7NodePtrERN6OpenSP6VectorIPS1_EE"                 ; magicseg='TEXT32' len=138
  "__ZN6OpenSP5OwnerIN14OpenJade_DSSSL10FOTBuilder24CompoundExtensionFlowObjEED1Ev"         ; magicseg='TEXT32' len=79
  "__ZN14OpenJade_DSSSL18StartExtensionCall4emitERNS_10FOTBuilderE"     ; magicseg='TEXT32' len=63
  "__ZN14OpenJade_DSSSL16SerialFOTBuilderC2Ev"                          ; magicseg='TEXT32' len=42
  "__ZN14OpenJade_DSSSL16SerialFOTBuilderC1Ev"                          ; magicseg='TEXT32' len=42
  "__ZN14OpenJade_DSSSL16SerialFOTBuilder23startSimplePageSequenceEPPNS_10FOTBuilderE"      ; magicseg='TEXT32' len=82
  "__ZN14OpenJade_DSSSL16SerialFOTBuilder33endSimplePageSequenceHeaderFooterEv"             ; magicseg='TEXT32' len=75
  "__ZN6OpenSP5OwnerIN14OpenJade_DSSSL14SaveFOTBuilderEE3delEv"         ; magicseg='TEXT32' len=59
  "__ZN14OpenJade_DSSSL16SerialFOTBuilder21endSimplePageSequenceEv"     ; magicseg='TEXT32' len=63
  "__ZN14OpenJade_DSSSL16SerialFOTBuilder22startColumnSetSequenceERKNS_10FOTBuilder10DisplayNICE"                         ; magicseg='TEXT32' len=93
  "__ZN14OpenJade_DSSSL16SerialFOTBuilder20endColumnSetSequenceEv"      ; magicseg='TEXT32' len=62
  "__ZN14OpenJade_DSSSL16SerialFOTBuilder17startPageSequenceEv"         ; magicseg='TEXT32' len=59
  "__ZN14OpenJade_DSSSL16SerialFOTBuilder15endPageSequenceEv"           ; magicseg='TEXT32' len=57
  "__ZN14OpenJade_DSSSL16SerialFOTBuilder24startMultiLineInlineNoteERKNS_10FOTBuilder22MultiLineInlineNoteNICEPPS1_"      ; magicseg='TEXT32' len=112
  "__ZN14OpenJade_DSSSL16SerialFOTBuilder22endMultiLineInlineNoteEv"    ; magicseg='TEXT32' len=64
  "__ZN14OpenJade_DSSSL16SerialFOTBuilder31endMultiLineInlineNoteOpenCloseEv"               ; magicseg='TEXT32' len=73
  "__ZN14OpenJade_DSSSL16SerialFOTBuilder20startEmphasizingMarkERKNS_10FOTBuilder18EmphasizingMarkNICEPPS1_"              ; magicseg='TEXT32' len=104
  "__ZN14OpenJade_DSSSL16SerialFOTBuilder20endEmphasizingMarkEMEv"      ; magicseg='TEXT32' len=62
  "__ZN14OpenJade_DSSSL16SerialFOTBuilder18endEmphasizingMarkEv"        ; magicseg='TEXT32' len=60
  "__ZN14OpenJade_DSSSL16SerialFOTBuilder13startFractionERPNS_10FOTBuilderES3_"             ; magicseg='TEXT32' len=75
  "__ZN14OpenJade_DSSSL16SerialFOTBuilder11endFractionEv"               ; magicseg='TEXT32' len=53
  "__ZN14OpenJade_DSSSL16SerialFOTBuilder11startScriptERPNS_10FOTBuilderES3_S3_S3_S3_S3_"                                 ; magicseg='TEXT32' len=85
  "__ZN14OpenJade_DSSSL16SerialFOTBuilder9endScriptEv"                  ; magicseg='TEXT32' len=50
  "__ZN14OpenJade_DSSSL16SerialFOTBuilder9startMarkERPNS_10FOTBuilderES3_"                  ; magicseg='TEXT32' len=70
  "__ZN14OpenJade_DSSSL16SerialFOTBuilder7endMarkEv"                    ; magicseg='TEXT32' len=48
  "__ZN14OpenJade_DSSSL16SerialFOTBuilder10startFenceERPNS_10FOTBuilderES3_"                ; magicseg='TEXT32' len=72
  "__ZN14OpenJade_DSSSL16SerialFOTBuilder8endFenceEv"                   ; magicseg='TEXT32' len=49
  "__ZN14OpenJade_DSSSL16SerialFOTBuilder12startRadicalERPNS_10FOTBuilderE"                 ; magicseg='TEXT32' len=71
  "__ZN14OpenJade_DSSSL16SerialFOTBuilder10endRadicalEv"                ; magicseg='TEXT32' len=52
  "__ZN14OpenJade_DSSSL16SerialFOTBuilder17startMathOperatorERPNS_10FOTBuilderES3_S3_"      ; magicseg='TEXT32' len=82
  "__ZN14OpenJade_DSSSL16SerialFOTBuilder15endMathOperatorEv"           ; magicseg='TEXT32' len=57
  "__ZN14OpenJade_DSSSL16SerialFOTBuilder29startSimplePageSequenceSerialEv"                 ; magicseg='TEXT32' len=71
  "__ZN14OpenJade_DSSSL16SerialFOTBuilder27endSimplePageSequenceSerialEv"                   ; magicseg='TEXT32' len=69
  "__ZN14OpenJade_DSSSL16SerialFOTBuilder35startSimplePageSequenceHeaderFooterEj"           ; magicseg='TEXT32' len=77
  "__ZN14OpenJade_DSSSL16SerialFOTBuilder33endSimplePageSequenceHeaderFooterEj"             ; magicseg='TEXT32' len=75
  "__ZN14OpenJade_DSSSL16SerialFOTBuilder36endAllSimplePageSequenceHeaderFooterEv"          ; magicseg='TEXT32' len=78
  "__ZN14OpenJade_DSSSL16SerialFOTBuilder28startColumnSetSequenceSerialERKNS_10FOTBuilder10DisplayNICE"                   ; magicseg='TEXT32' len=99
  "__ZN14OpenJade_DSSSL16SerialFOTBuilder26endColumnSetSequenceSerialEv"                    ; magicseg='TEXT32' len=68
  "__ZN14OpenJade_DSSSL16SerialFOTBuilder23startPageSequenceSerialEv"                       ; magicseg='TEXT32' len=65
  "__ZN14OpenJade_DSSSL16SerialFOTBuilder21endPageSequenceSerialEv"     ; magicseg='TEXT32' len=63
  "__ZN14OpenJade_DSSSL16SerialFOTBuilder30startMultiLineInlineNoteSerialERKNS_10FOTBuilder22MultiLineInlineNoteNICE"     ; magicseg='TEXT32' len=113
  "__ZN14OpenJade_DSSSL16SerialFOTBuilder28endMultiLineInlineNoteSerialEv"                  ; magicseg='TEXT32' len=70
  "__ZN14OpenJade_DSSSL16SerialFOTBuilder33startMultiLineInlineNoteOpenCloseEi"             ; magicseg='TEXT32' len=75
  "__ZN14OpenJade_DSSSL16SerialFOTBuilder31endMultiLineInlineNoteOpenCloseEi"               ; magicseg='TEXT32' len=73
  "__ZN14OpenJade_DSSSL16SerialFOTBuilder34endAllMultiLineInlineNoteOpenCloseEv"            ; magicseg='TEXT32' len=76
  "__ZN14OpenJade_DSSSL16SerialFOTBuilder26startEmphasizingMarkSerialERKNS_10FOTBuilder18EmphasizingMarkNICE"             ; magicseg='TEXT32' len=105
  "__ZN14OpenJade_DSSSL16SerialFOTBuilder24endEmphasizingMarkSerialEv"                      ; magicseg='TEXT32' len=66
  "__ZN14OpenJade_DSSSL16SerialFOTBuilder24startEmphasizingMarkMarkEv"                      ; magicseg='TEXT32' len=66
  "__ZN14OpenJade_DSSSL16SerialFOTBuilder22endEmphasizingMarkMarkEv"    ; magicseg='TEXT32' len=64
  "__ZN14OpenJade_DSSSL16SerialFOTBuilder25endAllEmphasizingMarkMarkEv"                     ; magicseg='TEXT32' len=67
  "__ZN14OpenJade_DSSSL16SerialFOTBuilder19startFractionSerialEv"       ; magicseg='TEXT32' len=61
  "__ZN14OpenJade_DSSSL16SerialFOTBuilder17endFractionSerialEv"         ; magicseg='TEXT32' len=59
  "__ZN14OpenJade_DSSSL16SerialFOTBuilder22startFractionNumeratorEv"    ; magicseg='TEXT32' len=64
  "__ZN14OpenJade_DSSSL16SerialFOTBuilder20endFractionNumeratorEv"      ; magicseg='TEXT32' len=62
  "__ZN14OpenJade_DSSSL16SerialFOTBuilder24startFractionDenominatorEv"                      ; magicseg='TEXT32' len=66
  "__ZN14OpenJade_DSSSL16SerialFOTBuilder22endFractionDenominatorEv"    ; magicseg='TEXT32' len=64
  "__ZN14OpenJade_DSSSL16SerialFOTBuilder17startScriptSerialEv"         ; magicseg='TEXT32' len=59
  "__ZN14OpenJade_DSSSL16SerialFOTBuilder15endScriptSerialEv"           ; magicseg='TEXT32' len=57
  "__ZN14OpenJade_DSSSL16SerialFOTBuilder17startScriptPreSupEv"         ; magicseg='TEXT32' len=59
  "__ZN14OpenJade_DSSSL16SerialFOTBuilder15endScriptPreSupEv"           ; magicseg='TEXT32' len=57
  "__ZN14OpenJade_DSSSL16SerialFOTBuilder17startScriptPreSubEv"         ; magicseg='TEXT32' len=59
  "__ZN14OpenJade_DSSSL16SerialFOTBuilder15endScriptPreSubEv"           ; magicseg='TEXT32' len=57
  "__ZN14OpenJade_DSSSL16SerialFOTBuilder18startScriptPostSupEv"        ; magicseg='TEXT32' len=60
  "__ZN14OpenJade_DSSSL16SerialFOTBuilder16endScriptPostSupEv"          ; magicseg='TEXT32' len=58
  "__ZN14OpenJade_DSSSL16SerialFOTBuilder18startScriptPostSubEv"        ; magicseg='TEXT32' len=60
  "__ZN14OpenJade_DSSSL16SerialFOTBuilder16endScriptPostSubEv"          ; magicseg='TEXT32' len=58
  "__ZN14OpenJade_DSSSL16SerialFOTBuilder17startScriptMidSupEv"         ; magicseg='TEXT32' len=59
  "__ZN14OpenJade_DSSSL16SerialFOTBuilder15endScriptMidSupEv"           ; magicseg='TEXT32' len=57
  "__ZN14OpenJade_DSSSL16SerialFOTBuilder17startScriptMidSubEv"         ; magicseg='TEXT32' len=59
  "__ZN14OpenJade_DSSSL16SerialFOTBuilder15endScriptMidSubEv"           ; magicseg='TEXT32' len=57
  "__ZN14OpenJade_DSSSL16SerialFOTBuilder15startMarkSerialEv"           ; magicseg='TEXT32' len=57
  "__ZN14OpenJade_DSSSL16SerialFOTBuilder13endMarkSerialEv"             ; magicseg='TEXT32' len=55
  "__ZN14OpenJade_DSSSL16SerialFOTBuilder13startMarkOverEv"             ; magicseg='TEXT32' len=55
  "__ZN14OpenJade_DSSSL16SerialFOTBuilder11endMarkOverEv"               ; magicseg='TEXT32' len=53
  "__ZN14OpenJade_DSSSL16SerialFOTBuilder14startMarkUnderEv"            ; magicseg='TEXT32' len=56
  "__ZN14OpenJade_DSSSL16SerialFOTBuilder12endMarkUnderEv"              ; magicseg='TEXT32' len=54
  "__ZN14OpenJade_DSSSL16SerialFOTBuilder16startFenceSerialEv"          ; magicseg='TEXT32' len=58
  "__ZN14OpenJade_DSSSL16SerialFOTBuilder14endFenceSerialEv"            ; magicseg='TEXT32' len=56
  "__ZN14OpenJade_DSSSL16SerialFOTBuilder14startFenceOpenEv"            ; magicseg='TEXT32' len=56
  "__ZN14OpenJade_DSSSL16SerialFOTBuilder12endFenceOpenEv"              ; magicseg='TEXT32' len=54
  "__ZN14OpenJade_DSSSL16SerialFOTBuilder15startFenceCloseEv"           ; magicseg='TEXT32' len=57
  "__ZN14OpenJade_DSSSL16SerialFOTBuilder13endFenceCloseEv"             ; magicseg='TEXT32' len=55
  "__ZN14OpenJade_DSSSL16SerialFOTBuilder18startRadicalSerialEv"        ; magicseg='TEXT32' len=60
  "__ZN14OpenJade_DSSSL16SerialFOTBuilder16endRadicalSerialEv"          ; magicseg='TEXT32' len=58
  "__ZN14OpenJade_DSSSL16SerialFOTBuilder18startRadicalDegreeEv"        ; magicseg='TEXT32' len=60
  "__ZN14OpenJade_DSSSL16SerialFOTBuilder16endRadicalDegreeEv"          ; magicseg='TEXT32' len=58
  "__ZN14OpenJade_DSSSL16SerialFOTBuilder23startMathOperatorSerialEv"                       ; magicseg='TEXT32' len=65
  "__ZN14OpenJade_DSSSL16SerialFOTBuilder21endMathOperatorSerialEv"     ; magicseg='TEXT32' len=63
  "__ZN14OpenJade_DSSSL16SerialFOTBuilder25startMathOperatorOperatorEv"                     ; magicseg='TEXT32' len=67
  "__ZN14OpenJade_DSSSL16SerialFOTBuilder23endMathOperatorOperatorEv"                       ; magicseg='TEXT32' len=65
  "__ZN14OpenJade_DSSSL16SerialFOTBuilder27startMathOperatorLowerLimitEv"                   ; magicseg='TEXT32' len=69
  "__ZN14OpenJade_DSSSL16SerialFOTBuilder25endMathOperatorLowerLimitEv"                     ; magicseg='TEXT32' len=67
  "__ZN14OpenJade_DSSSL16SerialFOTBuilder27startMathOperatorUpperLimitEv"                   ; magicseg='TEXT32' len=69
  "__ZN14OpenJade_DSSSL16SerialFOTBuilder25endMathOperatorUpperLimitEv"                     ; magicseg='TEXT32' len=67
  "__ZN14OpenJade_DSSSL16SerialFOTBuilder14startTablePartERKNS_10FOTBuilder10DisplayNICERPS1_S6_"                         ; magicseg='TEXT32' len=93
  "__ZN14OpenJade_DSSSL16SerialFOTBuilder12endTablePartEv"              ; magicseg='TEXT32' len=54
  "__ZN14OpenJade_DSSSL16SerialFOTBuilder20startTablePartSerialERKNS_10FOTBuilder10DisplayNICE"                           ; magicseg='TEXT32' len=91
  "__ZN14OpenJade_DSSSL16SerialFOTBuilder18endTablePartSerialEv"        ; magicseg='TEXT32' len=60
  "__ZN14OpenJade_DSSSL16SerialFOTBuilder20startTablePartHeaderEv"      ; magicseg='TEXT32' len=62
  "__ZN14OpenJade_DSSSL16SerialFOTBuilder18endTablePartHeaderEv"        ; magicseg='TEXT32' len=60
  "__ZN14OpenJade_DSSSL16SerialFOTBuilder20startTablePartFooterEv"      ; magicseg='TEXT32' len=62
  "__ZN14OpenJade_DSSSL16SerialFOTBuilder18endTablePartFooterEv"        ; magicseg='TEXT32' len=60
  "__ZN14OpenJade_DSSSL16SerialFOTBuilder14startMultiModeEPKNS_10FOTBuilder9MultiModeERKN6OpenSP6VectorIS2_EERNS6_IPS1_EE"                                     ; magicseg='TEXT32' len=118
  "__ZN6OpenSP6VectorINS0_IN14OpenJade_DSSSL10FOTBuilder9MultiModeEEEE8reserve1Ej"          ; magicseg='TEXT32' len=78
  "__ZN14OpenJade_DSSSL16SerialFOTBuilder12endMultiModeEv"              ; magicseg='TEXT32' len=54
  "__ZN6OpenSP6VectorINS0_IN14OpenJade_DSSSL10FOTBuilder9MultiModeEEEE6appendEj"            ; magicseg='TEXT32' len=76
  "__ZN6OpenSP6VectorINS0_IN14OpenJade_DSSSL10FOTBuilder9MultiModeEEEE5eraseEPKS4_S7_"      ; magicseg='TEXT32' len=82
  "__ZN14OpenJade_DSSSL16SerialFOTBuilder20startMultiModeSerialEPKNS_10FOTBuilder9MultiModeE"                             ; magicseg='TEXT32' len=89
  "__ZN14OpenJade_DSSSL16SerialFOTBuilder18endMultiModeSerialEv"        ; magicseg='TEXT32' len=60
  "__ZN14OpenJade_DSSSL16SerialFOTBuilder18startMultiModeModeERKNS_10FOTBuilder9MultiModeE"                               ; magicseg='TEXT32' len=87
  "__ZN14OpenJade_DSSSL16SerialFOTBuilder16endMultiModeModeEv"          ; magicseg='TEXT32' len=58
  "__ZN14OpenJade_DSSSL16SerialFOTBuilder14startExtensionERKNS_10FOTBuilder24CompoundExtensionFlowObjERKN14OpenJade_Grove7NodePtrERN6OpenSP6VectorIPS1_EE"     ; magicseg='TEXT32' len=150
  "__ZN14OpenJade_DSSSL16SerialFOTBuilder12endExtensionERKNS_10FOTBuilder24CompoundExtensionFlowObjE"                     ; magicseg='TEXT32' len=97
  "__ZN14OpenJade_DSSSL16SerialFOTBuilder20startExtensionSerialERKNS_10FOTBuilder24CompoundExtensionFlowObjERKN14OpenJade_Grove7NodePtrE"                      ; magicseg='TEXT32' len=133
  "__ZN14OpenJade_DSSSL16SerialFOTBuilder18endExtensionSerialERKNS_10FOTBuilder24CompoundExtensionFlowObjE"               ; magicseg='TEXT32' len=103
  "__ZN14OpenJade_DSSSL16SerialFOTBuilder20startExtensionStreamERKN6OpenSP6StringIjEE"      ; magicseg='TEXT32' len=82
  "__ZN14OpenJade_DSSSL16SerialFOTBuilder18endExtensionStreamERKN6OpenSP6StringIjEE"        ; magicseg='TEXT32' len=80
  "__ZN14OpenJade_DSSSL10FOTBuilder16ExtensionFlowObjD2Ev"              ; magicseg='TEXT32' len=54
  "__ZN14OpenJade_DSSSL10FOTBuilder16ExtensionFlowObjD1Ev"              ; magicseg='TEXT32' len=54
  "__ZN14OpenJade_DSSSL10FOTBuilder16ExtensionFlowObjD0Ev"              ; magicseg='TEXT32' len=54
  "__ZN14OpenJade_DSSSL10FOTBuilder16ExtensionFlowObj26asCompoundExtensionFlowObjEv"        ; magicseg='TEXT32' len=80
  "__ZNK14OpenJade_DSSSL10FOTBuilder16ExtensionFlowObj26asCompoundExtensionFlowObjEv"       ; magicseg='TEXT32' len=81
  "__ZNK14OpenJade_DSSSL10FOTBuilder16ExtensionFlowObj6hasNICERKN6OpenSP6StringIjEE"        ; magicseg='TEXT32' len=80
  "__ZN14OpenJade_DSSSL10FOTBuilder16ExtensionFlowObj6setNICERKN6OpenSP6StringIjEERKNS1_5ValueE"                          ; magicseg='TEXT32' len=92
  "__ZN14OpenJade_DSSSL10FOTBuilder24CompoundExtensionFlowObj26asCompoundExtensionFlowObjEv"                              ; magicseg='TEXT32' len=88
  "__ZNK14OpenJade_DSSSL10FOTBuilder24CompoundExtensionFlowObj26asCompoundExtensionFlowObjEv"                             ; magicseg='TEXT32' len=89
  "__ZNK14OpenJade_DSSSL10FOTBuilder24CompoundExtensionFlowObj16hasPrincipalPortEv"         ; magicseg='TEXT32' len=79
  "__ZNK14OpenJade_DSSSL10FOTBuilder24CompoundExtensionFlowObj9portNamesERN6OpenSP6VectorINS2_6StringIjEEEE"              ; magicseg='TEXT32' len=104
  "__ZN6OpenSP6VectorINS_8ConstPtrIN14OpenJade_DSSSL10FOTBuilder15GlyphSubstTableEEEE6insertEPKS5_S8_S8_"                 ; magicseg='TEXT32' len=101
  "__ZN6OpenSP6VectorIN14OpenJade_DSSSL10FOTBuilder9MultiModeEE6insertEPKS3_S6_S6_"         ; magicseg='TEXT32' len=79
  "__ZN6OpenSP6VectorIN14OpenJade_DSSSL10FOTBuilder9MultiModeEE5eraseEPKS3_S6_"             ; magicseg='TEXT32' len=75
  "__ZN6OpenSP6VectorIPN14OpenJade_DSSSL10FOTBuilderEE5eraseEPKS3_S6_"                      ; magicseg='TEXT32' len=66
  "__ZN6OpenSP6VectorIPN14OpenJade_DSSSL10FOTBuilderEE8reserve1Ej"      ; magicseg='TEXT32' len=62
  "__ZN6OpenSP6VectorINS_8ConstPtrIN14OpenJade_DSSSL10FOTBuilder15GlyphSubstTableEEEE8reserve1Ej"                         ; magicseg='TEXT32' len=93
  "__ZN6OpenSP6VectorIN14OpenJade_DSSSL10FOTBuilder9MultiModeEE8reserve1Ej"                 ; magicseg='TEXT32' len=71
  "__ZN6OpenSP5OwnerIN14OpenJade_DSSSL14SaveFOTBuilderEED0Ev"           ; magicseg='TEXT32' len=57
  "__ZN6OpenSP6VectorIPN14OpenJade_DSSSL10FOTBuilderEED0Ev"             ; magicseg='TEXT32' len=55
  "__ZN14OpenJade_DSSSL16SerialFOTBuilderD1Ev"                          ; magicseg='TEXT32' len=42
  "__ZN14OpenJade_DSSSL16SerialFOTBuilderD0Ev"                          ; magicseg='TEXT32' len=42
  "__ZN6OpenSP6VectorINS0_IN14OpenJade_DSSSL10FOTBuilder9MultiModeEEEED1Ev"                 ; magicseg='TEXT32' len=71
  "__ZN6OpenSP6VectorINS0_IN14OpenJade_DSSSL10FOTBuilder9MultiModeEEEED0Ev"                 ; magicseg='TEXT32' len=71
  "__ZN14OpenJade_DSSSL18StartExtensionCallD1Ev"                        ; magicseg='TEXT32' len=44
  "__ZN14OpenJade_DSSSL18StartExtensionCallD0Ev"                        ; magicseg='TEXT32' len=44
  "__ZN14OpenJade_DSSSL18StartMultiModeCallD1Ev"                        ; magicseg='TEXT32' len=44
  "__ZN14OpenJade_DSSSL18StartMultiModeCallD0Ev"                        ; magicseg='TEXT32' len=44
  "__ZN6OpenSP6VectorIN14OpenJade_DSSSL10FOTBuilder9MultiModeEED0Ev"    ; magicseg='TEXT32' len=64
  "__ZN14OpenJade_DSSSL18StartTablePartCallD1Ev"                        ; magicseg='TEXT32' len=44
  "__ZN14OpenJade_DSSSL18StartTablePartCallD0Ev"                        ; magicseg='TEXT32' len=44
  "__ZN14OpenJade_DSSSL21StartMathOperatorCallD1Ev"                     ; magicseg='TEXT32' len=47
  "__ZN14OpenJade_DSSSL21StartMathOperatorCallD0Ev"                     ; magicseg='TEXT32' len=47
  "__ZN14OpenJade_DSSSL16StartRadicalCallD1Ev"                          ; magicseg='TEXT32' len=42
  "__ZN14OpenJade_DSSSL16StartRadicalCallD0Ev"                          ; magicseg='TEXT32' len=42
  "__ZN14OpenJade_DSSSL14StartFenceCallD1Ev"                            ; magicseg='TEXT32' len=40
  "__ZN14OpenJade_DSSSL14StartFenceCallD0Ev"                            ; magicseg='TEXT32' len=40
  "__ZN14OpenJade_DSSSL13StartMarkCallD1Ev"                             ; magicseg='TEXT32' len=39
  "__ZN14OpenJade_DSSSL13StartMarkCallD0Ev"                             ; magicseg='TEXT32' len=39
  "__ZN14OpenJade_DSSSL15StartScriptCallD1Ev"                           ; magicseg='TEXT32' len=41
  "__ZN14OpenJade_DSSSL15StartScriptCallD0Ev"                           ; magicseg='TEXT32' len=41
  "__ZN14OpenJade_DSSSL17StartFractionCallD1Ev"                         ; magicseg='TEXT32' len=43
  "__ZN14OpenJade_DSSSL17StartFractionCallD0Ev"                         ; magicseg='TEXT32' len=43
  "__ZN14OpenJade_DSSSL19StartSideBySideCallD1Ev"                       ; magicseg='TEXT32' len=45
  "__ZN14OpenJade_DSSSL19StartSideBySideCallD0Ev"                       ; magicseg='TEXT32' len=45
  "__ZN14OpenJade_DSSSL24StartGlyphAnnotationCallD1Ev"                  ; magicseg='TEXT32' len=50
  "__ZN14OpenJade_DSSSL24StartGlyphAnnotationCallD0Ev"                  ; magicseg='TEXT32' len=50
  "__ZN14OpenJade_DSSSL24StartEmphasizingMarkCallD1Ev"                  ; magicseg='TEXT32' len=50
  "__ZN14OpenJade_DSSSL24StartEmphasizingMarkCallD0Ev"                  ; magicseg='TEXT32' len=50
  "__ZN14OpenJade_DSSSL28StartMultiLineInlineNoteCallD1Ev"              ; magicseg='TEXT32' len=54
  "__ZN14OpenJade_DSSSL28StartMultiLineInlineNoteCallD0Ev"              ; magicseg='TEXT32' len=54
  "__ZN14OpenJade_DSSSL22StartAlignedColumnCallD1Ev"                    ; magicseg='TEXT32' len=48
  "__ZN14OpenJade_DSSSL22StartAlignedColumnCallD0Ev"                    ; magicseg='TEXT32' len=48
  "__ZN14OpenJade_DSSSL30StartIncludedContainerAreaCallD1Ev"            ; magicseg='TEXT32' len=56
  "__ZN14OpenJade_DSSSL30StartIncludedContainerAreaCallD0Ev"            ; magicseg='TEXT32' len=56
  "__ZN14OpenJade_DSSSL21StartEmbeddedTextCallD1Ev"                     ; magicseg='TEXT32' len=47
  "__ZN14OpenJade_DSSSL21StartEmbeddedTextCallD0Ev"                     ; magicseg='TEXT32' len=47
  "__ZN14OpenJade_DSSSL26StartColumnSetSequenceCallD1Ev"                ; magicseg='TEXT32' len=52
  "__ZN14OpenJade_DSSSL26StartColumnSetSequenceCallD0Ev"                ; magicseg='TEXT32' len=52
  "__ZN14OpenJade_DSSSL27StartSimplePageSequenceCallD1Ev"               ; magicseg='TEXT32' len=53
  "__ZN14OpenJade_DSSSL27StartSimplePageSequenceCallD0Ev"               ; magicseg='TEXT32' len=53
  "__ZN14OpenJade_DSSSL14SaveFOTBuilder10AnchorCallD1Ev"                ; magicseg='TEXT32' len=52
  "__ZN14OpenJade_DSSSL14SaveFOTBuilder10AnchorCallD0Ev"                ; magicseg='TEXT32' len=52
  "__ZN14OpenJade_DSSSL14SaveFOTBuilder16EndExtensionCallD1Ev"          ; magicseg='TEXT32' len=58
  "__ZN14OpenJade_DSSSL14SaveFOTBuilder16EndExtensionCallD0Ev"          ; magicseg='TEXT32' len=58
  "__ZN6OpenSP5OwnerIN14OpenJade_DSSSL10FOTBuilder24CompoundExtensionFlowObjEED0Ev"         ; magicseg='TEXT32' len=79
  "__ZN14OpenJade_DSSSL14SaveFOTBuilder13ExtensionCallD1Ev"             ; magicseg='TEXT32' len=55
  "__ZN14OpenJade_DSSSL14SaveFOTBuilder13ExtensionCallD0Ev"             ; magicseg='TEXT32' len=55
  "__ZN6OpenSP5OwnerIN14OpenJade_DSSSL10FOTBuilder16ExtensionFlowObjEED0Ev"                 ; magicseg='TEXT32' len=71
  "__ZN14OpenJade_DSSSL14SaveFOTBuilder18RadicalRadicalCallD1Ev"        ; magicseg='TEXT32' len=60
  "__ZN14OpenJade_DSSSL14SaveFOTBuilder18RadicalRadicalCallD0Ev"        ; magicseg='TEXT32' len=60
  "__ZN14OpenJade_DSSSL14SaveFOTBuilder17StartGridCellCallD1Ev"         ; magicseg='TEXT32' len=59
  "__ZN14OpenJade_DSSSL14SaveFOTBuilder17StartGridCellCallD0Ev"         ; magicseg='TEXT32' len=59
  "__ZN14OpenJade_DSSSL14SaveFOTBuilder13StartGridCallD1Ev"             ; magicseg='TEXT32' len=55
  "__ZN14OpenJade_DSSSL14SaveFOTBuilder13StartGridCallD0Ev"             ; magicseg='TEXT32' len=55
  "__ZN14OpenJade_DSSSL14SaveFOTBuilder22SetGlyphSubstTableCallD1Ev"    ; magicseg='TEXT32' len=64
  "__ZN14OpenJade_DSSSL14SaveFOTBuilder22SetGlyphSubstTableCallD0Ev"    ; magicseg='TEXT32' len=64
  "__ZN6OpenSP6VectorINS_8ConstPtrIN14OpenJade_DSSSL10FOTBuilder15GlyphSubstTableEEEED1Ev"                                ; magicseg='TEXT32' len=86
  "__ZN6OpenSP6VectorINS_8ConstPtrIN14OpenJade_DSSSL10FOTBuilder15GlyphSubstTableEEEED0Ev"                                ; magicseg='TEXT32' len=86
  "__ZN14OpenJade_DSSSL14SaveFOTBuilder13StartLinkCallD1Ev"             ; magicseg='TEXT32' len=55
  "__ZN14OpenJade_DSSSL14SaveFOTBuilder13StartLinkCallD0Ev"             ; magicseg='TEXT32' len=55
  "__ZN14OpenJade_DSSSL14SaveFOTBuilder18StartTableCellCallD1Ev"        ; magicseg='TEXT32' len=60
  "__ZN14OpenJade_DSSSL14SaveFOTBuilder18StartTableCellCallD0Ev"        ; magicseg='TEXT32' len=60
  "__ZN14OpenJade_DSSSL14SaveFOTBuilder15TableColumnCallD1Ev"           ; magicseg='TEXT32' len=57
  "__ZN14OpenJade_DSSSL14SaveFOTBuilder15TableColumnCallD0Ev"           ; magicseg='TEXT32' len=57
  "__ZN14OpenJade_DSSSL14SaveFOTBuilder14StartTableCallD1Ev"            ; magicseg='TEXT32' len=56
  "__ZN14OpenJade_DSSSL14SaveFOTBuilder14StartTableCallD0Ev"            ; magicseg='TEXT32' len=56
  "__ZN14OpenJade_DSSSL14SaveFOTBuilder15StartLeaderCallD1Ev"           ; magicseg='TEXT32' len=57
  "__ZN14OpenJade_DSSSL14SaveFOTBuilder15StartLeaderCallD0Ev"           ; magicseg='TEXT32' len=57
  "__ZN14OpenJade_DSSSL14SaveFOTBuilder8RuleCallD1Ev"                   ; magicseg='TEXT32' len=49
  "__ZN14OpenJade_DSSSL14SaveFOTBuilder8RuleCallD0Ev"                   ; magicseg='TEXT32' len=49
  "__ZN14OpenJade_DSSSL14SaveFOTBuilder19ExternalGraphicCallD1Ev"       ; magicseg='TEXT32' len=61
  "__ZN14OpenJade_DSSSL14SaveFOTBuilder19ExternalGraphicCallD0Ev"       ; magicseg='TEXT32' len=61
  "__ZN14OpenJade_DSSSL14SaveFOTBuilder18StartLineFieldCallD1Ev"        ; magicseg='TEXT32' len=60
  "__ZN14OpenJade_DSSSL14SaveFOTBuilder18StartLineFieldCallD0Ev"        ; magicseg='TEXT32' len=60
  "__ZN14OpenJade_DSSSL14SaveFOTBuilder12StartBoxCallD1Ev"              ; magicseg='TEXT32' len=54
  "__ZN14OpenJade_DSSSL14SaveFOTBuilder12StartBoxCallD0Ev"              ; magicseg='TEXT32' len=54
  "__ZN14OpenJade_DSSSL14SaveFOTBuilder21StartDisplayGroupCallD1Ev"     ; magicseg='TEXT32' len=63
  "__ZN14OpenJade_DSSSL14SaveFOTBuilder21StartDisplayGroupCallD0Ev"     ; magicseg='TEXT32' len=63
  "__ZN14OpenJade_DSSSL14SaveFOTBuilder18ParagraphBreakCallD1Ev"        ; magicseg='TEXT32' len=60
  "__ZN14OpenJade_DSSSL14SaveFOTBuilder18ParagraphBreakCallD0Ev"        ; magicseg='TEXT32' len=60
  "__ZN14OpenJade_DSSSL14SaveFOTBuilder18StartParagraphCallD1Ev"        ; magicseg='TEXT32' len=60
  "__ZN14OpenJade_DSSSL14SaveFOTBuilder18StartParagraphCallD0Ev"        ; magicseg='TEXT32' len=60
  "__ZN14OpenJade_DSSSL14SaveFOTBuilder13StartNodeCallD1Ev"             ; magicseg='TEXT32' len=55
  "__ZN14OpenJade_DSSSL14SaveFOTBuilder13StartNodeCallD0Ev"             ; magicseg='TEXT32' len=55
  "__ZN14OpenJade_DSSSL14SaveFOTBuilder13CharacterCallD1Ev"             ; magicseg='TEXT32' len=55
  "__ZN14OpenJade_DSSSL14SaveFOTBuilder13CharacterCallD0Ev"             ; magicseg='TEXT32' len=55
  "__ZN14OpenJade_DSSSL14SaveFOTBuilder14CharactersCallD1Ev"            ; magicseg='TEXT32' len=56
  "__ZN14OpenJade_DSSSL14SaveFOTBuilder14CharactersCallD0Ev"            ; magicseg='TEXT32' len=56
  "__ZN14OpenJade_DSSSL14SaveFOTBuilder22CharactersFromNodeCallD1Ev"    ; magicseg='TEXT32' len=64
  "__ZN14OpenJade_DSSSL14SaveFOTBuilder22CharactersFromNodeCallD0Ev"    ; magicseg='TEXT32' len=64
  "__ZN14OpenJade_DSSSL14SaveFOTBuilder18InlineSpaceArgCallD1Ev"        ; magicseg='TEXT32' len=60
  "__ZN14OpenJade_DSSSL14SaveFOTBuilder18InlineSpaceArgCallD0Ev"        ; magicseg='TEXT32' len=60
  "__ZN14OpenJade_DSSSL14SaveFOTBuilder21DeviceRGBColorArgCallD1Ev"     ; magicseg='TEXT32' len=63
  "__ZN14OpenJade_DSSSL14SaveFOTBuilder21DeviceRGBColorArgCallD0Ev"     ; magicseg='TEXT32' len=63
  "__ZN14OpenJade_DSSSL14SaveFOTBuilder15UnsignedArgCallD1Ev"           ; magicseg='TEXT32' len=57
  "__ZN14OpenJade_DSSSL14SaveFOTBuilder15UnsignedArgCallD0Ev"           ; magicseg='TEXT32' len=57
  "__ZN14OpenJade_DSSSL14SaveFOTBuilder15PublicIdArgCallD1Ev"           ; magicseg='TEXT32' len=57
  "__ZN14OpenJade_DSSSL14SaveFOTBuilder15PublicIdArgCallD0Ev"           ; magicseg='TEXT32' len=57
  "__ZN14OpenJade_DSSSL14SaveFOTBuilder13SymbolArgCallD1Ev"             ; magicseg='TEXT32' len=55
  "__ZN14OpenJade_DSSSL14SaveFOTBuilder13SymbolArgCallD0Ev"             ; magicseg='TEXT32' len=55
  "__ZN14OpenJade_DSSSL14SaveFOTBuilder20ExtensionBoolArgCallD1Ev"      ; magicseg='TEXT32' len=62
  "__ZN14OpenJade_DSSSL14SaveFOTBuilder20ExtensionBoolArgCallD0Ev"      ; magicseg='TEXT32' len=62
  "__ZN14OpenJade_DSSSL14SaveFOTBuilder11BoolArgCallD1Ev"               ; magicseg='TEXT32' len=53
  "__ZN14OpenJade_DSSSL14SaveFOTBuilder11BoolArgCallD0Ev"               ; magicseg='TEXT32' len=53
  "__ZN14OpenJade_DSSSL14SaveFOTBuilder11CharArgCallD1Ev"               ; magicseg='TEXT32' len=53
  "__ZN14OpenJade_DSSSL14SaveFOTBuilder11CharArgCallD0Ev"               ; magicseg='TEXT32' len=53
  "__ZN14OpenJade_DSSSL14SaveFOTBuilder22ExtensionStringArgCallD1Ev"    ; magicseg='TEXT32' len=64
  "__ZN14OpenJade_DSSSL14SaveFOTBuilder22ExtensionStringArgCallD0Ev"    ; magicseg='TEXT32' len=64
  "__ZN14OpenJade_DSSSL14SaveFOTBuilder13StringArgCallD1Ev"             ; magicseg='TEXT32' len=55
  "__ZN14OpenJade_DSSSL14SaveFOTBuilder13StringArgCallD0Ev"             ; magicseg='TEXT32' len=55
  "__ZN14OpenJade_DSSSL14SaveFOTBuilder14NodePtrArgCallD1Ev"            ; magicseg='TEXT32' len=56
  "__ZN14OpenJade_DSSSL14SaveFOTBuilder14NodePtrArgCallD0Ev"            ; magicseg='TEXT32' len=56
  "__ZN14OpenJade_DSSSL14SaveFOTBuilder20OptLengthSpecArgCallD1Ev"      ; magicseg='TEXT32' len=62
  "__ZN14OpenJade_DSSSL14SaveFOTBuilder20OptLengthSpecArgCallD0Ev"      ; magicseg='TEXT32' len=62
  "__ZN14OpenJade_DSSSL14SaveFOTBuilder17LengthSpecArgCallD1Ev"         ; magicseg='TEXT32' len=59
  "__ZN14OpenJade_DSSSL14SaveFOTBuilder17LengthSpecArgCallD0Ev"         ; magicseg='TEXT32' len=59
  "__ZN14OpenJade_DSSSL14SaveFOTBuilder20ExtensionLongArgCallD1Ev"      ; magicseg='TEXT32' len=62
  "__ZN14OpenJade_DSSSL14SaveFOTBuilder20ExtensionLongArgCallD0Ev"      ; magicseg='TEXT32' len=62
  "__ZN14OpenJade_DSSSL14SaveFOTBuilder11LongArgCallD1Ev"               ; magicseg='TEXT32' len=53
  "__ZN14OpenJade_DSSSL14SaveFOTBuilder11LongArgCallD0Ev"               ; magicseg='TEXT32' len=53
  "__ZN14OpenJade_DSSSL14SaveFOTBuilder9NoArgCallD1Ev"                  ; magicseg='TEXT32' len=50
  "__ZN14OpenJade_DSSSL14SaveFOTBuilder9NoArgCallD0Ev"                  ; magicseg='TEXT32' len=50
  "__ZN14OpenJade_DSSSL10FOTBuilder24CompoundExtensionFlowObjD1Ev"      ; magicseg='TEXT32' len=62
  "__ZN14OpenJade_DSSSL10FOTBuilder24CompoundExtensionFlowObjD0Ev"      ; magicseg='TEXT32' len=62
  "__ZN6OpenSP6VectorINS_8ConstPtrIN14OpenJade_DSSSL10FOTBuilder15GlyphSubstTableEEEE5eraseEPKS5_S8_"                     ; magicseg='TEXT32' len=97
  "__ZTSN14OpenJade_DSSSL10FOTBuilder16ExtensionFlowObjE"               ; magicseg='TEXT32' len=53
  "__ZTSN14OpenJade_DSSSL10FOTBuilder24CompoundExtensionFlowObjE"       ; magicseg='TEXT32' len=61
  "__ZTSN14OpenJade_DSSSL10FOTBuilderE"                                 ; magicseg='TEXT32' len=35
  "__ZTSN14OpenJade_DSSSL14SaveFOTBuilder4CallE"                        ; magicseg='TEXT32' len=44
  "__ZTSN14OpenJade_DSSSL14SaveFOTBuilder9NoArgCallE"                   ; magicseg='TEXT32' len=49
  "__ZTSN14OpenJade_DSSSL14SaveFOTBuilder11LongArgCallE"                ; magicseg='TEXT32' len=52
  "__ZTSN14OpenJade_DSSSL14SaveFOTBuilder20ExtensionLongArgCallE"       ; magicseg='TEXT32' len=61
  "__ZTSN14OpenJade_DSSSL14SaveFOTBuilder17LengthSpecArgCallE"          ; magicseg='TEXT32' len=58
  "__ZTSN14OpenJade_DSSSL14SaveFOTBuilder20OptLengthSpecArgCallE"       ; magicseg='TEXT32' len=61
  "__ZTSN14OpenJade_DSSSL14SaveFOTBuilder14NodePtrArgCallE"             ; magicseg='TEXT32' len=55
  "__ZTSN14OpenJade_DSSSL14SaveFOTBuilder13StringArgCallE"              ; magicseg='TEXT32' len=54
  "__ZTSN14OpenJade_DSSSL14SaveFOTBuilder22ExtensionStringArgCallE"     ; magicseg='TEXT32' len=63
  "__ZTSN14OpenJade_DSSSL14SaveFOTBuilder11CharArgCallE"                ; magicseg='TEXT32' len=52
  "__ZTSN14OpenJade_DSSSL14SaveFOTBuilder11BoolArgCallE"                ; magicseg='TEXT32' len=52
  "__ZTSN14OpenJade_DSSSL14SaveFOTBuilder20ExtensionBoolArgCallE"       ; magicseg='TEXT32' len=61
  "__ZTSN14OpenJade_DSSSL14SaveFOTBuilder13SymbolArgCallE"              ; magicseg='TEXT32' len=54
  "__ZTSN14OpenJade_DSSSL14SaveFOTBuilder15PublicIdArgCallE"            ; magicseg='TEXT32' len=56
  "__ZTSN14OpenJade_DSSSL14SaveFOTBuilder15UnsignedArgCallE"            ; magicseg='TEXT32' len=56
  "__ZTSN14OpenJade_DSSSL14SaveFOTBuilder21DeviceRGBColorArgCallE"      ; magicseg='TEXT32' len=62
  "__ZTSN14OpenJade_DSSSL14SaveFOTBuilder18InlineSpaceArgCallE"         ; magicseg='TEXT32' len=59
  "__ZTSN14OpenJade_DSSSL14SaveFOTBuilder22CharactersFromNodeCallE"     ; magicseg='TEXT32' len=63
  "__ZTSN14OpenJade_DSSSL14SaveFOTBuilder14CharactersCallE"             ; magicseg='TEXT32' len=55
  "__ZTSN14OpenJade_DSSSL14SaveFOTBuilder13CharacterCallE"              ; magicseg='TEXT32' len=54
  "__ZTSN14OpenJade_DSSSL14SaveFOTBuilder13StartNodeCallE"              ; magicseg='TEXT32' len=54
  "__ZTSN14OpenJade_DSSSL14SaveFOTBuilder18StartParagraphCallE"         ; magicseg='TEXT32' len=59
  "__ZTSN14OpenJade_DSSSL14SaveFOTBuilder18ParagraphBreakCallE"         ; magicseg='TEXT32' len=59
  "__ZTSN14OpenJade_DSSSL14SaveFOTBuilder21StartDisplayGroupCallE"      ; magicseg='TEXT32' len=62
  "__ZTSN14OpenJade_DSSSL14SaveFOTBuilder12StartBoxCallE"               ; magicseg='TEXT32' len=53
  "__ZTSN14OpenJade_DSSSL14SaveFOTBuilder18StartLineFieldCallE"         ; magicseg='TEXT32' len=59
  "__ZTSN14OpenJade_DSSSL14SaveFOTBuilder19ExternalGraphicCallE"        ; magicseg='TEXT32' len=60
  "__ZTSN14OpenJade_DSSSL14SaveFOTBuilder8RuleCallE"                    ; magicseg='TEXT32' len=48
  "__ZTSN14OpenJade_DSSSL14SaveFOTBuilder15StartLeaderCallE"            ; magicseg='TEXT32' len=56
  "__ZTSN14OpenJade_DSSSL14SaveFOTBuilder14StartTableCallE"             ; magicseg='TEXT32' len=55
  "__ZTSN14OpenJade_DSSSL14SaveFOTBuilder15TableColumnCallE"            ; magicseg='TEXT32' len=56
  "__ZTSN14OpenJade_DSSSL14SaveFOTBuilder18StartTableCellCallE"         ; magicseg='TEXT32' len=59
  "__ZTSN14OpenJade_DSSSL14SaveFOTBuilder13StartLinkCallE"              ; magicseg='TEXT32' len=54
  "__ZTSN6OpenSP6VectorINS_8ConstPtrIN14OpenJade_DSSSL10FOTBuilder15GlyphSubstTableEEEEE"                                 ; magicseg='TEXT32' len=85
  "__ZTSN14OpenJade_DSSSL14SaveFOTBuilder22SetGlyphSubstTableCallE"     ; magicseg='TEXT32' len=63
  "__ZTSN14OpenJade_DSSSL14SaveFOTBuilder13StartGridCallE"              ; magicseg='TEXT32' len=54
  "__ZTSN14OpenJade_DSSSL14SaveFOTBuilder17StartGridCellCallE"          ; magicseg='TEXT32' len=58
  "__ZTSN14OpenJade_DSSSL14SaveFOTBuilder18RadicalRadicalCallE"         ; magicseg='TEXT32' len=59
  "__ZTSN6OpenSP5OwnerIN14OpenJade_DSSSL10FOTBuilder16ExtensionFlowObjEEE"                  ; magicseg='TEXT32' len=70
  "__ZTSN14OpenJade_DSSSL14SaveFOTBuilder13ExtensionCallE"              ; magicseg='TEXT32' len=54
  "__ZTSN6OpenSP5OwnerIN14OpenJade_DSSSL10FOTBuilder24CompoundExtensionFlowObjEEE"          ; magicseg='TEXT32' len=78
  "__ZTSN14OpenJade_DSSSL14SaveFOTBuilder16EndExtensionCallE"           ; magicseg='TEXT32' len=57
  "__ZTSN14OpenJade_DSSSL14SaveFOTBuilder10AnchorCallE"                 ; magicseg='TEXT32' len=51
  "__ZTSN14OpenJade_DSSSL14SaveFOTBuilderE"                             ; magicseg='TEXT32' len=39
  "__ZTSN14OpenJade_DSSSL27StartSimplePageSequenceCallE"                ; magicseg='TEXT32' len=52
  "__ZTSN14OpenJade_DSSSL26StartColumnSetSequenceCallE"                 ; magicseg='TEXT32' len=51
  "__ZTSN14OpenJade_DSSSL21StartEmbeddedTextCallE"                      ; magicseg='TEXT32' len=46
  "__ZTSN14OpenJade_DSSSL30StartIncludedContainerAreaCallE"             ; magicseg='TEXT32' len=55
  "__ZTSN14OpenJade_DSSSL22StartAlignedColumnCallE"                     ; magicseg='TEXT32' len=47
  "__ZTSN14OpenJade_DSSSL28StartMultiLineInlineNoteCallE"               ; magicseg='TEXT32' len=53
  "__ZTSN14OpenJade_DSSSL24StartEmphasizingMarkCallE"                   ; magicseg='TEXT32' len=49
  "__ZTSN14OpenJade_DSSSL24StartGlyphAnnotationCallE"                   ; magicseg='TEXT32' len=49
  "__ZTSN14OpenJade_DSSSL19StartSideBySideCallE"                        ; magicseg='TEXT32' len=44
  "__ZTSN14OpenJade_DSSSL17StartFractionCallE"                          ; magicseg='TEXT32' len=42
  "__ZTSN14OpenJade_DSSSL15StartScriptCallE"                            ; magicseg='TEXT32' len=40
  "__ZTSN14OpenJade_DSSSL13StartMarkCallE"                              ; magicseg='TEXT32' len=38
  "__ZTSN14OpenJade_DSSSL14StartFenceCallE"                             ; magicseg='TEXT32' len=39
  "__ZTSN14OpenJade_DSSSL16StartRadicalCallE"                           ; magicseg='TEXT32' len=41
  "__ZTSN14OpenJade_DSSSL21StartMathOperatorCallE"                      ; magicseg='TEXT32' len=46
  "__ZTSN14OpenJade_DSSSL18StartTablePartCallE"                         ; magicseg='TEXT32' len=43
  "__ZTSN6OpenSP6VectorIN14OpenJade_DSSSL10FOTBuilder9MultiModeEEE"     ; magicseg='TEXT32' len=63
  "__ZTSN14OpenJade_DSSSL18StartMultiModeCallE"                         ; magicseg='TEXT32' len=43
  "__ZTSN14OpenJade_DSSSL18StartExtensionCallE"                         ; magicseg='TEXT32' len=43
  "__ZTSN6OpenSP6VectorINS0_IN14OpenJade_DSSSL10FOTBuilder9MultiModeEEEEE"                  ; magicseg='TEXT32' len=70
  "__ZTSN14OpenJade_DSSSL16SerialFOTBuilderE"                           ; magicseg='TEXT32' len=41
  "__ZTSN6OpenSP6VectorIPN14OpenJade_DSSSL10FOTBuilderEEE"              ; magicseg='TEXT32' len=54
  "__ZTSN6OpenSP5OwnerIN14OpenJade_DSSSL14SaveFOTBuilderEEE"            ; magicseg='TEXT32' len=56
  "__ZN14OpenJade_DSSSL24ColumnSetSequenceFlowObj12processInnerERNS_14ProcessContextE"      ; magicseg='TEXT32' len=82
  "__ZNK14OpenJade_DSSSL24ColumnSetSequenceFlowObj4copyER9Collector"    ; magicseg='TEXT32' len=64
  "__ZN14OpenJade_DSSSL15CompoundFlowObjD2Ev"                           ; magicseg='TEXT32' len=41
  "__ZNK14OpenJade_DSSSL24ColumnSetSequenceFlowObj16hasNonInheritedCEPKNS_10IdentifierE"    ; magicseg='TEXT32' len=84
  "__ZN14OpenJade_DSSSL24ColumnSetSequenceFlowObj16setNonInheritedCEPKNS_10IdentifierEPNS_5ELObjERKN6OpenSP8LocationERNS_11InterpreterE"                       ; magicseg='TEXT32' len=132
  "__ZN14OpenJade_DSSSL24ColumnSetSequenceFlowObjD1Ev"                  ; magicseg='TEXT32' len=50
  "__ZN14OpenJade_DSSSL24ColumnSetSequenceFlowObjD0Ev"                  ; magicseg='TEXT32' len=50
  "__ZN6OpenSP5OwnerIN14OpenJade_DSSSL10FOTBuilder10DisplayNICEED1Ev"                       ; magicseg='TEXT32' len=65
  "__ZN6OpenSP5OwnerIN14OpenJade_DSSSL10FOTBuilder10DisplayNICEED0Ev"                       ; magicseg='TEXT32' len=65
  "__ZN14OpenJade_DSSSL15CompoundFlowObjD1Ev"                           ; magicseg='TEXT32' len=41
  "__ZN14OpenJade_DSSSL15CompoundFlowObjD0Ev"                           ; magicseg='TEXT32' len=41
  "__ZN14OpenJade_DSSSL7FlowObjD1Ev"                                    ; magicseg='TEXT32' len=32
  "__ZN14OpenJade_DSSSL7FlowObjD0Ev"                                    ; magicseg='TEXT32' len=32
  "__ZTSN6OpenSP5OwnerIN14OpenJade_DSSSL10FOTBuilder10DisplayNICEEE"    ; magicseg='TEXT32' len=64
  "__ZTSN14OpenJade_DSSSL24ColumnSetSequenceFlowObjE"                   ; magicseg='TEXT32' len=49
  "__ZN14OpenJade_DSSSL19PageSequenceFlowObjC2Ev"                       ; magicseg='TEXT32' len=45
  "__ZN14OpenJade_DSSSL19PageSequenceFlowObjC1Ev"                       ; magicseg='TEXT32' len=45
  "__ZN14OpenJade_DSSSL19PageSequenceFlowObjC2ERKS0_"                   ; magicseg='TEXT32' len=49
  "__ZN14OpenJade_DSSSL19PageSequenceFlowObjC1ERKS0_"                   ; magicseg='TEXT32' len=49
  "__ZNK14OpenJade_DSSSL19PageSequenceFlowObj15traceSubObjectsER9Collector"                 ; magicseg='TEXT32' len=71
  "__ZN14OpenJade_DSSSL19PageSequenceFlowObj12processInnerERNS_14ProcessContextE"           ; magicseg='TEXT32' len=77
  "__ZNK14OpenJade_DSSSL19PageSequenceFlowObj4copyER9Collector"         ; magicseg='TEXT32' len=59
  "__ZN14OpenJade_DSSSL19PageSequenceFlowObjD1Ev"                       ; magicseg='TEXT32' len=45
  "__ZN14OpenJade_DSSSL19PageSequenceFlowObjD0Ev"                       ; magicseg='TEXT32' len=45
  "__ZTSN14OpenJade_DSSSL19PageSequenceFlowObjE"                        ; magicseg='TEXT32' len=44
  "__ZN14OpenJade_DSSSL13AnchorFlowObj12processInnerERNS_14ProcessContextE"                 ; magicseg='TEXT32' len=71
  "__ZNK14OpenJade_DSSSL13AnchorFlowObj4copyER9Collector"               ; magicseg='TEXT32' len=53
  "__ZNK14OpenJade_DSSSL13AnchorFlowObj16hasNonInheritedCEPKNS_10IdentifierE"               ; magicseg='TEXT32' len=73
  "__ZN14OpenJade_DSSSL13AnchorFlowObj16setNonInheritedCEPKNS_10IdentifierEPNS_5ELObjERKN6OpenSP8LocationERNS_11InterpreterE"                                  ; magicseg='TEXT32' len=121
  "__ZN14OpenJade_DSSSL13AnchorFlowObjD1Ev"                             ; magicseg='TEXT32' len=39
  "__ZN14OpenJade_DSSSL13AnchorFlowObjD0Ev"                             ; magicseg='TEXT32' len=39
  "__ZN6OpenSP5OwnerIN14OpenJade_DSSSL10FOTBuilder9AnchorNICEED1Ev"     ; magicseg='TEXT32' len=63
  "__ZN6OpenSP5OwnerIN14OpenJade_DSSSL10FOTBuilder9AnchorNICEED0Ev"     ; magicseg='TEXT32' len=63
  "__ZTSN6OpenSP5OwnerIN14OpenJade_DSSSL10FOTBuilder9AnchorNICEEE"      ; magicseg='TEXT32' len=62
  "__ZTSN14OpenJade_DSSSL13AnchorFlowObjE"                              ; magicseg='TEXT32' len=38
  "__ZN14OpenJade_DSSSL19EmbeddedTextFlowObj12processInnerERNS_14ProcessContextE"           ; magicseg='TEXT32' len=77
  "__ZNK14OpenJade_DSSSL19EmbeddedTextFlowObj4copyER9Collector"         ; magicseg='TEXT32' len=59
  "__ZNK14OpenJade_DSSSL19EmbeddedTextFlowObj16hasNonInheritedCEPKNS_10IdentifierE"         ; magicseg='TEXT32' len=79
  "__ZN14OpenJade_DSSSL19EmbeddedTextFlowObj16setNonInheritedCEPKNS_10IdentifierEPNS_5ELObjERKN6OpenSP8LocationERNS_11InterpreterE"                            ; magicseg='TEXT32' len=127
  "__ZN14OpenJade_DSSSL19EmbeddedTextFlowObjD1Ev"                       ; magicseg='TEXT32' len=45
  "__ZN14OpenJade_DSSSL19EmbeddedTextFlowObjD0Ev"                       ; magicseg='TEXT32' len=45
  "__ZN6OpenSP5OwnerIN14OpenJade_DSSSL10FOTBuilder15EmbeddedTextNICEED1Ev"                  ; magicseg='TEXT32' len=70
  "__ZN6OpenSP5OwnerIN14OpenJade_DSSSL10FOTBuilder15EmbeddedTextNICEED0Ev"                  ; magicseg='TEXT32' len=70
  "__ZTSN6OpenSP5OwnerIN14OpenJade_DSSSL10FOTBuilder15EmbeddedTextNICEEE"                   ; magicseg='TEXT32' len=69
  "__ZTSN14OpenJade_DSSSL19EmbeddedTextFlowObjE"                        ; magicseg='TEXT32' len=44
  "__ZN14OpenJade_DSSSL28IncludedContainerAreaFlowObj12processInnerERNS_14ProcessContextE"                                ; magicseg='TEXT32' len=86
  "__ZNK14OpenJade_DSSSL28IncludedContainerAreaFlowObj4copyER9Collector"                    ; magicseg='TEXT32' len=68
  "__ZNK14OpenJade_DSSSL28IncludedContainerAreaFlowObj16hasNonInheritedCEPKNS_10IdentifierE"                              ; magicseg='TEXT32' len=88
  "__ZN14OpenJade_DSSSL28IncludedContainerAreaFlowObj16setNonInheritedCEPKNS_10IdentifierEPNS_5ELObjERKN6OpenSP8LocationERNS_11InterpreterE"                   ; magicseg='TEXT32' len=136
  "__ZN14OpenJade_DSSSL28IncludedContainerAreaFlowObjD1Ev"              ; magicseg='TEXT32' len=54
  "__ZN14OpenJade_DSSSL28IncludedContainerAreaFlowObjD0Ev"              ; magicseg='TEXT32' len=54
  "__ZN6OpenSP5OwnerIN14OpenJade_DSSSL10FOTBuilder24IncludedContainerAreaNICEED1Ev"         ; magicseg='TEXT32' len=79
  "__ZN6OpenSP5OwnerIN14OpenJade_DSSSL10FOTBuilder24IncludedContainerAreaNICEED0Ev"         ; magicseg='TEXT32' len=79
  "__ZTSN6OpenSP5OwnerIN14OpenJade_DSSSL10FOTBuilder24IncludedContainerAreaNICEEE"          ; magicseg='TEXT32' len=78
  "__ZTSN14OpenJade_DSSSL28IncludedContainerAreaFlowObjE"               ; magicseg='TEXT32' len=53
  "__ZN14OpenJade_DSSSL22GlyphAnnotationFlowObj12processInnerERNS_14ProcessContextE"        ; magicseg='TEXT32' len=80
  "__ZNK14OpenJade_DSSSL22GlyphAnnotationFlowObj4copyER9Collector"      ; magicseg='TEXT32' len=62
  "__ZNK14OpenJade_DSSSL22GlyphAnnotationFlowObj16hasNonInheritedCEPKNS_10IdentifierE"      ; magicseg='TEXT32' len=82
  "__ZN14OpenJade_DSSSL22GlyphAnnotationFlowObj16setNonInheritedCEPKNS_10IdentifierEPNS_5ELObjERKN6OpenSP8LocationERNS_11InterpreterE"                         ; magicseg='TEXT32' len=130
  "__ZN14OpenJade_DSSSL22GlyphAnnotationFlowObjD1Ev"                    ; magicseg='TEXT32' len=48
  "__ZN14OpenJade_DSSSL22GlyphAnnotationFlowObjD0Ev"                    ; magicseg='TEXT32' len=48
  "__ZN6OpenSP5OwnerIN14OpenJade_DSSSL10FOTBuilder18GlyphAnnotationNICEED1Ev"               ; magicseg='TEXT32' len=73
  "__ZN6OpenSP5OwnerIN14OpenJade_DSSSL10FOTBuilder18GlyphAnnotationNICEED0Ev"               ; magicseg='TEXT32' len=73
  "__ZTSN6OpenSP5OwnerIN14OpenJade_DSSSL10FOTBuilder18GlyphAnnotationNICEEE"                ; magicseg='TEXT32' len=72
  "__ZTSN14OpenJade_DSSSL22GlyphAnnotationFlowObjE"                     ; magicseg='TEXT32' len=47
  "__ZN14OpenJade_DSSSL17SideBySideFlowObjC2Ev"                         ; magicseg='TEXT32' len=43
  "__ZN14OpenJade_DSSSL17SideBySideFlowObjC1Ev"                         ; magicseg='TEXT32' len=43
  "__ZN14OpenJade_DSSSL17SideBySideFlowObjC2ERKS0_"                     ; magicseg='TEXT32' len=47
  "__ZN14OpenJade_DSSSL17SideBySideFlowObjC1ERKS0_"                     ; magicseg='TEXT32' len=47
  "__ZN14OpenJade_DSSSL17SideBySideFlowObj12processInnerERNS_14ProcessContextE"             ; magicseg='TEXT32' len=75
  "__ZNK14OpenJade_DSSSL17SideBySideFlowObj16hasNonInheritedCEPKNS_10IdentifierE"           ; magicseg='TEXT32' len=77
  "__ZN14OpenJade_DSSSL17SideBySideFlowObj16setNonInheritedCEPKNS_10IdentifierEPNS_5ELObjERKN6OpenSP8LocationERNS_11InterpreterE"                              ; magicseg='TEXT32' len=125
  "__ZNK14OpenJade_DSSSL17SideBySideFlowObj4copyER9Collector"           ; magicseg='TEXT32' len=57
  "__ZN14OpenJade_DSSSL17SideBySideFlowObjD1Ev"                         ; magicseg='TEXT32' len=43
  "__ZN14OpenJade_DSSSL17SideBySideFlowObjD0Ev"                         ; magicseg='TEXT32' len=43
  "__ZTSN14OpenJade_DSSSL17SideBySideFlowObjE"                          ; magicseg='TEXT32' len=42
  "__ZN14OpenJade_DSSSL21SideBySideItemFlowObj12processInnerERNS_14ProcessContextE"         ; magicseg='TEXT32' len=79
  "__ZNK14OpenJade_DSSSL21SideBySideItemFlowObj4copyER9Collector"       ; magicseg='TEXT32' len=61
  "__ZN14OpenJade_DSSSL21SideBySideItemFlowObjD1Ev"                     ; magicseg='TEXT32' len=47
  "__ZN14OpenJade_DSSSL21SideBySideItemFlowObjD0Ev"                     ; magicseg='TEXT32' len=47
  "__ZTSN14OpenJade_DSSSL21SideBySideItemFlowObjE"                      ; magicseg='TEXT32' len=46
  "__ZN14OpenJade_DSSSL20AlignedColumnFlowObj12processInnerERNS_14ProcessContextE"          ; magicseg='TEXT32' len=78
  "__ZNK14OpenJade_DSSSL20AlignedColumnFlowObj4copyER9Collector"        ; magicseg='TEXT32' len=60
  "__ZNK14OpenJade_DSSSL20AlignedColumnFlowObj16hasNonInheritedCEPKNS_10IdentifierE"        ; magicseg='TEXT32' len=80
  "__ZN14OpenJade_DSSSL20AlignedColumnFlowObj16setNonInheritedCEPKNS_10IdentifierEPNS_5ELObjERKN6OpenSP8LocationERNS_11InterpreterE"                           ; magicseg='TEXT32' len=128
  "__ZN14OpenJade_DSSSL20AlignedColumnFlowObjD1Ev"                      ; magicseg='TEXT32' len=46
  "__ZN14OpenJade_DSSSL20AlignedColumnFlowObjD0Ev"                      ; magicseg='TEXT32' len=46
  "__ZTSN14OpenJade_DSSSL20AlignedColumnFlowObjE"                       ; magicseg='TEXT32' len=45
  "__ZN14OpenJade_DSSSL26MultiLineInlineNoteFlowObj3NICC2Ev"            ; magicseg='TEXT32' len=56
  "__ZN14OpenJade_DSSSL26MultiLineInlineNoteFlowObj3NICC1Ev"            ; magicseg='TEXT32' len=56
  "__ZNK14OpenJade_DSSSL26MultiLineInlineNoteFlowObj15traceSubObjectsER9Collector"          ; magicseg='TEXT32' len=78
  "__ZN14OpenJade_DSSSL26MultiLineInlineNoteFlowObj12processInnerERNS_14ProcessContextE"    ; magicseg='TEXT32' len=84
  "__ZNK14OpenJade_DSSSL26MultiLineInlineNoteFlowObj4copyER9Collector"                      ; magicseg='TEXT32' len=66
  "__ZN6OpenSP5OwnerIN14OpenJade_DSSSL10FOTBuilder22MultiLineInlineNoteNICEED1Ev"           ; magicseg='TEXT32' len=77
  "__ZNK14OpenJade_DSSSL26MultiLineInlineNoteFlowObj16hasNonInheritedCEPKNS_10IdentifierE"                                ; magicseg='TEXT32' len=86
  "__ZN14OpenJade_DSSSL26MultiLineInlineNoteFlowObj16setNonInheritedCEPKNS_10IdentifierEPNS_5ELObjERKN6OpenSP8LocationERNS_11InterpreterE"                     ; magicseg='TEXT32' len=134
  "__ZN14OpenJade_DSSSL26MultiLineInlineNoteFlowObjD1Ev"                ; magicseg='TEXT32' len=52
  "__ZN14OpenJade_DSSSL26MultiLineInlineNoteFlowObjD0Ev"                ; magicseg='TEXT32' len=52
  "__ZN6OpenSP5OwnerIN14OpenJade_DSSSL26MultiLineInlineNoteFlowObj3NICEED1Ev"               ; magicseg='TEXT32' len=73
  "__ZN6OpenSP5OwnerIN14OpenJade_DSSSL26MultiLineInlineNoteFlowObj3NICEED0Ev"               ; magicseg='TEXT32' len=73
  "__ZN6OpenSP5OwnerIN14OpenJade_DSSSL10FOTBuilder22MultiLineInlineNoteNICEED0Ev"           ; magicseg='TEXT32' len=77
  "__ZTSN6OpenSP5OwnerIN14OpenJade_DSSSL10FOTBuilder22MultiLineInlineNoteNICEEE"            ; magicseg='TEXT32' len=76
  "__ZTSN6OpenSP5OwnerIN14OpenJade_DSSSL26MultiLineInlineNoteFlowObj3NICEEE"                ; magicseg='TEXT32' len=72
  "__ZTSN14OpenJade_DSSSL26MultiLineInlineNoteFlowObjE"                 ; magicseg='TEXT32' len=51
  "__ZNK14OpenJade_DSSSL22EmphasizingMarkFlowObj15traceSubObjectsER9Collector"              ; magicseg='TEXT32' len=74
  "__ZN14OpenJade_DSSSL22EmphasizingMarkFlowObj12processInnerERNS_14ProcessContextE"        ; magicseg='TEXT32' len=80
  "__ZNK14OpenJade_DSSSL22EmphasizingMarkFlowObj4copyER9Collector"      ; magicseg='TEXT32' len=62
  "__ZNK14OpenJade_DSSSL22EmphasizingMarkFlowObj16hasNonInheritedCEPKNS_10IdentifierE"      ; magicseg='TEXT32' len=82
  "__ZN14OpenJade_DSSSL22EmphasizingMarkFlowObj16setNonInheritedCEPKNS_10IdentifierEPNS_5ELObjERKN6OpenSP8LocationERNS_11InterpreterE"                         ; magicseg='TEXT32' len=130
  "__ZN14OpenJade_DSSSL22EmphasizingMarkFlowObjD1Ev"                    ; magicseg='TEXT32' len=48
  "__ZN14OpenJade_DSSSL22EmphasizingMarkFlowObjD0Ev"                    ; magicseg='TEXT32' len=48
  "__ZN6OpenSP5OwnerIN14OpenJade_DSSSL10FOTBuilder18EmphasizingMarkNICEED1Ev"               ; magicseg='TEXT32' len=73
  "__ZN6OpenSP5OwnerIN14OpenJade_DSSSL10FOTBuilder18EmphasizingMarkNICEED0Ev"               ; magicseg='TEXT32' len=73
  "__ZTSN6OpenSP5OwnerIN14OpenJade_DSSSL10FOTBuilder18EmphasizingMarkNICEEE"                ; magicseg='TEXT32' len=72
  "__ZTSN14OpenJade_DSSSL22EmphasizingMarkFlowObjE"                     ; magicseg='TEXT32' len=47
  "__ZN14OpenJade_DSSSL7FlowObjC2Ev"                                    ; magicseg='TEXT32' len=32
  "__ZN14OpenJade_DSSSL7FlowObjC1Ev"                                    ; magicseg='TEXT32' len=32
  "__ZN14OpenJade_DSSSL7FlowObj7processERNS_14ProcessContextE"          ; magicseg='TEXT32' len=58
  "__ZN14OpenJade_DSSSL7FlowObj9pushStyleERNS_14ProcessContextERj"      ; magicseg='TEXT32' len=62
  "__ZN6OpenSP3PtrIN14OpenJade_DSSSL7PopListEEC1ERKS3_"                 ; magicseg='TEXT32' len=51
  "__ZN6OpenSP3PtrIN14OpenJade_DSSSL7PopListEEaSEPS2_"                  ; magicseg='TEXT32' len=50
  "__ZN14OpenJade_DSSSL7FlowObj8popStyleERNS_14ProcessContextEj"        ; magicseg='TEXT32' len=60
  "__ZNK14OpenJade_DSSSL7FlowObj15traceSubObjectsER9Collector"          ; magicseg='TEXT32' len=58
  "__ZN14OpenJade_DSSSL7FlowObj17asCompoundFlowObjEv"                   ; magicseg='TEXT32' len=49
  "__ZNK14OpenJade_DSSSL7FlowObj16hasNonInheritedCEPKNS_10IdentifierE"                      ; magicseg='TEXT32' len=66
  "__ZNK14OpenJade_DSSSL7FlowObj22hasPseudoNonInheritedCEPKNS_10IdentifierE"                ; magicseg='TEXT32' len=72
  "__ZN14OpenJade_DSSSL7FlowObj16setNonInheritedCEPKNS_10IdentifierEPNS_5ELObjERKN6OpenSP8LocationERNS_11InterpreterE"    ; magicseg='TEXT32' len=114
  "__ZN14OpenJade_DSSSL7FlowObj12isDisplayNICEPKNS_10IdentifierE"       ; magicseg='TEXT32' len=61
  "__ZN14OpenJade_DSSSL7FlowObj13setDisplayNICERNS_10FOTBuilder10DisplayNICEPKNS_10IdentifierEPNS_5ELObjERKN6OpenSP8LocationERNS_11InterpreterE"               ; magicseg='TEXT32' len=140
  "__ZN14OpenJade_DSSSL15CompoundFlowObj12processInnerERNS_14ProcessContextE"               ; magicseg='TEXT32' len=73
  "__ZNK14OpenJade_DSSSL15CompoundFlowObj15traceSubObjectsER9Collector"                     ; magicseg='TEXT32' len=67
  "__ZN14OpenJade_DSSSL15CompoundFlowObj17asCompoundFlowObjEv"          ; magicseg='TEXT32' len=58
  "__ZN14OpenJade_DSSSL19DisplayGroupFlowObjC2Ev"                       ; magicseg='TEXT32' len=45
  "__ZN14OpenJade_DSSSL19DisplayGroupFlowObjC1Ev"                       ; magicseg='TEXT32' len=45
  "__ZN14OpenJade_DSSSL19DisplayGroupFlowObjC2ERKS0_"                   ; magicseg='TEXT32' len=49
  "__ZN14OpenJade_DSSSL19DisplayGroupFlowObjC1ERKS0_"                   ; magicseg='TEXT32' len=49
  "__ZN14OpenJade_DSSSL19DisplayGroupFlowObj12processInnerERNS_14ProcessContextE"           ; magicseg='TEXT32' len=77
  "__ZNK14OpenJade_DSSSL19DisplayGroupFlowObj16hasNonInheritedCEPKNS_10IdentifierE"         ; magicseg='TEXT32' len=79
  "__ZN14OpenJade_DSSSL19DisplayGroupFlowObj16setNonInheritedCEPKNS_10IdentifierEPNS_5ELObjERKN6OpenSP8LocationERNS_11InterpreterE"                            ; magicseg='TEXT32' len=127
  "__ZNK14OpenJade_DSSSL19DisplayGroupFlowObj4copyER9Collector"         ; magicseg='TEXT32' len=59
  "__ZN14OpenJade_DSSSL16ParagraphFlowObjC2Ev"                          ; magicseg='TEXT32' len=42
  "__ZN14OpenJade_DSSSL16ParagraphFlowObjC1Ev"                          ; magicseg='TEXT32' len=42
  "__ZN14OpenJade_DSSSL16ParagraphFlowObjC2ERKS0_"                      ; magicseg='TEXT32' len=46
  "__ZN14OpenJade_DSSSL16ParagraphFlowObjC1ERKS0_"                      ; magicseg='TEXT32' len=46
  "__ZN14OpenJade_DSSSL16ParagraphFlowObj12processInnerERNS_14ProcessContextE"              ; magicseg='TEXT32' len=74
  "__ZN14OpenJade_DSSSL16ParagraphFlowObj16setNonInheritedCEPKNS_10IdentifierEPNS_5ELObjERKN6OpenSP8LocationERNS_11InterpreterE"                               ; magicseg='TEXT32' len=124
  "__ZNK14OpenJade_DSSSL16ParagraphFlowObj16hasNonInheritedCEPKNS_10IdentifierE"            ; magicseg='TEXT32' len=76
  "__ZNK14OpenJade_DSSSL16ParagraphFlowObj4copyER9Collector"            ; magicseg='TEXT32' len=56
  "__ZN14OpenJade_DSSSL21ParagraphBreakFlowObjC2Ev"                     ; magicseg='TEXT32' len=47
  "__ZN14OpenJade_DSSSL21ParagraphBreakFlowObjC1Ev"                     ; magicseg='TEXT32' len=47
  "__ZN14OpenJade_DSSSL21ParagraphBreakFlowObjC2ERKS0_"                 ; magicseg='TEXT32' len=51
  "__ZN14OpenJade_DSSSL21ParagraphBreakFlowObjC1ERKS0_"                 ; magicseg='TEXT32' len=51
  "__ZNK14OpenJade_DSSSL21ParagraphBreakFlowObj4copyER9Collector"       ; magicseg='TEXT32' len=61
  "__ZN14OpenJade_DSSSL21ParagraphBreakFlowObj12processInnerERNS_14ProcessContextE"         ; magicseg='TEXT32' len=79
  "__ZN14OpenJade_DSSSL21ParagraphBreakFlowObj16setNonInheritedCEPKNS_10IdentifierEPNS_5ELObjERKN6OpenSP8LocationERNS_11InterpreterE"                          ; magicseg='TEXT32' len=129
  "__ZNK14OpenJade_DSSSL21ParagraphBreakFlowObj16hasNonInheritedCEPKNS_10IdentifierE"       ; magicseg='TEXT32' len=81
  "__ZN14OpenJade_DSSSL22ExternalGraphicFlowObjC2Ev"                    ; magicseg='TEXT32' len=48
  "__ZN14OpenJade_DSSSL22ExternalGraphicFlowObjC1Ev"                    ; magicseg='TEXT32' len=48
  "__ZN14OpenJade_DSSSL22ExternalGraphicFlowObjC2ERKS0_"                ; magicseg='TEXT32' len=52
  "__ZN14OpenJade_DSSSL22ExternalGraphicFlowObjC1ERKS0_"                ; magicseg='TEXT32' len=52
  "__ZN14OpenJade_DSSSL22ExternalGraphicFlowObj12processInnerERNS_14ProcessContextE"        ; magicseg='TEXT32' len=80
  "__ZN14OpenJade_DSSSL22ExternalGraphicFlowObj16setNonInheritedCEPKNS_10IdentifierEPNS_5ELObjERKN6OpenSP8LocationERNS_11InterpreterE"                         ; magicseg='TEXT32' len=130
  "__ZNK14OpenJade_DSSSL22ExternalGraphicFlowObj16hasNonInheritedCEPKNS_10IdentifierE"      ; magicseg='TEXT32' len=82
  "__ZNK14OpenJade_DSSSL22ExternalGraphicFlowObj4copyER9Collector"      ; magicseg='TEXT32' len=62
  "__ZN14OpenJade_DSSSL11RuleFlowObjC2Ev"                               ; magicseg='TEXT32' len=37
  "__ZN14OpenJade_DSSSL11RuleFlowObjC1Ev"                               ; magicseg='TEXT32' len=37
  "__ZN14OpenJade_DSSSL11RuleFlowObjC2ERKS0_"                           ; magicseg='TEXT32' len=41
  "__ZN14OpenJade_DSSSL11RuleFlowObjC1ERKS0_"                           ; magicseg='TEXT32' len=41
  "__ZN14OpenJade_DSSSL11RuleFlowObj12processInnerERNS_14ProcessContextE"                   ; magicseg='TEXT32' len=69
  "__ZN14OpenJade_DSSSL11RuleFlowObj16setNonInheritedCEPKNS_10IdentifierEPNS_5ELObjERKN6OpenSP8LocationERNS_11InterpreterE"                                    ; magicseg='TEXT32' len=119
  "__ZNK14OpenJade_DSSSL11RuleFlowObj16hasNonInheritedCEPKNS_10IdentifierE"                 ; magicseg='TEXT32' len=71
  "__ZNK14OpenJade_DSSSL11RuleFlowObj4copyER9Collector"                 ; magicseg='TEXT32' len=51
  "__ZNK14OpenJade_DSSSL21AlignmentPointFlowObj4copyER9Collector"       ; magicseg='TEXT32' len=61
  "__ZN14OpenJade_DSSSL21AlignmentPointFlowObj12processInnerERNS_14ProcessContextE"         ; magicseg='TEXT32' len=79
  "__ZNK14OpenJade_DSSSL15SidelineFlowObj4copyER9Collector"             ; magicseg='TEXT32' len=55
  "__ZN14OpenJade_DSSSL15SidelineFlowObj12processInnerERNS_14ProcessContextE"               ; magicseg='TEXT32' len=73
  "__ZN14OpenJade_DSSSL15SequenceFlowObj12processInnerERNS_14ProcessContextE"               ; magicseg='TEXT32' len=73
  "__ZNK14OpenJade_DSSSL15SequenceFlowObj4copyER9Collector"             ; magicseg='TEXT32' len=55
  "__ZNK14OpenJade_DSSSL16LineFieldFlowObj4copyER9Collector"            ; magicseg='TEXT32' len=56
  "__ZN14OpenJade_DSSSL16LineFieldFlowObj12processInnerERNS_14ProcessContextE"              ; magicseg='TEXT32' len=74
  "__ZN14OpenJade_DSSSL16LineFieldFlowObj16setNonInheritedCEPKNS_10IdentifierEPNS_5ELObjERKN6OpenSP8LocationERNS_11InterpreterE"                               ; magicseg='TEXT32' len=124
  "__ZNK14OpenJade_DSSSL16LineFieldFlowObj16hasNonInheritedCEPKNS_10IdentifierE"            ; magicseg='TEXT32' len=76
  "__ZN14OpenJade_DSSSL25SimplePageSequenceFlowObjC2Ev"                 ; magicseg='TEXT32' len=51
  "__ZN14OpenJade_DSSSL25SimplePageSequenceFlowObj12HeaderFooterC1Ev"                       ; magicseg='TEXT32' len=65
  "__ZN14OpenJade_DSSSL25SimplePageSequenceFlowObjC1Ev"                 ; magicseg='TEXT32' len=51
  "__ZN14OpenJade_DSSSL25SimplePageSequenceFlowObjC2ERKS0_"             ; magicseg='TEXT32' len=55
  "__ZN14OpenJade_DSSSL25SimplePageSequenceFlowObjC1ERKS0_"             ; magicseg='TEXT32' len=55
  "__ZNK14OpenJade_DSSSL25SimplePageSequenceFlowObj15traceSubObjectsER9Collector"           ; magicseg='TEXT32' len=77
  "__ZN14OpenJade_DSSSL25SimplePageSequenceFlowObj12processInnerERNS_14ProcessContextE"     ; magicseg='TEXT32' len=83
  "__ZN14OpenJade_DSSSL25SimplePageSequenceFlowObj16setNonInheritedCEPKNS_10IdentifierEPNS_5ELObjERKN6OpenSP8LocationERNS_11InterpreterE"                      ; magicseg='TEXT32' len=133
  "__ZNK14OpenJade_DSSSL25SimplePageSequenceFlowObj16hasNonInheritedCEPKNS_10IdentifierE"                                 ; magicseg='TEXT32' len=85
  "__ZNK14OpenJade_DSSSL25SimplePageSequenceFlowObj4copyER9Collector"                       ; magicseg='TEXT32' len=65
  "__ZN14OpenJade_DSSSL25SimplePageSequenceFlowObj12HeaderFooterC2Ev"                       ; magicseg='TEXT32' len=65
  "__ZN14OpenJade_DSSSL11LinkFlowObjC2Ev"                               ; magicseg='TEXT32' len=37
  "__ZN14OpenJade_DSSSL11LinkFlowObjC1Ev"                               ; magicseg='TEXT32' len=37
  "__ZN14OpenJade_DSSSL11LinkFlowObj12processInnerERNS_14ProcessContextE"                   ; magicseg='TEXT32' len=69
  "__ZNK14OpenJade_DSSSL11LinkFlowObj4copyER9Collector"                 ; magicseg='TEXT32' len=51
  "__ZNK14OpenJade_DSSSL11LinkFlowObj15traceSubObjectsER9Collector"     ; magicseg='TEXT32' len=63
  "__ZNK14OpenJade_DSSSL11LinkFlowObj16hasNonInheritedCEPKNS_10IdentifierE"                 ; magicseg='TEXT32' len=71
  "__ZN14OpenJade_DSSSL11LinkFlowObj16setNonInheritedCEPKNS_10IdentifierEPNS_5ELObjERKN6OpenSP8LocationERNS_11InterpreterE"                                    ; magicseg='TEXT32' len=119
  "__ZN14OpenJade_DSSSL13ScrollFlowObj12processInnerERNS_14ProcessContextE"                 ; magicseg='TEXT32' len=71
  "__ZNK14OpenJade_DSSSL13ScrollFlowObj4copyER9Collector"               ; magicseg='TEXT32' len=53
  "__ZN14OpenJade_DSSSL17MarginaliaFlowObj12processInnerERNS_14ProcessContextE"             ; magicseg='TEXT32' len=75
  "__ZNK14OpenJade_DSSSL17MarginaliaFlowObj4copyER9Collector"           ; magicseg='TEXT32' len=57
  "__ZN14OpenJade_DSSSL16MultiModeFlowObjC2Ev"                          ; magicseg='TEXT32' len=42
  "__ZN14OpenJade_DSSSL16MultiModeFlowObjC1Ev"                          ; magicseg='TEXT32' len=42
  "__ZN14OpenJade_DSSSL16MultiModeFlowObjC2ERKS0_"                      ; magicseg='TEXT32' len=46
  "__ZN14OpenJade_DSSSL16MultiModeFlowObjC1ERKS0_"                      ; magicseg='TEXT32' len=46
  "__ZN14OpenJade_DSSSL16MultiModeFlowObj12processInnerERNS_14ProcessContextE"              ; magicseg='TEXT32' len=74
  "__ZN6OpenSP6VectorIPN14OpenJade_DSSSL9SymbolObjEE6appendEj"          ; magicseg='TEXT32' len=58
  "__ZN6OpenSP6VectorIPN14OpenJade_DSSSL9SymbolObjEED1Ev"               ; magicseg='TEXT32' len=53
  "__ZNK14OpenJade_DSSSL16MultiModeFlowObj4copyER9Collector"            ; magicseg='TEXT32' len=56
  "__ZNK14OpenJade_DSSSL16MultiModeFlowObj16hasNonInheritedCEPKNS_10IdentifierE"            ; magicseg='TEXT32' len=76
  "__ZN14OpenJade_DSSSL16MultiModeFlowObj16setNonInheritedCEPKNS_10IdentifierEPNS_5ELObjERKN6OpenSP8LocationERNS_11InterpreterE"                               ; magicseg='TEXT32' len=124
  "__ZN14OpenJade_DSSSL16MultiModeFlowObj22handleMultiModesMemberEPKNS_10IdentifierEPNS_5ELObjERKN6OpenSP8LocationERNS_11InterpreterE"                         ; magicseg='TEXT32' len=130
  "__ZN6OpenSP6VectorIN14OpenJade_DSSSL10FOTBuilder9MultiModeEE6appendEj"                   ; magicseg='TEXT32' len=69
  "__ZN14OpenJade_DSSSL12ScoreFlowObjC2Ev"                              ; magicseg='TEXT32' len=38
  "__ZN14OpenJade_DSSSL12ScoreFlowObjC1Ev"                              ; magicseg='TEXT32' len=38
  "__ZNK14OpenJade_DSSSL12ScoreFlowObj4copyER9Collector"                ; magicseg='TEXT32' len=52
  "__ZN6OpenSP9CopyOwnerIN14OpenJade_DSSSL12ScoreFlowObj4TypeEEC1ERKS4_"                    ; magicseg='TEXT32' len=68
  "__ZN14OpenJade_DSSSL12ScoreFlowObj12processInnerERNS_14ProcessContextE"                  ; magicseg='TEXT32' len=70
  "__ZNK14OpenJade_DSSSL12ScoreFlowObj16hasNonInheritedCEPKNS_10IdentifierE"                ; magicseg='TEXT32' len=72
  "__ZN14OpenJade_DSSSL12ScoreFlowObj16setNonInheritedCEPKNS_10IdentifierEPNS_5ELObjERKN6OpenSP8LocationERNS_11InterpreterE"                                   ; magicseg='TEXT32' len=120
  "__ZN6OpenSP5OwnerIN14OpenJade_DSSSL12ScoreFlowObj4TypeEE3delEv"      ; magicseg='TEXT32' len=62
  "__ZN14OpenJade_DSSSL12ScoreFlowObj4TypeD2Ev"                         ; magicseg='TEXT32' len=43
  "__ZN14OpenJade_DSSSL12ScoreFlowObj4TypeD1Ev"                         ; magicseg='TEXT32' len=43
  "__ZN14OpenJade_DSSSL12ScoreFlowObj4TypeD0Ev"                         ; magicseg='TEXT32' len=43
  "__ZN14OpenJade_DSSSL12ScoreFlowObj10SymbolType5startERNS_10FOTBuilderE"                  ; magicseg='TEXT32' len=70
  "__ZN14OpenJade_DSSSL12ScoreFlowObj8CharType5startERNS_10FOTBuilderE"                     ; magicseg='TEXT32' len=67
  "__ZN14OpenJade_DSSSL12ScoreFlowObj14LengthSpecType5startERNS_10FOTBuilderE"              ; magicseg='TEXT32' len=74
  "__ZNK14OpenJade_DSSSL12ScoreFlowObj10SymbolType4copyEv"              ; magicseg='TEXT32' len=54
  "__ZNK14OpenJade_DSSSL12ScoreFlowObj14LengthSpecType4copyEv"          ; magicseg='TEXT32' len=58
  "__ZNK14OpenJade_DSSSL12ScoreFlowObj8CharType4copyEv"                 ; magicseg='TEXT32' len=51
  "__ZN14OpenJade_DSSSL10BoxFlowObjC2Ev"                                ; magicseg='TEXT32' len=36
  "__ZN14OpenJade_DSSSL10BoxFlowObjC1Ev"                                ; magicseg='TEXT32' len=36
  "__ZN14OpenJade_DSSSL10BoxFlowObjC2ERKS0_"                            ; magicseg='TEXT32' len=40
  "__ZN14OpenJade_DSSSL10BoxFlowObjC1ERKS0_"                            ; magicseg='TEXT32' len=40
  "__ZN14OpenJade_DSSSL10BoxFlowObj12processInnerERNS_14ProcessContextE"                    ; magicseg='TEXT32' len=68
  "__ZN14OpenJade_DSSSL10BoxFlowObj16setNonInheritedCEPKNS_10IdentifierEPNS_5ELObjERKN6OpenSP8LocationERNS_11InterpreterE"                                     ; magicseg='TEXT32' len=118
  "__ZNK14OpenJade_DSSSL10BoxFlowObj16hasNonInheritedCEPKNS_10IdentifierE"                  ; magicseg='TEXT32' len=70
  "__ZNK14OpenJade_DSSSL10BoxFlowObj4copyER9Collector"                  ; magicseg='TEXT32' len=50
  "__ZN14OpenJade_DSSSL13LeaderFlowObjC2Ev"                             ; magicseg='TEXT32' len=39
  "__ZN14OpenJade_DSSSL13LeaderFlowObjC1Ev"                             ; magicseg='TEXT32' len=39
  "__ZN14OpenJade_DSSSL13LeaderFlowObjC2ERKS0_"                         ; magicseg='TEXT32' len=43
  "__ZN14OpenJade_DSSSL13LeaderFlowObjC1ERKS0_"                         ; magicseg='TEXT32' len=43
  "__ZN14OpenJade_DSSSL13LeaderFlowObj12processInnerERNS_14ProcessContextE"                 ; magicseg='TEXT32' len=71
  "__ZN14OpenJade_DSSSL13LeaderFlowObj16setNonInheritedCEPKNS_10IdentifierEPNS_5ELObjERKN6OpenSP8LocationERNS_11InterpreterE"                                  ; magicseg='TEXT32' len=121
  "__ZNK14OpenJade_DSSSL13LeaderFlowObj16hasNonInheritedCEPKNS_10IdentifierE"               ; magicseg='TEXT32' len=73
  "__ZNK14OpenJade_DSSSL13LeaderFlowObj4copyER9Collector"               ; magicseg='TEXT32' len=53
  "__ZN14OpenJade_DSSSL16CharacterFlowObjC2Ev"                          ; magicseg='TEXT32' len=42
  "__ZN14OpenJade_DSSSL16CharacterFlowObjC1Ev"                          ; magicseg='TEXT32' len=42
  "__ZN14OpenJade_DSSSL16CharacterFlowObjC2ERKS0_"                      ; magicseg='TEXT32' len=46
  "__ZN14OpenJade_DSSSL16CharacterFlowObjC1ERKS0_"                      ; magicseg='TEXT32' len=46
  "__ZN14OpenJade_DSSSL16CharacterFlowObj12processInnerERNS_14ProcessContextE"              ; magicseg='TEXT32' len=74
  "__ZN14OpenJade_DSSSL7FlowObj15setImplicitCharEPNS_5ELObjERKN6OpenSP8LocationERNS_11InterpreterE"                       ; magicseg='TEXT32' len=95
  "__ZN14OpenJade_DSSSL16CharacterFlowObj15setImplicitCharEPNS_5ELObjERKN6OpenSP8LocationERNS_11InterpreterE"             ; magicseg='TEXT32' len=105
  "__ZN14OpenJade_DSSSL16CharacterFlowObj16setNonInheritedCEPKNS_10IdentifierEPNS_5ELObjERKN6OpenSP8LocationERNS_11InterpreterE"                               ; magicseg='TEXT32' len=124
  "__ZNK14OpenJade_DSSSL16CharacterFlowObj16hasNonInheritedCEPKNS_10IdentifierE"            ; magicseg='TEXT32' len=76
  "__ZNK14OpenJade_DSSSL16CharacterFlowObj4copyER9Collector"            ; magicseg='TEXT32' len=56
  "__ZN14OpenJade_DSSSL15FractionFlowObj12processInnerERNS_14ProcessContextE"               ; magicseg='TEXT32' len=73
  "__ZNK14OpenJade_DSSSL15FractionFlowObj4copyER9Collector"             ; magicseg='TEXT32' len=55
  "__ZN14OpenJade_DSSSL13ScriptFlowObj12processInnerERNS_14ProcessContextE"                 ; magicseg='TEXT32' len=71
  "__ZN14OpenJade_DSSSL11MarkFlowObj12processInnerERNS_14ProcessContextE"                   ; magicseg='TEXT32' len=69
  "__ZN14OpenJade_DSSSL12FenceFlowObj12processInnerERNS_14ProcessContextE"                  ; magicseg='TEXT32' len=70
  "__ZN14OpenJade_DSSSL14RadicalFlowObj12processInnerERNS_14ProcessContextE"                ; magicseg='TEXT32' len=72
  "__ZNK14OpenJade_DSSSL14RadicalFlowObj16hasNonInheritedCEPKNS_10IdentifierE"              ; magicseg='TEXT32' len=74
  "__ZN14OpenJade_DSSSL14RadicalFlowObj16setNonInheritedCEPKNS_10IdentifierEPNS_5ELObjERKN6OpenSP8LocationERNS_11InterpreterE"                                 ; magicseg='TEXT32' len=122
  "__ZN14OpenJade_DSSSL19MathOperatorFlowObj12processInnerERNS_14ProcessContextE"           ; magicseg='TEXT32' len=77
  "__ZN14OpenJade_DSSSL11GridFlowObjC2Ev"                               ; magicseg='TEXT32' len=37
  "__ZN14OpenJade_DSSSL11GridFlowObjC1Ev"                               ; magicseg='TEXT32' len=37
  "__ZN14OpenJade_DSSSL11GridFlowObjC2ERKS0_"                           ; magicseg='TEXT32' len=41
  "__ZN14OpenJade_DSSSL11GridFlowObjC1ERKS0_"                           ; magicseg='TEXT32' len=41
  "__ZN14OpenJade_DSSSL11GridFlowObj12processInnerERNS_14ProcessContextE"                   ; magicseg='TEXT32' len=69
  "__ZN14OpenJade_DSSSL11GridFlowObj16setNonInheritedCEPKNS_10IdentifierEPNS_5ELObjERKN6OpenSP8LocationERNS_11InterpreterE"                                    ; magicseg='TEXT32' len=119
  "__ZNK14OpenJade_DSSSL11GridFlowObj16hasNonInheritedCEPKNS_10IdentifierE"                 ; magicseg='TEXT32' len=71
  "__ZN14OpenJade_DSSSL15GridCellFlowObjC2Ev"                           ; magicseg='TEXT32' len=41
  "__ZN14OpenJade_DSSSL15GridCellFlowObjC1Ev"                           ; magicseg='TEXT32' len=41
  "__ZN14OpenJade_DSSSL15GridCellFlowObjC2ERKS0_"                       ; magicseg='TEXT32' len=45
  "__ZN14OpenJade_DSSSL15GridCellFlowObjC1ERKS0_"                       ; magicseg='TEXT32' len=45
  "__ZN14OpenJade_DSSSL15GridCellFlowObj12processInnerERNS_14ProcessContextE"               ; magicseg='TEXT32' len=73
  "__ZN14OpenJade_DSSSL15GridCellFlowObj16setNonInheritedCEPKNS_10IdentifierEPNS_5ELObjERKN6OpenSP8LocationERNS_11InterpreterE"                                ; magicseg='TEXT32' len=123
  "__ZNK14OpenJade_DSSSL15GridCellFlowObj16hasNonInheritedCEPKNS_10IdentifierE"             ; magicseg='TEXT32' len=75
  "__ZN14OpenJade_DSSSL14ProcessContext10startTableEv"                  ; magicseg='TEXT32' len=50
  "__ZN14OpenJade_DSSSL14ProcessContext5TableC1Ev"                      ; magicseg='TEXT32' len=46
  "__ZN14OpenJade_DSSSL14ProcessContext8endTableEv"                     ; magicseg='TEXT32' len=47
  "__ZN14OpenJade_DSSSL14ProcessContext16coverSpannedRowsEv"            ; magicseg='TEXT32' len=56
  "__ZN14OpenJade_DSSSL14ProcessContext14startTablePartEv"              ; magicseg='TEXT32' len=54
  "__ZN6OpenSP6VectorINS0_IPN14OpenJade_DSSSL8StyleObjEEEE5eraseEPKS4_S7_"                  ; magicseg='TEXT32' len=70
  "__ZN14OpenJade_DSSSL14ProcessContext12endTablePartEv"                ; magicseg='TEXT32' len=52
  "__ZN14OpenJade_DSSSL14ProcessContext14addTableColumnEjjPNS_8StyleObjE"                   ; magicseg='TEXT32' len=69
  "__ZN6OpenSP6VectorIPN14OpenJade_DSSSL8StyleObjEE8reserve1Ej"         ; magicseg='TEXT32' len=59
  "__ZN6OpenSP6VectorINS0_IPN14OpenJade_DSSSL8StyleObjEEEE6appendEj"    ; magicseg='TEXT32' len=64
  "__ZN14OpenJade_DSSSL14ProcessContext18currentTableColumnEv"          ; magicseg='TEXT32' len=58
  "__ZN14OpenJade_DSSSL14ProcessContext13noteTableCellEjjj"             ; magicseg='TEXT32' len=55
  "__ZN14OpenJade_DSSSL14ProcessContext16tableColumnStyleEjj"           ; magicseg='TEXT32' len=57
  "__ZN14OpenJade_DSSSL14ProcessContext13tableRowStyleEv"               ; magicseg='TEXT32' len=53
  "__ZN14OpenJade_DSSSL14ProcessContext13startTableRowEPNS_8StyleObjE"                      ; magicseg='TEXT32' len=66
  "__ZN14OpenJade_DSSSL14ProcessContext11endTableRowEv"                 ; magicseg='TEXT32' len=51
  "__ZN14OpenJade_DSSSL14ProcessContext10inTableRowEv"                  ; magicseg='TEXT32' len=50
  "__ZN14OpenJade_DSSSL14ProcessContext5TableC2Ev"                      ; magicseg='TEXT32' len=46
  "__ZN14OpenJade_DSSSL16ExtensionFlowObjC2ERKNS_10FOTBuilder16ExtensionFlowObjE"           ; magicseg='TEXT32' len=77
  "__ZN14OpenJade_DSSSL16ExtensionFlowObjC1ERKNS_10FOTBuilder16ExtensionFlowObjE"           ; magicseg='TEXT32' len=77
  "__ZN14OpenJade_DSSSL16ExtensionFlowObjC2ERKS0_"                      ; magicseg='TEXT32' len=46
  "__ZN14OpenJade_DSSSL16ExtensionFlowObjC1ERKS0_"                      ; magicseg='TEXT32' len=46
  "__ZN14OpenJade_DSSSL16ExtensionFlowObj12processInnerERNS_14ProcessContextE"              ; magicseg='TEXT32' len=74
  "__ZN14OpenJade_DSSSL16ExtensionFlowObj16setNonInheritedCEPKNS_10IdentifierEPNS_5ELObjERKN6OpenSP8LocationERNS_11InterpreterE"                               ; magicseg='TEXT32' len=124
  "__ZNK14OpenJade_DSSSL16ExtensionFlowObj16hasNonInheritedCEPKNS_10IdentifierE"            ; magicseg='TEXT32' len=76
  "__ZNK14OpenJade_DSSSL16ExtensionFlowObj4copyER9Collector"            ; magicseg='TEXT32' len=56
  "__ZN14OpenJade_DSSSL24CompoundExtensionFlowObjC2ERKNS_10FOTBuilder24CompoundExtensionFlowObjE"                         ; magicseg='TEXT32' len=93
  "__ZN14OpenJade_DSSSL24CompoundExtensionFlowObjC1ERKNS_10FOTBuilder24CompoundExtensionFlowObjE"                         ; magicseg='TEXT32' len=93
  "__ZN14OpenJade_DSSSL24CompoundExtensionFlowObjC2ERKS0_"              ; magicseg='TEXT32' len=54
  "__ZN14OpenJade_DSSSL24CompoundExtensionFlowObjC1ERKS0_"              ; magicseg='TEXT32' len=54
  "__ZN14OpenJade_DSSSL24CompoundExtensionFlowObj12processInnerERNS_14ProcessContextE"      ; magicseg='TEXT32' len=82
  "__ZN14OpenJade_DSSSL24CompoundExtensionFlowObj16setNonInheritedCEPKNS_10IdentifierEPNS_5ELObjERKN6OpenSP8LocationERNS_11InterpreterE"                       ; magicseg='TEXT32' len=132
  "__ZNK14OpenJade_DSSSL24CompoundExtensionFlowObj16hasNonInheritedCEPKNS_10IdentifierE"    ; magicseg='TEXT32' len=84
  "__ZNK14OpenJade_DSSSL24CompoundExtensionFlowObj4copyER9Collector"    ; magicseg='TEXT32' len=64
  "__ZN14OpenJade_DSSSL11Interpreter15installFlowObjsEv"                ; magicseg='TEXT32' len=52
  "__ZN14OpenJade_DSSSL11Interpreter31installExtensionFlowObjectClassEPNS_10IdentifierERKN6OpenSP6StringIjEERKNS3_8LocationE"                                  ; magicseg='TEXT32' len=121
  "__ZN6OpenSP3PtrIN14OpenJade_DSSSL7PopListEED1Ev"                     ; magicseg='TEXT32' len=47
  "__ZN6OpenSP6VectorIPN14OpenJade_DSSSL9SymbolObjEE5eraseEPKS3_S6_"    ; magicseg='TEXT32' len=64
  "__ZN6OpenSP6VectorIPN14OpenJade_DSSSL9SymbolObjEE8reserve1Ej"        ; magicseg='TEXT32' len=60
  "__ZN6OpenSP6VectorINS0_IPN14OpenJade_DSSSL8StyleObjEEEE8reserve1Ej"                      ; magicseg='TEXT32' len=66
  "__ZN14OpenJade_DSSSL24CompoundExtensionFlowObjD1Ev"                  ; magicseg='TEXT32' len=50
  "__ZN14OpenJade_DSSSL24CompoundExtensionFlowObjD0Ev"                  ; magicseg='TEXT32' len=50
  "__ZN14OpenJade_DSSSL16ExtensionFlowObjD1Ev"                          ; magicseg='TEXT32' len=42
  "__ZN14OpenJade_DSSSL16ExtensionFlowObjD0Ev"                          ; magicseg='TEXT32' len=42
  "__ZNK14OpenJade_DSSSL26ELObjExtensionFlowObjValue13convertStringERN6OpenSP6StringIjEE"                                 ; magicseg='TEXT32' len=85
  "__ZNK14OpenJade_DSSSL26ELObjExtensionFlowObjValue21convertStringPairListERN6OpenSP6VectorINS1_6StringIjEEEE"           ; magicseg='TEXT32' len=107
  "__ZNK14OpenJade_DSSSL26ELObjExtensionFlowObjValue17convertStringListERN6OpenSP6VectorINS1_6StringIjEEEE"               ; magicseg='TEXT32' len=103
  "__ZNK14OpenJade_DSSSL26ELObjExtensionFlowObjValue14convertBooleanERb"                    ; magicseg='TEXT32' len=68
  "__ZN14OpenJade_DSSSL28FormattingInstructionFlowObjD1Ev"              ; magicseg='TEXT32' len=54
  "__ZN14OpenJade_DSSSL28FormattingInstructionFlowObjD0Ev"              ; magicseg='TEXT32' len=54
  "__ZNK14OpenJade_DSSSL28FormattingInstructionFlowObj4copyER9Collector"                    ; magicseg='TEXT32' len=68
  "__ZNK14OpenJade_DSSSL28FormattingInstructionFlowObj16hasNonInheritedCEPKNS_10IdentifierE"                              ; magicseg='TEXT32' len=88
  "__ZN14OpenJade_DSSSL28FormattingInstructionFlowObj16setNonInheritedCEPKNS_10IdentifierEPNS_5ELObjERKN6OpenSP8LocationERNS_11InterpreterE"                   ; magicseg='TEXT32' len=136
  "__ZN14OpenJade_DSSSL28FormattingInstructionFlowObj12processInnerERNS_14ProcessContextE"                                ; magicseg='TEXT32' len=86
  "__ZN14OpenJade_DSSSL14UnknownFlowObjD1Ev"                            ; magicseg='TEXT32' len=40
  "__ZN14OpenJade_DSSSL14UnknownFlowObjD0Ev"                            ; magicseg='TEXT32' len=40
  "__ZNK14OpenJade_DSSSL14UnknownFlowObj4copyER9Collector"              ; magicseg='TEXT32' len=54
  "__ZNK14OpenJade_DSSSL14UnknownFlowObj16hasNonInheritedCEPKNS_10IdentifierE"              ; magicseg='TEXT32' len=74
  "__ZN14OpenJade_DSSSL14UnknownFlowObj16setNonInheritedCEPKNS_10IdentifierEPNS_5ELObjERKN6OpenSP8LocationERNS_11InterpreterE"                                 ; magicseg='TEXT32' len=122
  "__ZN14OpenJade_DSSSL18TableBorderFlowObjD1Ev"                        ; magicseg='TEXT32' len=44
  "__ZN14OpenJade_DSSSL18TableBorderFlowObjD0Ev"                        ; magicseg='TEXT32' len=44
  "__ZN14OpenJade_DSSSL18TableBorderFlowObj7processERNS_14ProcessContextE"                  ; magicseg='TEXT32' len=70
  "__ZN14OpenJade_DSSSL18TableBorderFlowObj16tableBorderStyleERPNS_8StyleObjE"              ; magicseg='TEXT32' len=74
  "__ZNK14OpenJade_DSSSL18TableBorderFlowObj4copyER9Collector"          ; magicseg='TEXT32' len=58
  "__ZN14OpenJade_DSSSL18TableBorderFlowObj12processInnerERNS_14ProcessContextE"            ; magicseg='TEXT32' len=76
  "__ZN14OpenJade_DSSSL16TableCellFlowObjD1Ev"                          ; magicseg='TEXT32' len=42
  "__ZN14OpenJade_DSSSL16TableCellFlowObjD0Ev"                          ; magicseg='TEXT32' len=42
  "__ZNK14OpenJade_DSSSL16TableCellFlowObj4copyER9Collector"            ; magicseg='TEXT32' len=56
  "__ZNK14OpenJade_DSSSL16TableCellFlowObj16hasNonInheritedCEPKNS_10IdentifierE"            ; magicseg='TEXT32' len=76
  "__ZNK14OpenJade_DSSSL16TableCellFlowObj22hasPseudoNonInheritedCEPKNS_10IdentifierE"      ; magicseg='TEXT32' len=82
  "__ZN14OpenJade_DSSSL16TableCellFlowObj16setNonInheritedCEPKNS_10IdentifierEPNS_5ELObjERKN6OpenSP8LocationERNS_11InterpreterE"                               ; magicseg='TEXT32' len=124
  "__ZN14OpenJade_DSSSL16TableCellFlowObj9pushStyleERNS_14ProcessContextERj"                ; magicseg='TEXT32' len=72
  "__ZN14OpenJade_DSSSL16TableCellFlowObj8popStyleERNS_14ProcessContextEj"                  ; magicseg='TEXT32' len=70
  "__ZN14OpenJade_DSSSL16TableCellFlowObj12processInnerERNS_14ProcessContextE"              ; magicseg='TEXT32' len=74
  "__ZN6OpenSP5OwnerIN14OpenJade_DSSSL16TableCellFlowObj3NICEED1Ev"     ; magicseg='TEXT32' len=63
  "__ZN6OpenSP5OwnerIN14OpenJade_DSSSL16TableCellFlowObj3NICEED0Ev"     ; magicseg='TEXT32' len=63
  "__ZN14OpenJade_DSSSL15TableRowFlowObjD1Ev"                           ; magicseg='TEXT32' len=41
  "__ZN14OpenJade_DSSSL15TableRowFlowObjD0Ev"                           ; magicseg='TEXT32' len=41
  "__ZNK14OpenJade_DSSSL15TableRowFlowObj4copyER9Collector"             ; magicseg='TEXT32' len=55
  "__ZN14OpenJade_DSSSL15TableRowFlowObj9pushStyleERNS_14ProcessContextERj"                 ; magicseg='TEXT32' len=71
  "__ZN14OpenJade_DSSSL15TableRowFlowObj8popStyleERNS_14ProcessContextEj"                   ; magicseg='TEXT32' len=69
  "__ZN14OpenJade_DSSSL15TableRowFlowObj12processInnerERNS_14ProcessContextE"               ; magicseg='TEXT32' len=73
  "__ZN14OpenJade_DSSSL18TableColumnFlowObjD1Ev"                        ; magicseg='TEXT32' len=44
  "__ZN14OpenJade_DSSSL18TableColumnFlowObjD0Ev"                        ; magicseg='TEXT32' len=44
  "__ZNK14OpenJade_DSSSL18TableColumnFlowObj4copyER9Collector"          ; magicseg='TEXT32' len=58
  "__ZNK14OpenJade_DSSSL18TableColumnFlowObj16hasNonInheritedCEPKNS_10IdentifierE"          ; magicseg='TEXT32' len=78
  "__ZN14OpenJade_DSSSL18TableColumnFlowObj16setNonInheritedCEPKNS_10IdentifierEPNS_5ELObjERKN6OpenSP8LocationERNS_11InterpreterE"                             ; magicseg='TEXT32' len=126
  "__ZN14OpenJade_DSSSL18TableColumnFlowObj12processInnerERNS_14ProcessContextE"            ; magicseg='TEXT32' len=76
  "__ZN6OpenSP5OwnerIN14OpenJade_DSSSL18TableColumnFlowObj3NICEED1Ev"                       ; magicseg='TEXT32' len=65
  "__ZN6OpenSP5OwnerIN14OpenJade_DSSSL18TableColumnFlowObj3NICEED0Ev"                       ; magicseg='TEXT32' len=65
  "__ZN14OpenJade_DSSSL16TablePartFlowObjD1Ev"                          ; magicseg='TEXT32' len=42
  "__ZN14OpenJade_DSSSL16TablePartFlowObjD0Ev"                          ; magicseg='TEXT32' len=42
  "__ZNK14OpenJade_DSSSL16TablePartFlowObj4copyER9Collector"            ; magicseg='TEXT32' len=56
  "__ZNK14OpenJade_DSSSL16TablePartFlowObj16hasNonInheritedCEPKNS_10IdentifierE"            ; magicseg='TEXT32' len=76
  "__ZN14OpenJade_DSSSL16TablePartFlowObj16setNonInheritedCEPKNS_10IdentifierEPNS_5ELObjERKN6OpenSP8LocationERNS_11InterpreterE"                               ; magicseg='TEXT32' len=124
  "__ZN14OpenJade_DSSSL16TablePartFlowObj12processInnerERNS_14ProcessContextE"              ; magicseg='TEXT32' len=74
  "__ZN14OpenJade_DSSSL12TableFlowObjD1Ev"                              ; magicseg='TEXT32' len=38
  "__ZN14OpenJade_DSSSL12TableFlowObjD0Ev"                              ; magicseg='TEXT32' len=38
  "__ZNK14OpenJade_DSSSL12TableFlowObj4copyER9Collector"                ; magicseg='TEXT32' len=52
  "__ZNK14OpenJade_DSSSL12TableFlowObj16hasNonInheritedCEPKNS_10IdentifierE"                ; magicseg='TEXT32' len=72
  "__ZN14OpenJade_DSSSL12TableFlowObj16setNonInheritedCEPKNS_10IdentifierEPNS_5ELObjERKN6OpenSP8LocationERNS_11InterpreterE"                                   ; magicseg='TEXT32' len=120
  "__ZN14OpenJade_DSSSL12TableFlowObj12processInnerERNS_14ProcessContextE"                  ; magicseg='TEXT32' len=70
  "__ZN6OpenSP5OwnerIN14OpenJade_DSSSL12TableFlowObj3NICEED1Ev"         ; magicseg='TEXT32' len=59
  "__ZN6OpenSP5OwnerIN14OpenJade_DSSSL12TableFlowObj3NICEED0Ev"         ; magicseg='TEXT32' len=59
  "__ZN14OpenJade_DSSSL15GridCellFlowObjD1Ev"                           ; magicseg='TEXT32' len=41
  "__ZN14OpenJade_DSSSL15GridCellFlowObjD0Ev"                           ; magicseg='TEXT32' len=41
  "__ZNK14OpenJade_DSSSL15GridCellFlowObj4copyER9Collector"             ; magicseg='TEXT32' len=55
  "__ZN6OpenSP5OwnerIN14OpenJade_DSSSL10FOTBuilder11GridCellNICEED1Ev"                      ; magicseg='TEXT32' len=66
  "__ZN6OpenSP5OwnerIN14OpenJade_DSSSL10FOTBuilder11GridCellNICEED0Ev"                      ; magicseg='TEXT32' len=66
  "__ZN14OpenJade_DSSSL11GridFlowObjD1Ev"                               ; magicseg='TEXT32' len=37
  "__ZN14OpenJade_DSSSL11GridFlowObjD0Ev"                               ; magicseg='TEXT32' len=37
  "__ZNK14OpenJade_DSSSL11GridFlowObj4copyER9Collector"                 ; magicseg='TEXT32' len=51
  "__ZN6OpenSP5OwnerIN14OpenJade_DSSSL10FOTBuilder7GridNICEED1Ev"       ; magicseg='TEXT32' len=61
  "__ZN6OpenSP5OwnerIN14OpenJade_DSSSL10FOTBuilder7GridNICEED0Ev"       ; magicseg='TEXT32' len=61
  "__ZN14OpenJade_DSSSL19MathOperatorFlowObjD1Ev"                       ; magicseg='TEXT32' len=45
  "__ZN14OpenJade_DSSSL19MathOperatorFlowObjD0Ev"                       ; magicseg='TEXT32' len=45
  "__ZNK14OpenJade_DSSSL19MathOperatorFlowObj4copyER9Collector"         ; magicseg='TEXT32' len=59
  "__ZN14OpenJade_DSSSL14RadicalFlowObjD1Ev"                            ; magicseg='TEXT32' len=40
  "__ZN14OpenJade_DSSSL14RadicalFlowObjD0Ev"                            ; magicseg='TEXT32' len=40
  "__ZNK14OpenJade_DSSSL14RadicalFlowObj15traceSubObjectsER9Collector"                      ; magicseg='TEXT32' len=66
  "__ZNK14OpenJade_DSSSL14RadicalFlowObj4copyER9Collector"              ; magicseg='TEXT32' len=54
  "__ZN14OpenJade_DSSSL12FenceFlowObjD1Ev"                              ; magicseg='TEXT32' len=38
  "__ZN14OpenJade_DSSSL12FenceFlowObjD0Ev"                              ; magicseg='TEXT32' len=38
  "__ZNK14OpenJade_DSSSL12FenceFlowObj4copyER9Collector"                ; magicseg='TEXT32' len=52
  "__ZN14OpenJade_DSSSL11MarkFlowObjD1Ev"                               ; magicseg='TEXT32' len=37
  "__ZN14OpenJade_DSSSL11MarkFlowObjD0Ev"                               ; magicseg='TEXT32' len=37
  "__ZNK14OpenJade_DSSSL11MarkFlowObj4copyER9Collector"                 ; magicseg='TEXT32' len=51
  "__ZN14OpenJade_DSSSL13ScriptFlowObjD1Ev"                             ; magicseg='TEXT32' len=39
  "__ZN14OpenJade_DSSSL13ScriptFlowObjD0Ev"                             ; magicseg='TEXT32' len=39
  "__ZNK14OpenJade_DSSSL13ScriptFlowObj4copyER9Collector"               ; magicseg='TEXT32' len=53
  "__ZN14OpenJade_DSSSL16SubscriptFlowObjD1Ev"                          ; magicseg='TEXT32' len=42
  "__ZN14OpenJade_DSSSL16SubscriptFlowObjD0Ev"                          ; magicseg='TEXT32' len=42
  "__ZNK14OpenJade_DSSSL16SubscriptFlowObj4copyER9Collector"            ; magicseg='TEXT32' len=56
  "__ZN14OpenJade_DSSSL16SubscriptFlowObj12processInnerERNS_14ProcessContextE"              ; magicseg='TEXT32' len=74
  "__ZN14OpenJade_DSSSL18SuperscriptFlowObjD1Ev"                        ; magicseg='TEXT32' len=44
  "__ZN14OpenJade_DSSSL18SuperscriptFlowObjD0Ev"                        ; magicseg='TEXT32' len=44
  "__ZNK14OpenJade_DSSSL18SuperscriptFlowObj4copyER9Collector"          ; magicseg='TEXT32' len=58
  "__ZN14OpenJade_DSSSL18SuperscriptFlowObj12processInnerERNS_14ProcessContextE"            ; magicseg='TEXT32' len=76
  "__ZN14OpenJade_DSSSL13UnmathFlowObjD1Ev"                             ; magicseg='TEXT32' len=39
  "__ZN14OpenJade_DSSSL13UnmathFlowObjD0Ev"                             ; magicseg='TEXT32' len=39
  "__ZNK14OpenJade_DSSSL13UnmathFlowObj4copyER9Collector"               ; magicseg='TEXT32' len=53
  "__ZN14OpenJade_DSSSL13UnmathFlowObj12processInnerERNS_14ProcessContextE"                 ; magicseg='TEXT32' len=71
  "__ZN14OpenJade_DSSSL15FractionFlowObjD1Ev"                           ; magicseg='TEXT32' len=41
  "__ZN14OpenJade_DSSSL15FractionFlowObjD0Ev"                           ; magicseg='TEXT32' len=41
  "__ZN14OpenJade_DSSSL19MathSequenceFlowObjD1Ev"                       ; magicseg='TEXT32' len=45
  "__ZN14OpenJade_DSSSL19MathSequenceFlowObjD0Ev"                       ; magicseg='TEXT32' len=45
  "__ZNK14OpenJade_DSSSL19MathSequenceFlowObj4copyER9Collector"         ; magicseg='TEXT32' len=59
  "__ZN14OpenJade_DSSSL19MathSequenceFlowObj12processInnerERNS_14ProcessContextE"           ; magicseg='TEXT32' len=77
  "__ZN14OpenJade_DSSSL16CharacterFlowObjD1Ev"                          ; magicseg='TEXT32' len=42
  "__ZN14OpenJade_DSSSL16CharacterFlowObjD0Ev"                          ; magicseg='TEXT32' len=42
  "__ZN14OpenJade_DSSSL16CharacterFlowObj14characterStyleERNS_14ProcessContextERPNS_8StyleObjERNS_10FOTBuilder12CharacterNICE"                                 ; magicseg='TEXT32' len=122
  "__ZN14OpenJade_DSSSL16CharacterFlowObj11isCharacterEv"               ; magicseg='TEXT32' len=53
  "__ZN6OpenSP5OwnerIN14OpenJade_DSSSL10FOTBuilder12CharacterNICEED1Ev"                     ; magicseg='TEXT32' len=67
  "__ZN6OpenSP5OwnerIN14OpenJade_DSSSL10FOTBuilder12CharacterNICEED0Ev"                     ; magicseg='TEXT32' len=67
  "__ZN14OpenJade_DSSSL13LeaderFlowObjD1Ev"                             ; magicseg='TEXT32' len=39
  "__ZN14OpenJade_DSSSL13LeaderFlowObjD0Ev"                             ; magicseg='TEXT32' len=39
  "__ZN6OpenSP5OwnerIN14OpenJade_DSSSL10FOTBuilder9LeaderNICEED1Ev"     ; magicseg='TEXT32' len=63
  "__ZN6OpenSP5OwnerIN14OpenJade_DSSSL10FOTBuilder9LeaderNICEED0Ev"     ; magicseg='TEXT32' len=63
  "__ZN14OpenJade_DSSSL10BoxFlowObjD1Ev"                                ; magicseg='TEXT32' len=36
  "__ZN14OpenJade_DSSSL10BoxFlowObjD0Ev"                                ; magicseg='TEXT32' len=36
  "__ZN6OpenSP5OwnerIN14OpenJade_DSSSL10FOTBuilder6BoxNICEED1Ev"        ; magicseg='TEXT32' len=60
  "__ZN6OpenSP5OwnerIN14OpenJade_DSSSL10FOTBuilder6BoxNICEED0Ev"        ; magicseg='TEXT32' len=60
  "__ZN14OpenJade_DSSSL12ScoreFlowObjD1Ev"                              ; magicseg='TEXT32' len=38
  "__ZN14OpenJade_DSSSL12ScoreFlowObjD0Ev"                              ; magicseg='TEXT32' len=38
  "__ZN6OpenSP9CopyOwnerIN14OpenJade_DSSSL12ScoreFlowObj4TypeEED1Ev"    ; magicseg='TEXT32' len=64
  "__ZN6OpenSP9CopyOwnerIN14OpenJade_DSSSL12ScoreFlowObj4TypeEED0Ev"    ; magicseg='TEXT32' len=64
  "__ZN14OpenJade_DSSSL12ScoreFlowObj8CharTypeD1Ev"                     ; magicseg='TEXT32' len=47
  "__ZN14OpenJade_DSSSL12ScoreFlowObj8CharTypeD0Ev"                     ; magicseg='TEXT32' len=47
  "__ZN14OpenJade_DSSSL12ScoreFlowObj14LengthSpecTypeD1Ev"              ; magicseg='TEXT32' len=54
  "__ZN14OpenJade_DSSSL12ScoreFlowObj14LengthSpecTypeD0Ev"              ; magicseg='TEXT32' len=54
  "__ZN14OpenJade_DSSSL12ScoreFlowObj10SymbolTypeD1Ev"                  ; magicseg='TEXT32' len=50
  "__ZN14OpenJade_DSSSL12ScoreFlowObj10SymbolTypeD0Ev"                  ; magicseg='TEXT32' len=50
  "__ZN14OpenJade_DSSSL16MultiModeFlowObjD1Ev"                          ; magicseg='TEXT32' len=42
  "__ZN14OpenJade_DSSSL16MultiModeFlowObjD0Ev"                          ; magicseg='TEXT32' len=42
  "__ZN6OpenSP5OwnerIN14OpenJade_DSSSL16MultiModeFlowObj3NICEED1Ev"     ; magicseg='TEXT32' len=63
  "__ZN6OpenSP5OwnerIN14OpenJade_DSSSL16MultiModeFlowObj3NICEED0Ev"     ; magicseg='TEXT32' len=63
  "__ZN14OpenJade_DSSSL17MarginaliaFlowObjD1Ev"                         ; magicseg='TEXT32' len=43
  "__ZN14OpenJade_DSSSL17MarginaliaFlowObjD0Ev"                         ; magicseg='TEXT32' len=43
  "__ZN14OpenJade_DSSSL13ScrollFlowObjD1Ev"                             ; magicseg='TEXT32' len=39
  "__ZN14OpenJade_DSSSL13ScrollFlowObjD0Ev"                             ; magicseg='TEXT32' len=39
  "__ZN14OpenJade_DSSSL11LinkFlowObjD1Ev"                               ; magicseg='TEXT32' len=37
  "__ZN14OpenJade_DSSSL11LinkFlowObjD0Ev"                               ; magicseg='TEXT32' len=37
  "__ZN14OpenJade_DSSSL25SimplePageSequenceFlowObjD1Ev"                 ; magicseg='TEXT32' len=51
  "__ZN14OpenJade_DSSSL25SimplePageSequenceFlowObjD0Ev"                 ; magicseg='TEXT32' len=51
  "__ZN6OpenSP5OwnerIN14OpenJade_DSSSL25SimplePageSequenceFlowObj12HeaderFooterEED1Ev"      ; magicseg='TEXT32' len=82
  "__ZN6OpenSP5OwnerIN14OpenJade_DSSSL25SimplePageSequenceFlowObj12HeaderFooterEED0Ev"      ; magicseg='TEXT32' len=82
  "__ZN14OpenJade_DSSSL16LineFieldFlowObjD1Ev"                          ; magicseg='TEXT32' len=42
  "__ZN14OpenJade_DSSSL16LineFieldFlowObjD0Ev"                          ; magicseg='TEXT32' len=42
  "__ZN6OpenSP5OwnerIN14OpenJade_DSSSL10FOTBuilder9InlineNICEED1Ev"     ; magicseg='TEXT32' len=63
  "__ZN6OpenSP5OwnerIN14OpenJade_DSSSL10FOTBuilder9InlineNICEED0Ev"     ; magicseg='TEXT32' len=63
  "__ZN14OpenJade_DSSSL15SidelineFlowObjD1Ev"                           ; magicseg='TEXT32' len=41
  "__ZN14OpenJade_DSSSL15SidelineFlowObjD0Ev"                           ; magicseg='TEXT32' len=41
  "__ZN14OpenJade_DSSSL21AlignmentPointFlowObjD1Ev"                     ; magicseg='TEXT32' len=47
  "__ZN14OpenJade_DSSSL21AlignmentPointFlowObjD0Ev"                     ; magicseg='TEXT32' len=47
  "__ZN14OpenJade_DSSSL11RuleFlowObjD1Ev"                               ; magicseg='TEXT32' len=37
  "__ZN14OpenJade_DSSSL11RuleFlowObjD0Ev"                               ; magicseg='TEXT32' len=37
  "__ZN14OpenJade_DSSSL11RuleFlowObj9ruleStyleERNS_14ProcessContextERPNS_8StyleObjE"        ; magicseg='TEXT32' len=80
  "__ZN14OpenJade_DSSSL11RuleFlowObj6isRuleEv"                          ; magicseg='TEXT32' len=42
  "__ZN6OpenSP5OwnerIN14OpenJade_DSSSL10FOTBuilder7RuleNICEED1Ev"       ; magicseg='TEXT32' len=61
  "__ZN6OpenSP5OwnerIN14OpenJade_DSSSL10FOTBuilder7RuleNICEED0Ev"       ; magicseg='TEXT32' len=61
  "__ZN14OpenJade_DSSSL22ExternalGraphicFlowObjD1Ev"                    ; magicseg='TEXT32' len=48
  "__ZN14OpenJade_DSSSL22ExternalGraphicFlowObjD0Ev"                    ; magicseg='TEXT32' len=48
  "__ZN6OpenSP5OwnerIN14OpenJade_DSSSL10FOTBuilder18ExternalGraphicNICEED1Ev"               ; magicseg='TEXT32' len=73
  "__ZN6OpenSP5OwnerIN14OpenJade_DSSSL10FOTBuilder18ExternalGraphicNICEED0Ev"               ; magicseg='TEXT32' len=73
  "__ZN14OpenJade_DSSSL21ParagraphBreakFlowObjD1Ev"                     ; magicseg='TEXT32' len=47
  "__ZN14OpenJade_DSSSL21ParagraphBreakFlowObjD0Ev"                     ; magicseg='TEXT32' len=47
  "__ZN14OpenJade_DSSSL16ParagraphFlowObjD1Ev"                          ; magicseg='TEXT32' len=42
  "__ZN14OpenJade_DSSSL16ParagraphFlowObjD0Ev"                          ; magicseg='TEXT32' len=42
  "__ZN14OpenJade_DSSSL19DisplayGroupFlowObjD1Ev"                       ; magicseg='TEXT32' len=45
  "__ZN14OpenJade_DSSSL19DisplayGroupFlowObjD0Ev"                       ; magicseg='TEXT32' len=45
  "__ZN6OpenSP5OwnerIN14OpenJade_DSSSL10FOTBuilder15DisplayGroupNICEED1Ev"                  ; magicseg='TEXT32' len=70
  "__ZN6OpenSP5OwnerIN14OpenJade_DSSSL10FOTBuilder15DisplayGroupNICEED0Ev"                  ; magicseg='TEXT32' len=70
  "__ZN14OpenJade_DSSSL14ProcessContext5TableD1Ev"                      ; magicseg='TEXT32' len=46
  "__ZN14OpenJade_DSSSL14ProcessContext5TableD0Ev"                      ; magicseg='TEXT32' len=46
  "__ZN6OpenSP6VectorINS0_IPN14OpenJade_DSSSL8StyleObjEEEED1Ev"         ; magicseg='TEXT32' len=59
  "__ZN6OpenSP6VectorINS0_IPN14OpenJade_DSSSL8StyleObjEEEED0Ev"         ; magicseg='TEXT32' len=59
  "__ZN6OpenSP6VectorIPN14OpenJade_DSSSL9SymbolObjEED0Ev"               ; magicseg='TEXT32' len=53
  "__ZN14OpenJade_DSSSL14EmptySosofoObjD1Ev"                            ; magicseg='TEXT32' len=40
  "__ZN14OpenJade_DSSSL14EmptySosofoObjD0Ev"                            ; magicseg='TEXT32' len=40
  "__ZN6OpenSP6VectorIPN14OpenJade_DSSSL8StyleObjEED1Ev"                ; magicseg='TEXT32' len=52
  "__ZN6OpenSP6VectorIPN14OpenJade_DSSSL8StyleObjEED0Ev"                ; magicseg='TEXT32' len=52
  "__ZN6OpenSP5OwnerIN14OpenJade_DSSSL12ScoreFlowObj4TypeEED2Ev"        ; magicseg='TEXT32' len=60
  "__ZN14OpenJade_DSSSL7PopListC1ERKN6OpenSP3PtrIS0_EE"                 ; magicseg='TEXT32' len=51
  "__ZN14OpenJade_DSSSL7FlowObjD2Ev"                                    ; magicseg='TEXT32' len=32
  "__ZN14OpenJade_DSSSL16TableCellFlowObj6borderERKN6OpenSP8ConstPtrINS_10InheritedCEEEMNS_10FOTBuilderEFvvERNS_14ProcessContextE"                             ; magicseg='TEXT32' len=126
  "__ZN6OpenSP6VectorINS_6StringIjEEE6appendEj"                         ; magicseg='TEXT32' len=43
  "__ZN6OpenSP6VectorIPN14OpenJade_DSSSL8StyleObjEE5eraseEPKS3_S6_"     ; magicseg='TEXT32' len=63
  "__ZTSN6OpenSP6VectorIPN14OpenJade_DSSSL8StyleObjEEE"                 ; magicseg='TEXT32' len=51
  "__ZTSN14OpenJade_DSSSL14EmptySosofoObjE"                             ; magicseg='TEXT32' len=39
  "__ZTSN6OpenSP6VectorIPN14OpenJade_DSSSL9SymbolObjEEE"                ; magicseg='TEXT32' len=52
  "__ZTSN6OpenSP6VectorINS0_IPN14OpenJade_DSSSL8StyleObjEEEEE"          ; magicseg='TEXT32' len=58
  "__ZTSN14OpenJade_DSSSL14ProcessContext5TableE"                       ; magicseg='TEXT32' len=45
  "__ZTSN6OpenSP5OwnerIN14OpenJade_DSSSL10FOTBuilder15DisplayGroupNICEEE"                   ; magicseg='TEXT32' len=69
  "__ZTSN14OpenJade_DSSSL19DisplayGroupFlowObjE"                        ; magicseg='TEXT32' len=44
  "__ZTSN14OpenJade_DSSSL16ParagraphFlowObjE"                           ; magicseg='TEXT32' len=41
  "__ZTSN14OpenJade_DSSSL21ParagraphBreakFlowObjE"                      ; magicseg='TEXT32' len=46
  "__ZTSN6OpenSP5OwnerIN14OpenJade_DSSSL10FOTBuilder18ExternalGraphicNICEEE"                ; magicseg='TEXT32' len=72
  "__ZTSN14OpenJade_DSSSL22ExternalGraphicFlowObjE"                     ; magicseg='TEXT32' len=47
  "__ZTSN6OpenSP5OwnerIN14OpenJade_DSSSL10FOTBuilder7RuleNICEEE"        ; magicseg='TEXT32' len=60
  "__ZTSN14OpenJade_DSSSL11RuleFlowObjE"                                ; magicseg='TEXT32' len=36
  "__ZTSN14OpenJade_DSSSL21AlignmentPointFlowObjE"                      ; magicseg='TEXT32' len=46
  "__ZTSN14OpenJade_DSSSL15SidelineFlowObjE"                            ; magicseg='TEXT32' len=40
  "__ZTSN6OpenSP5OwnerIN14OpenJade_DSSSL10FOTBuilder9InlineNICEEE"      ; magicseg='TEXT32' len=62
  "__ZTSN14OpenJade_DSSSL16LineFieldFlowObjE"                           ; magicseg='TEXT32' len=41
  "__ZTSN6OpenSP5OwnerIN14OpenJade_DSSSL25SimplePageSequenceFlowObj12HeaderFooterEEE"       ; magicseg='TEXT32' len=81
  "__ZTSN14OpenJade_DSSSL25SimplePageSequenceFlowObjE"                  ; magicseg='TEXT32' len=50
  "__ZTSN14OpenJade_DSSSL11LinkFlowObjE"                                ; magicseg='TEXT32' len=36
  "__ZTSN14OpenJade_DSSSL13ScrollFlowObjE"                              ; magicseg='TEXT32' len=38
  "__ZTSN14OpenJade_DSSSL17MarginaliaFlowObjE"                          ; magicseg='TEXT32' len=42
  "__ZTSN6OpenSP5OwnerIN14OpenJade_DSSSL16MultiModeFlowObj3NICEEE"      ; magicseg='TEXT32' len=62
  "__ZTSN14OpenJade_DSSSL16MultiModeFlowObjE"                           ; magicseg='TEXT32' len=41
  "__ZTSN14OpenJade_DSSSL12ScoreFlowObj4TypeE"                          ; magicseg='TEXT32' len=42
  "__ZTSN14OpenJade_DSSSL12ScoreFlowObj10SymbolTypeE"                   ; magicseg='TEXT32' len=49
  "__ZTSN14OpenJade_DSSSL12ScoreFlowObj14LengthSpecTypeE"               ; magicseg='TEXT32' len=53
  "__ZTSN14OpenJade_DSSSL12ScoreFlowObj8CharTypeE"                      ; magicseg='TEXT32' len=46
  "__ZTSN6OpenSP9CopyOwnerIN14OpenJade_DSSSL12ScoreFlowObj4TypeEEE"     ; magicseg='TEXT32' len=63
  "__ZTSN14OpenJade_DSSSL12ScoreFlowObjE"                               ; magicseg='TEXT32' len=37
  "__ZTSN6OpenSP5OwnerIN14OpenJade_DSSSL10FOTBuilder6BoxNICEEE"         ; magicseg='TEXT32' len=59
  "__ZTSN14OpenJade_DSSSL10BoxFlowObjE"                                 ; magicseg='TEXT32' len=35
  "__ZTSN6OpenSP5OwnerIN14OpenJade_DSSSL10FOTBuilder9LeaderNICEEE"      ; magicseg='TEXT32' len=62
  "__ZTSN14OpenJade_DSSSL13LeaderFlowObjE"                              ; magicseg='TEXT32' len=38
  "__ZTSN6OpenSP5OwnerIN14OpenJade_DSSSL10FOTBuilder12CharacterNICEEE"                      ; magicseg='TEXT32' len=66
  "__ZTSN14OpenJade_DSSSL16CharacterFlowObjE"                           ; magicseg='TEXT32' len=41
  "__ZTSN14OpenJade_DSSSL19MathSequenceFlowObjE"                        ; magicseg='TEXT32' len=44
  "__ZTSN14OpenJade_DSSSL15FractionFlowObjE"                            ; magicseg='TEXT32' len=40
  "__ZTSN14OpenJade_DSSSL13UnmathFlowObjE"                              ; magicseg='TEXT32' len=38
  "__ZTSN14OpenJade_DSSSL18SuperscriptFlowObjE"                         ; magicseg='TEXT32' len=43
  "__ZTSN14OpenJade_DSSSL16SubscriptFlowObjE"                           ; magicseg='TEXT32' len=41
  "__ZTSN14OpenJade_DSSSL13ScriptFlowObjE"                              ; magicseg='TEXT32' len=38
  "__ZTSN14OpenJade_DSSSL11MarkFlowObjE"                                ; magicseg='TEXT32' len=36
  "__ZTSN14OpenJade_DSSSL12FenceFlowObjE"                               ; magicseg='TEXT32' len=37
  "__ZTSN14OpenJade_DSSSL14RadicalFlowObjE"                             ; magicseg='TEXT32' len=39
  "__ZTSN14OpenJade_DSSSL19MathOperatorFlowObjE"                        ; magicseg='TEXT32' len=44
  "__ZTSN6OpenSP5OwnerIN14OpenJade_DSSSL10FOTBuilder7GridNICEEE"        ; magicseg='TEXT32' len=60
  "__ZTSN14OpenJade_DSSSL11GridFlowObjE"                                ; magicseg='TEXT32' len=36
  "__ZTSN6OpenSP5OwnerIN14OpenJade_DSSSL10FOTBuilder11GridCellNICEEE"                       ; magicseg='TEXT32' len=65
  "__ZTSN14OpenJade_DSSSL15GridCellFlowObjE"                            ; magicseg='TEXT32' len=40
  "__ZTSN6OpenSP5OwnerIN14OpenJade_DSSSL12TableFlowObj3NICEEE"          ; magicseg='TEXT32' len=58
  "__ZTSN14OpenJade_DSSSL12TableFlowObjE"                               ; magicseg='TEXT32' len=37
  "__ZTSN14OpenJade_DSSSL16TablePartFlowObjE"                           ; magicseg='TEXT32' len=41
  "__ZTSN6OpenSP5OwnerIN14OpenJade_DSSSL18TableColumnFlowObj3NICEEE"    ; magicseg='TEXT32' len=64
  "__ZTSN14OpenJade_DSSSL18TableColumnFlowObjE"                         ; magicseg='TEXT32' len=43
  "__ZTSN14OpenJade_DSSSL15TableRowFlowObjE"                            ; magicseg='TEXT32' len=40
  "__ZTSN6OpenSP5OwnerIN14OpenJade_DSSSL16TableCellFlowObj3NICEEE"      ; magicseg='TEXT32' len=62
  "__ZTSN14OpenJade_DSSSL16TableCellFlowObjE"                           ; magicseg='TEXT32' len=41
  "__ZTSN14OpenJade_DSSSL18TableBorderFlowObjE"                         ; magicseg='TEXT32' len=43
  "__ZTSN14OpenJade_DSSSL14UnknownFlowObjE"                             ; magicseg='TEXT32' len=39
  "__ZTSN14OpenJade_DSSSL28FormattingInstructionFlowObjE"               ; magicseg='TEXT32' len=53
  "__ZTSN14OpenJade_DSSSL26ELObjExtensionFlowObjValueE"                 ; magicseg='TEXT32' len=51
  "__ZTSN14OpenJade_DSSSL16ExtensionFlowObjE"                           ; magicseg='TEXT32' len=41
  "__ZTSN14OpenJade_DSSSL24CompoundExtensionFlowObjE"                   ; magicseg='TEXT32' len=49
  "__ZN6OpenSP5OwnerIN14OpenJade_DSSSL12ScoreFlowObj4TypeEED1Ev"        ; magicseg='TEXT32' len=60
  "__ZN6OpenSP5OwnerIN14OpenJade_DSSSL12ScoreFlowObj4TypeEED0Ev"        ; magicseg='TEXT32' len=60
  "__ZTSN14OpenJade_DSSSL10FOTBuilder16ExtensionFlowObj5ValueE"         ; magicseg='TEXT32' len=59
  "__ZTSN6OpenSP5OwnerIN14OpenJade_DSSSL12ScoreFlowObj4TypeEEE"         ; magicseg='TEXT32' len=59
  "__ZN14OpenJade_DSSSL10InheritedCC2EPKNS_10IdentifierEj"              ; magicseg='TEXT32' len=54
  "__ZN14OpenJade_DSSSL10InheritedCC1EPKNS_10IdentifierEj"              ; magicseg='TEXT32' len=54
  "__ZN14OpenJade_DSSSL10InheritedCD2Ev"                                ; magicseg='TEXT32' len=36
  "__ZN14OpenJade_DSSSL10InheritedCD1Ev"                                ; magicseg='TEXT32' len=36
  "__ZN14OpenJade_DSSSL10InheritedCD0Ev"                                ; magicseg='TEXT32' len=36
  "__ZNK14OpenJade_DSSSL10InheritedC12invalidValueERKN6OpenSP8LocationERNS_11InterpreterE"                                ; magicseg='TEXT32' len=86
  "__ZN14OpenJade_DSSSL14BoolInheritedCC2EPKNS_10IdentifierEjb"         ; magicseg='TEXT32' len=59
  "__ZN14OpenJade_DSSSL14BoolInheritedCC1EPKNS_10IdentifierEjb"         ; magicseg='TEXT32' len=59
  "__ZNK14OpenJade_DSSSL14BoolInheritedC5valueERNS_2VMEPKNS_11VarStyleObjERN6OpenSP6VectorIjEE"                           ; magicseg='TEXT32' len=91
  "__ZN14OpenJade_DSSSL17IntegerInheritedCC2EPKNS_10IdentifierEjl"      ; magicseg='TEXT32' len=62
  "__ZN14OpenJade_DSSSL17IntegerInheritedCC1EPKNS_10IdentifierEjl"      ; magicseg='TEXT32' len=62
  "__ZNK14OpenJade_DSSSL17IntegerInheritedC5valueERNS_2VMEPKNS_11VarStyleObjERN6OpenSP6VectorIjEE"                        ; magicseg='TEXT32' len=94
  "__ZN14OpenJade_DSSSL16LengthInheritedCC2EPKNS_10IdentifierEjl"       ; magicseg='TEXT32' len=61
  "__ZN14OpenJade_DSSSL16LengthInheritedCC1EPKNS_10IdentifierEjl"       ; magicseg='TEXT32' len=61
  "__ZNK14OpenJade_DSSSL16LengthInheritedC5valueERNS_2VMEPKNS_11VarStyleObjERN6OpenSP6VectorIjEE"                         ; magicseg='TEXT32' len=93
  "__ZN14OpenJade_DSSSL16SymbolInheritedCC2EPKNS_10IdentifierEjNS_10FOTBuilder6SymbolE"     ; magicseg='TEXT32' len=83
  "__ZN14OpenJade_DSSSL16SymbolInheritedCC1EPKNS_10IdentifierEjNS_10FOTBuilder6SymbolE"     ; magicseg='TEXT32' len=83
  "__ZNK14OpenJade_DSSSL16SymbolInheritedC5valueERNS_2VMEPKNS_11VarStyleObjERN6OpenSP6VectorIjEE"                         ; magicseg='TEXT32' len=93
  "__ZN14OpenJade_DSSSL18PublicIdInheritedCC2EPKNS_10IdentifierEjPKc"                       ; magicseg='TEXT32' len=65
  "__ZN14OpenJade_DSSSL18PublicIdInheritedCC1EPKNS_10IdentifierEjPKc"                       ; magicseg='TEXT32' len=65
  "__ZNK14OpenJade_DSSSL18PublicIdInheritedC5valueERNS_2VMEPKNS_11VarStyleObjERN6OpenSP6VectorIjEE"                       ; magicseg='TEXT32' len=95
  "__ZN14OpenJade_DSSSL17Letter2InheritedCC2EPKNS_10IdentifierEjj"      ; magicseg='TEXT32' len=62
  "__ZN14OpenJade_DSSSL17Letter2InheritedCC1EPKNS_10IdentifierEjj"      ; magicseg='TEXT32' len=62
  "__ZNK14OpenJade_DSSSL17Letter2InheritedC5valueERNS_2VMEPKNS_11VarStyleObjERN6OpenSP6VectorIjEE"                        ; magicseg='TEXT32' len=94
  "__ZN14OpenJade_DSSSL20LengthSpecInheritedCC2EPKNS_10IdentifierEjl"                       ; magicseg='TEXT32' len=65
  "__ZN14OpenJade_DSSSL20LengthSpecInheritedCC1EPKNS_10IdentifierEjl"                       ; magicseg='TEXT32' len=65
  "__ZNK14OpenJade_DSSSL20LengthSpecInheritedC5valueERNS_2VMEPKNS_11VarStyleObjERN6OpenSP6VectorIjEE"                     ; magicseg='TEXT32' len=97
  "__ZN14OpenJade_DSSSL20LengthSpecInheritedC8setValueEPNS_5ELObjERKN6OpenSP8LocationERNS_11InterpreterE"                 ; magicseg='TEXT32' len=101
  "__ZN14OpenJade_DSSSL23OptLengthSpecInheritedCC2EPKNS_10IdentifierEj"                     ; magicseg='TEXT32' len=67
  "__ZN14OpenJade_DSSSL23OptLengthSpecInheritedCC1EPKNS_10IdentifierEj"                     ; magicseg='TEXT32' len=67
  "__ZNK14OpenJade_DSSSL23OptLengthSpecInheritedC5valueERNS_2VMEPKNS_11VarStyleObjERN6OpenSP6VectorIjEE"                  ; magicseg='TEXT32' len=100
  "__ZN14OpenJade_DSSSL23OptLengthSpecInheritedC8setValueEPNS_5ELObjERKN6OpenSP8LocationERNS_11InterpreterE"              ; magicseg='TEXT32' len=104
  "__ZN14OpenJade_DSSSL16StringInheritedCC2EPKNS_10IdentifierEjPKjj"    ; magicseg='TEXT32' len=64
  "__ZN14OpenJade_DSSSL16StringInheritedCC1EPKNS_10IdentifierEjPKjj"    ; magicseg='TEXT32' len=64
  "__ZN14OpenJade_DSSSL16StringInheritedCC2EPKNS_10IdentifierEjRKN6OpenSP6StringIjEE"       ; magicseg='TEXT32' len=81
  "__ZN14OpenJade_DSSSL16StringInheritedCC1EPKNS_10IdentifierEjRKN6OpenSP6StringIjEE"       ; magicseg='TEXT32' len=81
  "__ZNK14OpenJade_DSSSL16StringInheritedC5valueERNS_2VMEPKNS_11VarStyleObjERN6OpenSP6VectorIjEE"                         ; magicseg='TEXT32' len=93
  "__ZN14OpenJade_DSSSL28GenericInlineSpaceInheritedCC2EPKNS_10IdentifierEjMNS_10FOTBuilderEFvRKNS4_11InlineSpaceEE"      ; magicseg='TEXT32' len=112
  "__ZN14OpenJade_DSSSL28GenericInlineSpaceInheritedCC1EPKNS_10IdentifierEjMNS_10FOTBuilderEFvRKNS4_11InlineSpaceEE"      ; magicseg='TEXT32' len=112
  "__ZNK14OpenJade_DSSSL28GenericInlineSpaceInheritedC5valueERNS_2VMEPKNS_11VarStyleObjERN6OpenSP6VectorIjEE"             ; magicseg='TEXT32' len=105
  "__ZNK14OpenJade_DSSSL28GenericInlineSpaceInheritedC3setERNS_2VMEPKNS_11VarStyleObjERNS_10FOTBuilderERPNS_5ELObjERN6OpenSP6VectorIjEE"                       ; magicseg='TEXT32' len=132
  "__ZNK14OpenJade_DSSSL28GenericInlineSpaceInheritedC4makeEPNS_5ELObjERKN6OpenSP8LocationERNS_11InterpreterE"            ; magicseg='TEXT32' len=106
  "__ZN6OpenSP3PtrIN14OpenJade_DSSSL10InheritedCEEC2EPS2_"              ; magicseg='TEXT32' len=54
  "__ZN14OpenJade_DSSSL21GenericBoolInheritedCC2EPKNS_10IdentifierEjMNS_10FOTBuilderEFvbEb"                               ; magicseg='TEXT32' len=87
  "__ZN14OpenJade_DSSSL21GenericBoolInheritedCC1EPKNS_10IdentifierEjMNS_10FOTBuilderEFvbEb"                               ; magicseg='TEXT32' len=87
  "__ZNK14OpenJade_DSSSL21GenericBoolInheritedC3setERNS_2VMEPKNS_11VarStyleObjERNS_10FOTBuilderERPNS_5ELObjERN6OpenSP6VectorIjEE"                              ; magicseg='TEXT32' len=125
  "__ZNK14OpenJade_DSSSL21GenericBoolInheritedC4makeEPNS_5ELObjERKN6OpenSP8LocationERNS_11InterpreterE"                   ; magicseg='TEXT32' len=99
  "__ZN14OpenJade_DSSSL23ExtensionBoolInheritedCC2EPKNS_10IdentifierEjMNS_10FOTBuilderEFvbEb"                             ; magicseg='TEXT32' len=89
  "__ZN14OpenJade_DSSSL23ExtensionBoolInheritedCC1EPKNS_10IdentifierEjMNS_10FOTBuilderEFvbEb"                             ; magicseg='TEXT32' len=89
  "__ZNK14OpenJade_DSSSL23ExtensionBoolInheritedC3setERNS_2VMEPKNS_11VarStyleObjERNS_10FOTBuilderERPNS_5ELObjERN6OpenSP6VectorIjEE"                            ; magicseg='TEXT32' len=127
  "__ZNK14OpenJade_DSSSL23ExtensionBoolInheritedC4makeEPNS_5ELObjERKN6OpenSP8LocationERNS_11InterpreterE"                 ; magicseg='TEXT32' len=101
  "__ZN14OpenJade_DSSSL25ExtensionStringInheritedCC2EPKNS_10IdentifierEjMNS_10FOTBuilderEFvRKN6OpenSP6StringIjEEE"        ; magicseg='TEXT32' len=110
  "__ZN14OpenJade_DSSSL25ExtensionStringInheritedCC1EPKNS_10IdentifierEjMNS_10FOTBuilderEFvRKN6OpenSP6StringIjEEE"        ; magicseg='TEXT32' len=110
  "__ZN14OpenJade_DSSSL25ExtensionStringInheritedCC2EPKNS_10IdentifierEjMNS_10FOTBuilderEFvRKN6OpenSP6StringIjEEEPKjj"    ; magicseg='TEXT32' len=114
  "__ZN14OpenJade_DSSSL25ExtensionStringInheritedCC1EPKNS_10IdentifierEjMNS_10FOTBuilderEFvRKN6OpenSP6StringIjEEEPKjj"    ; magicseg='TEXT32' len=114
  "__ZNK14OpenJade_DSSSL25ExtensionStringInheritedC3setERNS_2VMEPKNS_11VarStyleObjERNS_10FOTBuilderERPNS_5ELObjERN6OpenSP6VectorIjEE"                          ; magicseg='TEXT32' len=129
  "__ZNK14OpenJade_DSSSL25ExtensionStringInheritedC4makeEPNS_5ELObjERKN6OpenSP8LocationERNS_11InterpreterE"               ; magicseg='TEXT32' len=103
  "__ZN14OpenJade_DSSSL26ExtensionIntegerInheritedCC2EPKNS_10IdentifierEjMNS_10FOTBuilderEFvlEl"                          ; magicseg='TEXT32' len=92
  "__ZN14OpenJade_DSSSL26ExtensionIntegerInheritedCC1EPKNS_10IdentifierEjMNS_10FOTBuilderEFvlEl"                          ; magicseg='TEXT32' len=92
  "__ZNK14OpenJade_DSSSL26ExtensionIntegerInheritedC3setERNS_2VMEPKNS_11VarStyleObjERNS_10FOTBuilderERPNS_5ELObjERN6OpenSP6VectorIjEE"                         ; magicseg='TEXT32' len=130
  "__ZNK14OpenJade_DSSSL26ExtensionIntegerInheritedC4makeEPNS_5ELObjERKN6OpenSP8LocationERNS_11InterpreterE"              ; magicseg='TEXT32' len=104
  "__ZN14OpenJade_DSSSL25ExtensionLengthInheritedCC2EPKNS_10IdentifierEjMNS_10FOTBuilderEFvlEl"                           ; magicseg='TEXT32' len=91
  "__ZN14OpenJade_DSSSL25ExtensionLengthInheritedCC1EPKNS_10IdentifierEjMNS_10FOTBuilderEFvlEl"                           ; magicseg='TEXT32' len=91
  "__ZNK14OpenJade_DSSSL25ExtensionLengthInheritedC3setERNS_2VMEPKNS_11VarStyleObjERNS_10FOTBuilderERPNS_5ELObjERN6OpenSP6VectorIjEE"                          ; magicseg='TEXT32' len=129
  "__ZNK14OpenJade_DSSSL25ExtensionLengthInheritedC4makeEPNS_5ELObjERKN6OpenSP8LocationERNS_11InterpreterE"               ; magicseg='TEXT32' len=103
  "__ZN14OpenJade_DSSSL23GenericLengthInheritedCC2EPKNS_10IdentifierEjMNS_10FOTBuilderEFvlEl"                             ; magicseg='TEXT32' len=89
  "__ZN14OpenJade_DSSSL23GenericLengthInheritedCC1EPKNS_10IdentifierEjMNS_10FOTBuilderEFvlEl"                             ; magicseg='TEXT32' len=89
  "__ZNK14OpenJade_DSSSL23GenericLengthInheritedC3setERNS_2VMEPKNS_11VarStyleObjERNS_10FOTBuilderERPNS_5ELObjERN6OpenSP6VectorIjEE"                            ; magicseg='TEXT32' len=127
  "__ZNK14OpenJade_DSSSL23GenericLengthInheritedC4makeEPNS_5ELObjERKN6OpenSP8LocationERNS_11InterpreterE"                 ; magicseg='TEXT32' len=101
  "__ZN14OpenJade_DSSSL24GenericIntegerInheritedCC2EPKNS_10IdentifierEjMNS_10FOTBuilderEFvlEl"                            ; magicseg='TEXT32' len=90
  "__ZN14OpenJade_DSSSL24GenericIntegerInheritedCC1EPKNS_10IdentifierEjMNS_10FOTBuilderEFvlEl"                            ; magicseg='TEXT32' len=90
  "__ZNK14OpenJade_DSSSL24GenericIntegerInheritedC3setERNS_2VMEPKNS_11VarStyleObjERNS_10FOTBuilderERPNS_5ELObjERN6OpenSP6VectorIjEE"                           ; magicseg='TEXT32' len=128
  "__ZNK14OpenJade_DSSSL24GenericIntegerInheritedC4makeEPNS_5ELObjERKN6OpenSP8LocationERNS_11InterpreterE"                ; magicseg='TEXT32' len=102
  "__ZN14OpenJade_DSSSL29GenericMaybeIntegerInheritedCC2EPKNS_10IdentifierEjMNS_10FOTBuilderEFvlEl"                       ; magicseg='TEXT32' len=95
  "__ZN14OpenJade_DSSSL29GenericMaybeIntegerInheritedCC1EPKNS_10IdentifierEjMNS_10FOTBuilderEFvlEl"                       ; magicseg='TEXT32' len=95
  "__ZNK14OpenJade_DSSSL29GenericMaybeIntegerInheritedC5valueERNS_2VMEPKNS_11VarStyleObjERN6OpenSP6VectorIjEE"            ; magicseg='TEXT32' len=106
  "__ZNK14OpenJade_DSSSL29GenericMaybeIntegerInheritedC4makeEPNS_5ELObjERKN6OpenSP8LocationERNS_11InterpreterE"           ; magicseg='TEXT32' len=107
  "__ZN14OpenJade_DSSSL23GenericSymbolInheritedCC2EPKNS_10IdentifierEjMNS_10FOTBuilderEFvNS4_6SymbolEES5_"                ; magicseg='TEXT32' len=102
  "__ZN14OpenJade_DSSSL23GenericSymbolInheritedCC1EPKNS_10IdentifierEjMNS_10FOTBuilderEFvNS4_6SymbolEES5_"                ; magicseg='TEXT32' len=102
  "__ZNK14OpenJade_DSSSL23GenericSymbolInheritedC3setERNS_2VMEPKNS_11VarStyleObjERNS_10FOTBuilderERPNS_5ELObjERN6OpenSP6VectorIjEE"                            ; magicseg='TEXT32' len=127
  "__ZNK14OpenJade_DSSSL23GenericSymbolInheritedC4makeEPNS_5ELObjERKN6OpenSP8LocationERNS_11InterpreterE"                 ; magicseg='TEXT32' len=101
  "__ZN14OpenJade_DSSSL25GenericPublicIdInheritedCC2EPKNS_10IdentifierEjMNS_10FOTBuilderEFvPKcES6_"                       ; magicseg='TEXT32' len=95
  "__ZN14OpenJade_DSSSL25GenericPublicIdInheritedCC1EPKNS_10IdentifierEjMNS_10FOTBuilderEFvPKcES6_"                       ; magicseg='TEXT32' len=95
  "__ZNK14OpenJade_DSSSL25GenericPublicIdInheritedC3setERNS_2VMEPKNS_11VarStyleObjERNS_10FOTBuilderERPNS_5ELObjERN6OpenSP6VectorIjEE"                          ; magicseg='TEXT32' len=129
  "__ZNK14OpenJade_DSSSL25GenericPublicIdInheritedC4makeEPNS_5ELObjERKN6OpenSP8LocationERNS_11InterpreterE"               ; magicseg='TEXT32' len=103
  "__ZN14OpenJade_DSSSL24GenericLetter2InheritedCC2EPKNS_10IdentifierEjMNS_10FOTBuilderEFvjEj"                            ; magicseg='TEXT32' len=90
  "__ZN14OpenJade_DSSSL24GenericLetter2InheritedCC1EPKNS_10IdentifierEjMNS_10FOTBuilderEFvjEj"                            ; magicseg='TEXT32' len=90
  "__ZNK14OpenJade_DSSSL24GenericLetter2InheritedC3setERNS_2VMEPKNS_11VarStyleObjERNS_10FOTBuilderERPNS_5ELObjERN6OpenSP6VectorIjEE"                           ; magicseg='TEXT32' len=128
  "__ZNK14OpenJade_DSSSL24GenericLetter2InheritedC4makeEPNS_5ELObjERKN6OpenSP8LocationERNS_11InterpreterE"                ; magicseg='TEXT32' len=102
  "__ZN14OpenJade_DSSSL27GenericLengthSpecInheritedCC2EPKNS_10IdentifierEjMNS_10FOTBuilderEFvRKNS4_10LengthSpecEEl"       ; magicseg='TEXT32' len=111
  "__ZN14OpenJade_DSSSL27GenericLengthSpecInheritedCC1EPKNS_10IdentifierEjMNS_10FOTBuilderEFvRKNS4_10LengthSpecEEl"       ; magicseg='TEXT32' len=111
  "__ZNK14OpenJade_DSSSL27GenericLengthSpecInheritedC3setERNS_2VMEPKNS_11VarStyleObjERNS_10FOTBuilderERPNS_5ELObjERN6OpenSP6VectorIjEE"                        ; magicseg='TEXT32' len=131
  "__ZNK14OpenJade_DSSSL27GenericLengthSpecInheritedC4makeEPNS_5ELObjERKN6OpenSP8LocationERNS_11InterpreterE"             ; magicseg='TEXT32' len=105
  "__ZN14OpenJade_DSSSL31GenericOptInlineSpaceInheritedCC2EPKNS_10IdentifierEjMNS_10FOTBuilderEFvRKNS4_14OptInlineSpaceEE"                                     ; magicseg='TEXT32' len=118
  "__ZN14OpenJade_DSSSL31GenericOptInlineSpaceInheritedCC1EPKNS_10IdentifierEjMNS_10FOTBuilderEFvRKNS4_14OptInlineSpaceEE"                                     ; magicseg='TEXT32' len=118
  "__ZNK14OpenJade_DSSSL31GenericOptInlineSpaceInheritedC5valueERNS_2VMEPKNS_11VarStyleObjERN6OpenSP6VectorIjEE"          ; magicseg='TEXT32' len=108
  "__ZNK14OpenJade_DSSSL31GenericOptInlineSpaceInheritedC3setERNS_2VMEPKNS_11VarStyleObjERNS_10FOTBuilderERPNS_5ELObjERN6OpenSP6VectorIjEE"                    ; magicseg='TEXT32' len=135
  "__ZNK14OpenJade_DSSSL31GenericOptInlineSpaceInheritedC4makeEPNS_5ELObjERKN6OpenSP8LocationERNS_11InterpreterE"         ; magicseg='TEXT32' len=109
  "__ZN14OpenJade_DSSSL30GenericOptLengthSpecInheritedCC2EPKNS_10IdentifierEjMNS_10FOTBuilderEFvRKNS4_13OptLengthSpecEE"                                       ; magicseg='TEXT32' len=116
